c__builtin__
set
p0
((lp1
S'ok'
p2
aS'X0'
p3
aS'x'
p4
aS'XP'
p5
aS'model'
p6
aS'Minitial'
p7
atp8
Rp9
.(dp0
S'[model,graphics,this.ok]'
p1
S'double'
p2
sS'NMode_old'
p3
g2
sS'arg1'
p4
S'object'
p5
sS'graphics.exprs'
p6
NsS'rpar'
p7
S'vector'
p8
sS'model.out'
p9
S'matrix'
p10
sS'exprs.slice(NMode_old+6-1,NMode+5)'
p11
g2
sS'MSG'
p12
S'string'
p13
sS'ModifEncore'
p14
S'boolean'
p15
sS'MaxModes'
p16
g2
sS'nzcross'
p17
g2
sS'model.in1'
p18
g10
sS'MSG0'
p19
g13
sS'MSG3'
p20
g13
sS'MSG2'
p21
g13
sS'model.nzcross'
p22
g2
sS'XP'
p23
g10
sS'NX'
p24
g2
sS'graphics.gr_i[1-1][1-1]'
p25
g13
sS'C2'
p26
g8
sS'X0'
p27
g8
sS'model.firing'
p28
g2
sS'OUT'
p29
g8
sS'model.sim'
p30
S'list'
p31
sS'model.evtout'
p32
g2
sS'model.rpar'
p33
g8
sS'y'
p34
g8
sS'CX'
p35
g13
sS'INP[i-1][1-1]'
p36
g2
sS'VEC'
p37
g13
sS'GTV'
p38
g13
sS'graphics'
p39
g5
sS'model.state'
p40
g2
sS'exprs.slice(NMode+6-1,NMode_old+5)'
p41
g8
sS'model.ipar'
p42
g10
sS'typ'
p43
g8
sS'C1'
p44
g8
sS'NMode'
p45
g2
sS'Ci'
p46
g2
sS'model.blocktype'
p47
g13
sS'x.graphics'
p48
g5
sS'INP'
p49
g2
sS'x.model'
p50
g5
sS'model.dep_ut'
p51
g8
sS'exprs'
p52
g10
sS'gr_i'
p53
g8
sS'ipar'
p54
g10
sS'[rXP,cXP]'
p55
g2
sS'x'
p56
g2
sS'model'
p57
g5
sS'Minitial'
p58
g2
sS'imax'
p59
Ns.