c__builtin__
set
p0
((lp1
S'ok'
p2
aS'X0'
p3
aS'x'
p4
aS'XP'
p5
aS'model'
p6
aS'Minitial'
p7
atp8
Rp9
.(dp0
S'NMode_old'
p1
S'double'
p2
sS'arg1'
p3
S'object'
p4
sS'graphics.exprs'
p5
NsS'rpar'
p6
S'vector'
p7
sS'model.out'
p8
S'matrix'
p9
sS'exprs.slice(NMode_old+6-1,NMode+5)'
p10
g2
sS'MSG'
p11
S'string'
p12
sS'ModifEncore'
p13
S'boolean'
p14
sS'MaxModes'
p15
g2
sS'nzcross'
p16
g2
sS'model.in1'
p17
g9
sS'MSG0'
p18
g12
sS'MSG3'
p19
g12
sS'MSG2'
p20
g12
sS'model.nzcross'
p21
g2
sS'XP'
p22
g9
sS'NX'
p23
g2
sS'graphics.gr_i[1-1][1-1]'
p24
g12
sS'C2'
p25
g7
sS'X0'
p26
g7
sS'model.firing'
p27
g2
sS'OUT'
p28
g7
sS'model.sim'
p29
S'list'
p30
sS'model.evtout'
p31
g2
sS'model.rpar'
p32
g7
sS'y'
p33
g7
sS'CX'
p34
g12
sS'INP[i-1][1-1]'
p35
g2
sS'VEC'
p36
g12
sS'GTV'
p37
g12
sS'graphics'
p38
g4
sS'model.state'
p39
g2
sS'exprs.slice(NMode+6-1,NMode_old+5)'
p40
g7
sS'model.ipar'
p41
g9
sS'typ'
p42
g7
sS'C1'
p43
g7
sS'NMode'
p44
g2
sS'Ci'
p45
g2
sS'model.blocktype'
p46
g12
sS'[this.model,graphics,this.ok]'
p47
g30
sS'x.graphics'
p48
g4
sS'INP'
p49
g2
sS'x.model'
p50
g4
sS'model.dep_ut'
p51
g7
sS'exprs'
p52
g9
sS'gr_i'
p53
g7
sS'ipar'
p54
g9
sS'[rXP,cXP]'
p55
g2
sS'x'
p56
g2
sS'model'
p57
g4
sS'Minitial'
p58
g2
sS'imax'
p59
Ns.