c__builtin__
set
p0
((lp1
S'ok'
p2
aS'XP'
p3
aS'exprs'
p4
aS'gr_i'
p5
aS'graphics'
p6
aS'x'
p7
aS'model'
p8
aS'X0'
p9
aS'Minitial'
p10
atp11
Rp12
.(dp0
S'NMode_old'
p1
S'double'
p2
sS'model.in'
p3
S'matrix'
p4
sS'arg1'
p5
S'object'
p6
sS'graphics.exprs'
p7
NsS'rpar'
p8
S'vector'
p9
sS'ModifEncore'
p10
S'boolean'
p11
sS'model.out'
p12
g4
sS'exprs.slice(NMode_old+6-1,NMode+5)'
p13
g2
sS'MSG'
p14
S'string'
p15
sS'XP'
p16
g4
sS'MaxModes'
p17
g2
sS'nzcross'
p18
g2
sS'MSG0'
p19
g15
sS'MSG3'
p20
g15
sS'MSG2'
p21
g15
sS'model.nzcross'
p22
g2
sS'NX'
p23
g2
sS'graphics.gr_i[1-1][1-1]'
p24
g15
sS'C2'
p25
g9
sS'X0'
p26
g9
sS'model.firing'
p27
g2
sS'OUT'
p28
g9
sS'model.sim'
p29
S'list'
p30
sS'model.evtout'
p31
g2
sS'model.rpar'
p32
g9
sS'CX'
p33
g15
sS'INP[i-1][1-1]'
p34
g2
sS'VEC'
p35
g15
sS'GTV'
p36
g15
sS'graphics'
p37
g6
sS'model.state'
p38
g2
sS'exprs.slice(NMode+6-1,NMode_old+5)'
p39
g9
sS'model.ipar'
p40
g4
sS'typ'
p41
g9
sS'C1'
p42
g9
sS'NMode'
p43
g2
sS'Ci'
p44
g2
sS'model.blocktype'
p45
g15
sS'x.graphics'
p46
g6
sS'INP'
p47
g2
sS'x.model'
p48
g6
sS'model.dep_ut'
p49
S'vector_boolean'
p50
sS'exprs'
p51
g4
sS'gr_i'
p52
g9
sS'ipar'
p53
g4
sS'y'
p54
g9
sS'x'
p55
NsS'model'
p56
g6
sS'Minitial'
p57
g2
sS'imax'
p58
Ns.