c__builtin__
set
p0
((lp1
S'ok'
p2
aS'X0'
p3
aS'graphics'
p4
aS'x'
p5
aS'XP'
p6
aS'model'
p7
aS'Minitial'
p8
atp9
Rp10
.(dp0
S'NMode_old'
p1
S'double'
p2
sS'arg1'
p3
S'object'
p4
sS'graphics.exprs'
p5
NsS'rpar'
p6
S'vector'
p7
sS'ModifEncore'
p8
S'boolean'
p9
sS'model.out'
p10
S'matrix'
p11
sS'exprs.slice(NMode_old+6-1,NMode+5)'
p12
g2
sS'MSG'
p13
S'string'
p14
sS'XP'
p15
g11
sS'MaxModes'
p16
g2
sS'nzcross'
p17
g2
sS'model.in1'
p18
g11
sS'MSG0'
p19
g14
sS'MSG3'
p20
g14
sS'MSG2'
p21
g14
sS'model.nzcross'
p22
g2
sS'NX'
p23
g2
sS'graphics.gr_i[1-1][1-1]'
p24
g14
sS'C2'
p25
g7
sS'X0'
p26
g7
sS'model.firing'
p27
g2
sS'OUT'
p28
g7
sS'model.sim'
p29
S'list'
p30
sS'model.evtout'
p31
g2
sS'model.rpar'
p32
g7
sS'CX'
p33
g14
sS'INP[i-1][1-1]'
p34
g2
sS'VEC'
p35
g14
sS'GTV'
p36
g14
sS'graphics'
p37
g4
sS'model.state'
p38
g2
sS'exprs.slice(NMode+6-1,NMode_old+5)'
p39
g7
sS'model.ipar'
p40
g11
sS'typ'
p41
g7
sS'C1'
p42
g7
sS'NMode'
p43
g2
sS'Ci'
p44
g2
sS'model.blocktype'
p45
g14
sS'x.graphics'
p46
g4
sS'INP'
p47
g2
sS'x.model'
p48
g4
sS'model.dep_ut'
p49
g7
sS'exprs'
p50
g11
sS'gr_i'
p51
g7
sS'ipar'
p52
g11
sS'y'
p53
g7
sS'x'
p54
g2
sS'model'
p55
g4
sS'Minitial'
p56
g2
sS'imax'
p57
Ns.