c__builtin__
set
p0
((lp1
S'ok'
p2
aS'X0'
p3
aS'graphics'
p4
aS'x'
p5
aS'XP'
p6
aS'model'
p7
aS'Minitial'
p8
atp9
Rp10
.(dp0
S'NMode_old'
p1
S'double'
p2
sS'model.in'
p3
S'matrix'
p4
sS'graphics.exprs'
p5
NsS'rpar'
p6
S'vector'
p7
sS'ModifEncore'
p8
S'boolean'
p9
sS'model.out'
p10
g4
sS'exprs.slice(NMode_old+6-1,NMode+5)'
p11
g2
sS'MSG'
p12
S'string'
p13
sS'XP'
p14
g4
sS'MaxModes'
p15
g2
sS'nzcross'
p16
g2
sS'MSG0'
p17
g13
sS'MSG3'
p18
g13
sS'MSG2'
p19
g13
sS'model.nzcross'
p20
g2
sS'NX'
p21
g2
sS'graphics.gr_i[1-1][1-1]'
p22
g13
sS'C2'
p23
g7
sS'X0'
p24
g7
sS'model.firing'
p25
g2
sS'OUT'
p26
g7
sS'model.sim'
p27
S'list'
p28
sS'model.evtout'
p29
g2
sS'model.rpar'
p30
g7
sS'CX'
p31
g13
sS'INP[i-1][1-1]'
p32
g2
sS'VEC'
p33
g13
sS'GTV'
p34
g13
sS'graphics'
p35
S'object'
p36
sS'model.state'
p37
g2
sS'exprs.slice(NMode+6-1,NMode_old+5)'
p38
g7
sS'model.ipar'
p39
g4
sS'typ'
p40
g7
sS'C1'
p41
g7
sS'NMode'
p42
g2
sS'Ci'
p43
g2
sS'model.blocktype'
p44
g13
sS'x.graphics'
p45
g36
sS'INP'
p46
g2
sS'x.model'
p47
g36
sS'model.dep_ut'
p48
S'vector_boolean'
p49
sS'exprs'
p50
g4
sS'gr_i'
p51
g7
sS'ipar'
p52
g4
sS'y'
p53
g7
sS'x'
p54
g7
sS'model'
p55
g36
sS'Minitial'
p56
g2
sS'imax'
p57
Ns.