c__builtin__
set
p0
((lp1
S'x'
p2
aS'X0'
p3
aS'ok'
p4
aS'XP'
p5
aS'Minitial'
p6
atp7
Rp8
.(dp0
S'this.Minitial'
p1
S'double'
p2
sS'[model,graphics,this.ok]'
p3
g2
sS'NMode_old'
p4
g2
sS'this.X0'
p5
S'vector'
p6
sS'this.x.graphics'
p7
S'object'
p8
sS'arg1'
p9
g8
sS'graphics.exprs'
p10
NsS'rpar'
p11
g6
sS'model.out'
p12
S'matrix'
p13
sS'exprs.slice(NMode_old+6-1,NMode+5)'
p14
g2
sS'this.x.model'
p15
g8
sS'MSG'
p16
S'string'
p17
sS'ModifEncore'
p18
S'boolean'
p19
sS'MaxModes'
p20
g2
sS'nzcross'
p21
g2
sS'model.in1'
p22
g13
sS'MSG0'
p23
g17
sS'MSG3'
p24
g17
sS'MSG2'
p25
g17
sS'model.nzcross'
p26
g2
sS'NX'
p27
g2
sS'graphics.gr_i[1-1][1-1]'
p28
g17
sS'C2'
p29
g6
sS'C1'
p30
g6
sS'model.firing'
p31
g2
sS'OUT'
p32
g6
sS'this.x'
p33
g2
sS'model.sim'
p34
g6
sS'model.evtout'
p35
g2
sS'model.rpar'
p36
g6
sS'y'
p37
g6
sS'CX'
p38
g17
sS'INP[i-1][1-1]'
p39
g2
sS'VEC'
p40
g17
sS'GTV'
p41
g17
sS'graphics'
p42
g8
sS'model.state'
p43
g2
sS'exprs.slice(NMode+6-1,NMode_old+5)'
p44
g6
sS'model.ipar'
p45
g13
sS'typ'
p46
g6
sS'NMode'
p47
g2
sS'model.blocktype'
p48
g17
sS'Ci'
p49
g2
sS'this.XP'
p50
g13
sS'INP'
p51
g2
sS'model.dep_ut'
p52
g6
sS'exprs'
p53
g13
sS'gr_i'
p54
g6
sS'ipar'
p55
g13
sS'[rXP,cXP]'
p56
g2
sS'model'
p57
g2
sS'imax'
p58
Ns.