c__builtin__
set
p0
((lp1
S'gap'
p2
aS'exprs'
p3
aS'gr_i'
p4
aS'ini'
p5
aS'zcr'
p6
aS'graphics'
p7
aS'x'
p8
aS'model'
p9
atp10
Rp11
.(dp0
S'model.sim'
p1
S'list'
p2
sS'model.out'
p3
S'double'
p4
sS'model.blocktype'
p5
S'string'
p6
sS'x.graphics'
p7
S'object'
p8
sS'arg1'
p9
g8
sS'graphics.exprs'
p10
NsS'model.rpar'
p11
S'matrix'
p12
sS'rpar'
p13
NsS'model.nzcross'
p14
g4
sS'exprs'
p15
g12
sS'x.model'
p16
g8
sS'gr_i'
p17
S'vector'
p18
sS'model.dep_ut'
p19
g18
sS'model.in'
p20
g4
sS'graphics'
p21
g8
sS'y'
p22
g18
sS'x'
p23
NsS'model'
p24
g8
sS'rpar[1-1]'
p25
NsS'typ'
p26
g18
sS'rpar[2-1]'
p27
Ns.