c__builtin__
set
p0
((lp1
S'x'
p2
aS'model'
p3
aS'ini'
p4
aS'zcr'
p5
aS'gap'
p6
atp7
Rp8
.(dp0
S'model.sim'
p1
S'list'
p2
sS'model.in1'
p3
S'double'
p4
sS'model.blocktype'
p5
S'string'
p6
sS'x.graphics'
p7
S'object'
p8
sS'arg1'
p9
g8
sS'graphics.exprs'
p10
NsS'model.rpar'
p11
S'matrix'
p12
sS'rpar'
p13
NsS'model.nzcross'
p14
g4
sS'exprs'
p15
g12
sS'x.model'
p16
g8
sS'gr_i'
p17
S'vector'
p18
sS'model.dep_ut'
p19
g18
sS'graphics'
p20
g8
sS'y'
p21
g18
sS'x'
p22
g4
sS'model'
p23
g8
sS'rpar[1-1]'
p24
NsS'typ'
p25
g18
sS'rpar[2-1]'
p26
NsS'model.out'
p27
g4
s.