c__builtin__
set
p0
((lp1
S'gap'
p2
aS'ini'
p3
aS'zcr'
p4
aS'graphics'
p5
aS'x'
p6
aS'model'
p7
atp8
Rp9
.(dp0
S'model.sim'
p1
S'list'
p2
sS'model.out'
p3
S'double'
p4
sS'model.blocktype'
p5
S'string'
p6
sS'x.graphics'
p7
S'object'
p8
sS'model.nzcross'
p9
g4
sS'graphics.exprs'
p10
NsS'model.rpar'
p11
S'matrix'
p12
sS'rpar'
p13
NsS'exprs'
p14
g12
sS'x.model'
p15
g8
sS'gr_i'
p16
S'vector'
p17
sS'model.dep_ut'
p18
S'vector_boolean'
p19
sS'model.in'
p20
g4
sS'graphics'
p21
g8
sS'y'
p22
g17
sS'x'
p23
g17
sS'model'
p24
g8
sS'rpar[1-1]'
p25
NsS'typ'
p26
g17
sS'rpar[2-1]'
p27
Ns.