c__builtin__
set
p0
((lp1
S'x'
p2
aS'ini'
p3
aS'zcr'
p4
aS'gap'
p5
atp6
Rp7
.(dp0
S'model.sim'
p1
S'vector'
p2
sS'model.in1'
p3
S'double'
p4
sS'model.blocktype'
p5
S'string'
p6
sS'x.graphics'
p7
S'object'
p8
sS'arg1'
p9
g8
sS'graphics.exprs'
p10
NsS'model.rpar'
p11
S'matrix'
p12
sS'rpar'
p13
NsS'model.nzcross'
p14
g4
sS'exprs'
p15
g12
sS'x.model'
p16
g8
sS'gr_i'
p17
g2
sS'model.dep_ut'
p18
g2
sS'graphics'
p19
g8
sS'y'
p20
g2
sS'x'
p21
g4
sS'model'
p22
g8
sS'rpar[1-1]'
p23
NsS'typ'
p24
g2
sS'rpar[2-1]'
p25
NsS'model.out'
p26
g4
s.