c__builtin__
set
p0
((lp1
S'gap'
p2
aS'ini'
p3
aS'zcr'
p4
aS'graphics'
p5
aS'x'
p6
aS'model'
p7
atp8
Rp9
.(dp0
S'model.sim'
p1
S'list'
p2
sS'model.out'
p3
S'double'
p4
sS'model.blocktype'
p5
S'string'
p6
sS'x.graphics'
p7
S'object'
p8
sS'arg1'
p9
g8
sS'graphics.exprs'
p10
NsS'model.rpar'
p11
S'matrix'
p12
sS'rpar'
p13
NsS'model.nzcross'
p14
g4
sS'exprs'
p15
g12
sS'x.model'
p16
g8
sS'gr_i'
p17
S'vector'
p18
sS'model.dep_ut'
p19
S'vector_boolean'
p20
sS'model.in'
p21
g4
sS'graphics'
p22
g8
sS'y'
p23
g18
sS'x'
p24
NsS'model'
p25
g8
sS'rpar[1-1]'
p26
NsS'typ'
p27
g18
sS'rpar[2-1]'
p28
Ns.