c__builtin__
set
p0
((lp1
S'clrs'
p2
aS'imode'
p3
aS'ymax'
p4
aS'win'
p5
aS'graphics'
p6
aS'xmax'
p7
aS'siz'
p8
aS'xmin'
p9
aS'x'
p10
aS'model'
p11
aS'ymin'
p12
atp13
Rp14
.(dp0
S'clrs'
p1
S'matrix'
p2
sS'z[6*(i-1)+5-1]'
p3
S'double'
p4
sS'win'
p5
g4
sS'graphics'
p6
S'object'
p7
sS'dstate'
p8
NsS'rpar'
p9
g2
sS'x.model'
p10
g7
sS'z[6*(i-1)+3-1]'
p11
g4
sS'xmin'
p12
g4
sS'model.dstate'
p13
S'vector'
p14
sS'ymin'
p15
g4
sS'model.in2'
p16
g2
sS'model.intyp'
p17
g2
sS'z[6*(i-1)+2-1]'
p18
g4
sS'exprs'
p19
g2
sS'siz'
p20
g2
sS'model.evtin'
p21
g4
sS'model.firing'
p22
g14
sS'model.sim'
p23
S'list'
p24
sS'z[6*(i-1)+4-1]'
p25
g4
sS'xmax'
p26
g4
sS'mess'
p27
g2
sS'imode'
p28
g4
sS'model.rpar'
p29
g2
sS'model.in'
p30
g2
sS'graphics.exprs'
p31
NsS'z[6*(i-1)+1-1]'
p32
g4
sS'model.ipar'
p33
g2
sS'typ'
p34
g14
sS'ymax'
p35
g4
sS'ok'
p36
S'boolean'
p37
sS'model.blocktype'
p38
S'string'
p39
sS'x.graphics'
p40
g7
sS'model.dep_ut'
p41
S'vector_boolean'
p42
sS'z[6*(i-1)+6-1]'
p43
g4
sS'gr_i'
p44
g14
sS'ipar'
p45
g2
sS'y'
p46
g14
sS'x'
p47
g14
sS'model'
p48
g7
sS'z'
p49
g14
s.