c__builtin__
set
p0
((lp1
S'clrs'
p2
aS'siz'
p3
aS'ymax'
p4
aS'imode'
p5
aS'xmax'
p6
aS'win'
p7
aS'xmin'
p8
aS'x'
p9
aS'model'
p10
aS'ymin'
p11
atp12
Rp13
.(dp0
S'clrs'
p1
S'matrix'
p2
sS'z[6*(i-1)+5-1]'
p3
S'double'
p4
sS'arg1'
p5
S'object'
p6
sS'graphics.exprs'
p7
NsS'dstate'
p8
NsS'rpar'
p9
g2
sS'x.model'
p10
g6
sS'z[6*(i-1)+3-1]'
p11
g4
sS'xmin'
p12
g4
sS'model.dstate'
p13
S'vector'
p14
sS'ymin'
p15
g4
sS'model.in2'
p16
g2
sS'model.in1'
p17
g2
sS'z[6*(i-1)+2-1]'
p18
g4
sS'exprs'
p19
g2
sS'siz'
p20
g2
sS'win'
p21
g4
sS'model.evtin'
p22
g4
sS'model.firing'
p23
g14
sS'model.sim'
p24
g14
sS'z[6*(i-1)+4-1]'
p25
g4
sS'xmax'
p26
g4
sS'mess'
p27
g2
sS'imode'
p28
g4
sS'model.intyp'
p29
g2
sS'model.rpar'
p30
g2
sS'graphics'
p31
g6
sS'z[6*(i-1)+1-1]'
p32
g4
sS'model.ipar'
p33
g2
sS'typ'
p34
g14
sS'ymax'
p35
g4
sS'ok'
p36
S'boolean'
p37
sS'model.blocktype'
p38
S'string'
p39
sS'x.graphics'
p40
g6
sS'model.dep_ut'
p41
g14
sS'z[6*(i-1)+6-1]'
p42
g4
sS'gr_i'
p43
g14
sS'ipar'
p44
g2
sS'y'
p45
g14
sS'x'
p46
g4
sS'model'
p47
g6
sS'z'
p48
g14
s.