c__builtin__
set
p0
((lp1
S'clrs'
p2
aS'siz'
p3
aS'ymax'
p4
aS'imode'
p5
aS'xmax'
p6
aS'win'
p7
aS'xmin'
p8
aS'x'
p9
aS'ymin'
p10
atp11
Rp12
.(dp0
S'model.dstate'
p1
S'vector'
p2
sS'arg1'
p3
S'object'
p4
sS'graphics.exprs'
p5
NsS'this.imode'
p6
S'double'
p7
sS'dstate'
p8
NsS'rpar'
p9
S'matrix'
p10
sS'z[6*(i-1)+3-1]'
p11
g7
sS'this.x.model'
p12
g4
sS'this.siz'
p13
g10
sS'z[6*(i-1)+5-1]'
p14
g7
sS'model.in2'
p15
g10
sS'model.in1'
p16
g10
sS'this.xmin'
p17
g7
sS'this.ymin'
p18
g7
sS'z[6*(i-1)+2-1]'
p19
g7
sS'exprs'
p20
g10
sS'this.x.graphics'
p21
g4
sS'this.ymax'
p22
g7
sS'this.win'
p23
g7
sS'this.clrs'
p24
g10
sS'model.evtin'
p25
g7
sS'model.firing'
p26
g2
sS'this.x'
p27
g7
sS'model.sim'
p28
g2
sS'z[6*(i-1)+4-1]'
p29
g7
sS'mess'
p30
g10
sS'model.intyp'
p31
g10
sS'model.rpar'
p32
g10
sS'graphics'
p33
g4
sS'z[6*(i-1)+1-1]'
p34
g7
sS'model.ipar'
p35
g10
sS'typ'
p36
g2
sS'this.xmax'
p37
g7
sS'ok'
p38
S'boolean'
p39
sS'model.blocktype'
p40
S'string'
p41
sS'model.dep_ut'
p42
g2
sS'z[6*(i-1)+6-1]'
p43
g7
sS'gr_i'
p44
g2
sS'ipar'
p45
g10
sS'y'
p46
g2
sS'model'
p47
g7
sS'z'
p48
g2
s.