c__builtin__
set
p0
((lp1
S'C'
p2
aS'g'
p3
aS'yd'
p4
aS'xd'
p5
aS'exprs'
p6
aS'walls'
p7
aS'gr_i'
p8
aS'rpar1'
p9
aS'rpar2'
p10
aS'graphics'
p11
aS'y'
p12
aS'x'
p13
aS'model'
p14
aS'xt'
p15
atp16
Rp17
.(dp0
S'model.in'
p1
S'vector'
p2
sS'arg1'
p3
S'object'
p4
sS'graphics.exprs'
p5
NsS'xd'
p6
S'matrix'
p7
sS'x.model'
p8
NsS'model.out'
p9
g7
sS'xt'
p10
g2
sS'x.graphics'
p11
g4
sS'model.nzcross'
p12
S'double'
p13
sS'state'
p14
g2
sS'exprs[9-1]'
p15
S'string'
p16
sS'model.sim'
p17
S'list'
p18
sS'C'
p19
g13
sS'yd'
p20
g7
sS'model.rpar'
p21
g7
sS'walls'
p22
g7
sS'rpar1'
p23
g13
sS'rpar2'
p24
g13
sS'graphics'
p25
g4
sS'model.ipar'
p26
g2
sS'typ'
p27
g2
sS'exprs[8-1]'
p28
g16
sS'ok'
p29
S'boolean'
p30
sS'model.blocktype'
p31
g16
sS'g'
p32
g13
sS'k'
p33
g13
sS'model.dep_ut'
p34
g2
sS'n'
p35
g13
sS'exprs'
p36
g7
sS'gr_i'
p37
g2
sS'ipar'
p38
g2
sS'y'
p39
g7
sS'x'
p40
g13
sS'model'
p41
g4
sS'ipar[k-1]'
p42
NsS'model.state'
p43
g2
s.