c__builtin__
set
p0
((lp1
S'C'
p2
aS'g'
p3
aS'yd'
p4
aS'xd'
p5
aS'walls'
p6
aS'rpar1'
p7
aS'rpar2'
p8
aS'y'
p9
aS'x'
p10
aS'xt'
p11
atp12
Rp13
.(dp0
S'model.sim'
p1
S'vector'
p2
sS'this.x.graphics'
p3
S'object'
p4
sS'arg1'
p5
g4
sS'graphics.exprs'
p6
NsS'this.rpar1'
p7
S'double'
p8
sS'this.rpar2'
p9
NsS'model.out'
p10
S'matrix'
p11
sS'this.xt'
p12
g2
sS'model.in1'
p13
g2
sS'model.nzcross'
p14
g8
sS'this.xd'
p15
g11
sS'state'
p16
g2
sS'exprs[9-1]'
p17
S'string'
p18
sS'this.x'
p19
g8
sS'this.y'
p20
g11
sS'ipar'
p21
g2
sS'this.walls'
p22
g11
sS'model.rpar'
p23
g11
sS'this.x.model'
p24
NsS'model.state'
p25
g2
sS'graphics'
p26
g4
sS'model.ipar'
p27
g2
sS'typ'
p28
g2
sS'exprs[8-1]'
p29
g18
sS'this.g'
p30
g8
sS'[model,graphics,ok]'
p31
g8
sS'ok'
p32
S'boolean'
p33
sS'model.blocktype'
p34
g18
sS'k'
p35
g8
sS'model.dep_ut'
p36
g2
sS'n'
p37
g8
sS'exprs'
p38
g11
sS'gr_i'
p39
g2
sS'this.yd'
p40
g11
sS'y'
p41
g2
sS'model'
p42
g4
sS'this.C'
p43
g8
sS'ipar[k-1]'
p44
Ns.