c__builtin__
set
p0
((lp1
S'C'
p2
aS'g'
p3
aS'yd'
p4
aS'xd'
p5
aS'walls'
p6
aS'rpar1'
p7
aS'rpar2'
p8
aS'y'
p9
aS'x'
p10
aS'model'
p11
aS'xt'
p12
atp13
Rp14
.(dp0
S'arg1'
p1
S'object'
p2
sS'graphics.exprs'
p3
NsS'xd'
p4
S'matrix'
p5
sS'x.model'
p6
NsS'model.out'
p7
g5
sS'xt'
p8
S'vector'
p9
sS'model.in1'
p10
g9
sS'x.graphics'
p11
g2
sS'model.nzcross'
p12
S'double'
p13
sS'state'
p14
g9
sS'exprs[9-1]'
p15
S'string'
p16
sS'model.sim'
p17
S'list'
p18
sS'C'
p19
g13
sS'yd'
p20
g5
sS'model.rpar'
p21
g5
sS'walls'
p22
g5
sS'rpar1'
p23
g13
sS'rpar2'
p24
g13
sS'graphics'
p25
g2
sS'model.ipar'
p26
g9
sS'typ'
p27
g9
sS'exprs[8-1]'
p28
g16
sS'ok'
p29
S'boolean'
p30
sS'model.blocktype'
p31
g16
sS'g'
p32
g13
sS'k'
p33
g13
sS'model.dep_ut'
p34
g9
sS'n'
p35
g13
sS'exprs'
p36
g5
sS'gr_i'
p37
g9
sS'ipar'
p38
g9
sS'y'
p39
g5
sS'x'
p40
g13
sS'model'
p41
g2
sS'ipar[k-1]'
p42
NsS'model.state'
p43
g9
s.