c__builtin__
set
p0
((lp1
S'clrs'
p2
aS'imode'
p3
aS'ymax'
p4
aS'siz'
p5
aS'exprs'
p6
aS'gr_i'
p7
aS'xmax'
p8
aS'graphics'
p9
aS'xmin'
p10
aS'x'
p11
aS'model'
p12
aS'ymin'
p13
aS'win'
p14
atp15
Rp16
.(dp0
S'clrs'
p1
S'matrix'
p2
sS'z[6*(i-1)+5-1]'
p3
S'double'
p4
sS'arg1'
p5
S'object'
p6
sS'graphics.exprs'
p7
NsS'dstate'
p8
NsS'rpar'
p9
g2
sS'x.model'
p10
g6
sS'z[6*(i-1)+3-1]'
p11
g4
sS'xmin'
p12
g4
sS'model.dstate'
p13
S'vector'
p14
sS'ymin'
p15
g4
sS'model.in2'
p16
g2
sS'model.intyp'
p17
g2
sS'z[6*(i-1)+2-1]'
p18
g4
sS'exprs'
p19
g2
sS'siz'
p20
g2
sS'win'
p21
g4
sS'model.evtin'
p22
g4
sS'model.firing'
p23
g14
sS'model.sim'
p24
S'list'
p25
sS'z[6*(i-1)+4-1]'
p26
g4
sS'xmax'
p27
g4
sS'mess'
p28
g2
sS'imode'
p29
g4
sS'model.rpar'
p30
g2
sS'model.in'
p31
g2
sS'graphics'
p32
g6
sS'z[6*(i-1)+1-1]'
p33
g4
sS'model.ipar'
p34
g2
sS'typ'
p35
g14
sS'ymax'
p36
g4
sS'ok'
p37
S'boolean'
p38
sS'model.blocktype'
p39
S'string'
p40
sS'x.graphics'
p41
g6
sS'model.dep_ut'
p42
g14
sS'z[6*(i-1)+6-1]'
p43
g4
sS'gr_i'
p44
g14
sS'ipar'
p45
g2
sS'y'
p46
g14
sS'x'
p47
g4
sS'model'
p48
g6
sS'z'
p49
g14
s.