c__builtin__
set
p0
((lp1
S'C'
p2
aS'g'
p3
aS'yd'
p4
aS'xd'
p5
aS'walls'
p6
aS'rpar1'
p7
aS'rpar2'
p8
aS'graphics'
p9
aS'y'
p10
aS'x'
p11
aS'model'
p12
aS'xt'
p13
atp14
Rp15
.(dp0
S'model.in'
p1
S'vector'
p2
sS'exprs[9-1]'
p3
S'string'
p4
sS'graphics.exprs'
p5
NsS'xd'
p6
S'matrix'
p7
sS'x.model'
p8
NsS'model.out'
p9
g7
sS'xt'
p10
g2
sS'x.graphics'
p11
S'object'
p12
sS'model.nzcross'
p13
S'double'
p14
sS'state'
p15
g2
sS'model.sim'
p16
S'list'
p17
sS'C'
p18
g14
sS'yd'
p19
g7
sS'model.rpar'
p20
g7
sS'walls'
p21
g7
sS'rpar1'
p22
g14
sS'rpar2'
p23
g14
sS'graphics'
p24
g12
sS'model.ipar'
p25
g2
sS'typ'
p26
g2
sS'model'
p27
g12
sS'ok'
p28
S'boolean'
p29
sS'model.blocktype'
p30
g4
sS'g'
p31
g14
sS'k'
p32
g14
sS'model.dep_ut'
p33
S'vector_boolean'
p34
sS'n'
p35
g14
sS'exprs'
p36
g7
sS'gr_i'
p37
g2
sS'ipar'
p38
g2
sS'y'
p39
g7
sS'x'
p40
g7
sS'exprs[8-1]'
p41
g4
sS'ipar[k-1]'
p42
NsS'model.state'
p43
g2
s.