c__builtin__
set
p0
((lp1
S'phi'
p2
aS'ymax'
p3
aS'csiz'
p4
aS'graphics'
p5
aS'xmax'
p6
aS'plen'
p7
aS'xmin'
p8
aS'x'
p9
aS'model'
p10
aS'ymin'
p11
atp12
Rp13
.(dp0
S'model.dstate'
p1
S'double'
p2
sS'arg1'
p3
S'object'
p4
sS'graphics'
p5
g4
sS'dstate'
p6
NsS'rpar'
p7
S'matrix'
p8
sS'x.model'
p9
g4
sS'xmin'
p10
g2
sS'ymin'
p11
g2
sS'ymax'
p12
g2
sS'x.graphics'
p13
g4
sS'model.evtin'
p14
g2
sS'model.sim'
p15
S'list'
p16
sS'phi'
p17
g2
sS'mess'
p18
g8
sS'csiz'
p19
g2
sS'model.rpar'
p20
g8
sS'model.in'
p21
g8
sS'graphics.exprs'
p22
NsS'plen'
p23
g2
sS'typ'
p24
S'vector'
p25
sS'ok'
p26
S'boolean'
p27
sS'model.blocktype'
p28
S'string'
p29
sS'model.dep_ut'
p30
S'vector_boolean'
p31
sS'exprs'
p32
g29
sS'gr_i'
p33
g25
sS'xmax'
p34
g2
sS'y'
p35
g25
sS'x'
p36
NsS'model'
p37
g4
s.