c__builtin__
set
p0
((lp1
S'phi'
p2
aS'ymax'
p3
aS'csiz'
p4
aS'xmax'
p5
aS'plen'
p6
aS'xmin'
p7
aS'x'
p8
aS'model'
p9
aS'ymin'
p10
atp11
Rp12
.(dp0
S'model.dstate'
p1
S'double'
p2
sS'arg1'
p3
S'object'
p4
sS'graphics'
p5
g4
sS'dstate'
p6
NsS'rpar'
p7
S'matrix'
p8
sS'x.model'
p9
g4
sS'xmin'
p10
g2
sS'ymin'
p11
g2
sS'model.in1'
p12
g8
sS'ymax'
p13
g2
sS'x.graphics'
p14
g4
sS'model.evtin'
p15
g2
sS'model.sim'
p16
S'list'
p17
sS'phi'
p18
g2
sS'mess'
p19
g8
sS'csiz'
p20
g2
sS'model.rpar'
p21
g8
sS'graphics.exprs'
p22
NsS'plen'
p23
g2
sS'typ'
p24
S'vector'
p25
sS'ok'
p26
S'boolean'
p27
sS'model.blocktype'
p28
S'string'
p29
sS'model.dep_ut'
p30
g25
sS'exprs'
p31
g29
sS'gr_i'
p32
g25
sS'xmax'
p33
g2
sS'y'
p34
g25
sS'x'
p35
g2
sS'model'
p36
g4
s.