c__builtin__
set
p0
((lp1
S'phi'
p2
aS'ymax'
p3
aS'csiz'
p4
aS'xmax'
p5
aS'plen'
p6
aS'xmin'
p7
aS'x'
p8
aS'ymin'
p9
atp10
Rp11
.(dp0
S'model.dstate'
p1
S'double'
p2
sS'arg1'
p3
S'object'
p4
sS'graphics'
p5
g4
sS'dstate'
p6
NsS'rpar'
p7
S'matrix'
p8
sS'this.x.model'
p9
g4
sS'model.in1'
p10
g8
sS'this.ymin'
p11
g2
sS'this.xmax'
p12
g2
sS'this.x.graphics'
p13
g4
sS'this.ymax'
p14
g2
sS'model.evtin'
p15
g2
sS'this.csiz'
p16
g2
sS'this.x'
p17
g2
sS'model.sim'
p18
S'vector'
p19
sS'this.plen'
p20
g2
sS'mess'
p21
g8
sS'model.rpar'
p22
g8
sS'graphics.exprs'
p23
NsS'this.xmin'
p24
g2
sS'typ'
p25
g19
sS'ok'
p26
S'boolean'
p27
sS'model.blocktype'
p28
S'string'
p29
sS'this.phi'
p30
g2
sS'model.dep_ut'
p31
g19
sS'exprs'
p32
g29
sS'gr_i'
p33
g19
sS'y'
p34
g19
sS'model'
p35
g4
s.