c__builtin__
set
p0
((lp1
S'i'
p2
aS'o'
p3
aS'rpar'
p4
aS'lab'
p5
aS'funam'
p6
aS'x'
p7
aS'model'
p8
atp9
Rp10
.(dp0
S'label[1-1]'
p1
NsS'model.dstate'
p2
S'vector'
p3
sS'arg1'
p4
S'object'
p5
sS'graphics'
p6
g5
sS'rpar'
p7
g3
sS'model.out'
p8
S'double'
p9
sS'x.model'
p10
g5
sS'model.dep_ut'
p11
g3
sS'funam'
p12
S'string'
p13
sS'out'
p14
g9
sS'ni'
p15
g9
sS'model.in1'
p16
g9
sS'clkin'
p17
g3
sS'x.graphics'
p18
g5
sS'z0'
p19
g3
sS'tt'
p20
g3
sS'label'
p21
g3
sS'[ok,tt]'
p22
g9
sS'model.evtin'
p23
g3
sS'model.firing'
p24
g3
sS'model.sim'
p25
g3
sS'model.evtout'
p26
g3
sS'clkout'
p27
g3
sS'auto'
p28
g3
sS'label[2-1]'
p29
g3
sS'in1'
p30
g9
sS'model.rpar'
p31
g3
sS'model.state'
p32
g3
sS'graphics.exprs'
p33
NsS'x0'
p34
g3
sS'model.ipar'
p35
g9
sS'typ'
p36
g13
sS"model.sim[('1', 'double')]"
p37
NsS'[model,graphics,ok]'
p38
g9
sS'model.blocktype'
p39
g13
sS'i'
p40
g9
sS'no'
p41
g9
sS'o'
p42
g9
sS'gr_i'
p43
g3
sS'y'
p44
g3
sS'x'
p45
g9
sS'model'
p46
g5
s.