c__builtin__
set
p0
((lp1
S'i'
p2
aS'o'
p3
aS'rpar'
p4
aS'exprs'
p5
aS'gr_i'
p6
aS'lab'
p7
aS'graphics'
p8
aS'funam'
p9
aS'x'
p10
aS'model'
p11
atp12
Rp13
.(dp0
S'label[1-1]'
p1
NsS'model.dstate'
p2
S'vector'
p3
sS'arg1'
p4
S'object'
p5
sS'graphics'
p6
g5
sS'rpar'
p7
g3
sS'model.out'
p8
S'double'
p9
sS'x.model'
p10
g5
sS'model.dep_ut'
p11
S'vector_boolean'
p12
sS'funam'
p13
S'string'
p14
sS'out'
p15
g9
sS'ni'
p16
g9
sS'clkin'
p17
g3
sS'x.graphics'
p18
g5
sS'z0'
p19
g3
sS'tt'
p20
g3
sS'label'
p21
S'list'
p22
sS'model.evtin'
p23
g3
sS'model.firing'
p24
g3
sS'model.sim'
p25
g22
sS'model.evtout'
p26
g3
sS'clkout'
p27
g3
sS'auto'
p28
g3
sS'label[2-1]'
p29
g3
sS'in1'
p30
g9
sS'model.rpar'
p31
g3
sS'model.state'
p32
g3
sS'model.in'
p33
g9
sS'graphics.exprs'
p34
NsS'x0'
p35
g3
sS'model.ipar'
p36
g9
sS'typ'
p37
g14
sS'model.blocktype'
p38
g14
sS'i'
p39
g9
sS'model.sim[1-1]'
p40
NsS'no'
p41
g9
sS'o'
p42
g9
sS'gr_i'
p43
g3
sS'y'
p44
g3
sS'x'
p45
NsS'model'
p46
g5
s.