c__builtin__
set
p0
((lp1
S'i'
p2
aS'o'
p3
aS'rpar'
p4
aS'exprs'
p5
aS'gr_i'
p6
aS'lab'
p7
aS'graphics'
p8
aS'funam'
p9
aS'x'
p10
aS'model'
p11
atp12
Rp13
.(dp0
S'label[1-1]'
p1
NsS'model.dstate'
p2
S'vector'
p3
sS'arg1'
p4
S'object'
p5
sS'graphics'
p6
g5
sS'rpar'
p7
g3
sS'model.out'
p8
S'double'
p9
sS'x.model'
p10
g5
sS'model.dep_ut'
p11
g3
sS'funam'
p12
S'string'
p13
sS'out'
p14
g9
sS'ni'
p15
g9
sS'model.in1'
p16
g9
sS'clkin'
p17
g3
sS'x.graphics'
p18
g5
sS'z0'
p19
g3
sS'tt'
p20
g3
sS'label'
p21
S'list'
p22
sS'model.evtin'
p23
g3
sS'model.firing'
p24
g3
sS'model.sim'
p25
g22
sS'model.evtout'
p26
g3
sS'clkout'
p27
g3
sS'auto'
p28
g3
sS'label[2-1]'
p29
g3
sS'in1'
p30
g9
sS'model.rpar'
p31
g3
sS'model.state'
p32
g3
sS'graphics.exprs'
p33
NsS'x0'
p34
g3
sS'model.ipar'
p35
g9
sS'typ'
p36
g13
sS'model.blocktype'
p37
g13
sS'i'
p38
g9
sS'model.sim[1-1]'
p39
NsS'no'
p40
g9
sS'o'
p41
g9
sS'gr_i'
p42
g3
sS'y'
p43
g3
sS'x'
p44
g9
sS'model'
p45
g5
s.