c__builtin__
set
p0
((lp1
S'i'
p2
aS'o'
p3
aS'rpar'
p4
aS'lab'
p5
aS'funam'
p6
aS'x'
p7
aS'model'
p8
atp9
Rp10
.(dp0
S'label[1-1]'
p1
NsS'model.dstate'
p2
S'vector'
p3
sS'arg1'
p4
S'object'
p5
sS'graphics'
p6
g5
sS'rpar'
p7
g3
sS'model.out'
p8
S'double'
p9
sS'x.model'
p10
g5
sS'model.dep_ut'
p11
g3
sS'funam'
p12
S'string'
p13
sS'out'
p14
g9
sS'ni'
p15
g9
sS'model.in1'
p16
g9
sS'clkin'
p17
g3
sS'x.graphics'
p18
g5
sS'z0'
p19
g3
sS'tt'
p20
g3
sS'label'
p21
S'list'
p22
sS'[ok,tt]'
p23
g9
sS'model.evtin'
p24
g3
sS'model.firing'
p25
g3
sS'model.sim'
p26
g22
sS'model.evtout'
p27
g3
sS'clkout'
p28
g3
sS'auto'
p29
g3
sS'label[2-1]'
p30
g3
sS'in1'
p31
g9
sS'model.rpar'
p32
g3
sS'model.state'
p33
g3
sS'graphics.exprs'
p34
NsS'x0'
p35
g3
sS'model.ipar'
p36
g9
sS'typ'
p37
g13
sS"model.sim[('1', 'double')]"
p38
NsS'[model,graphics,ok]'
p39
g9
sS'model.blocktype'
p40
g13
sS'i'
p41
g9
sS'no'
p42
g9
sS'o'
p43
g9
sS'gr_i'
p44
g3
sS'y'
p45
g3
sS'x'
p46
g9
sS'model'
p47
g5
s.