c__builtin__
set
p0
((lp1
S'i'
p2
aS'o'
p3
aS'rpar'
p4
aS'graphics'
p5
aS'funam'
p6
aS'x'
p7
aS'model'
p8
atp9
Rp10
.(dp0
S'label[1-1]'
p1
NsS'model.dstate'
p2
S'vector'
p3
sS'graphics'
p4
S'object'
p5
sS'rpar'
p6
g3
sS'model.out'
p7
S'double'
p8
sS'x.model'
p9
g5
sS'model.dep_ut'
p10
S'vector_boolean'
p11
sS'funam'
p12
S'string'
p13
sS'out'
p14
g8
sS'ni'
p15
g8
sS'clkin'
p16
g3
sS'x.graphics'
p17
g5
sS'z0'
p18
g3
sS'tt'
p19
g3
sS'label'
p20
S'list'
p21
sS'model.evtin'
p22
g3
sS'model.firing'
p23
g3
sS'model.sim'
p24
g21
sS'model.evtout'
p25
g3
sS'clkout'
p26
g3
sS'auto'
p27
g3
sS'label[2-1]'
p28
g3
sS'in1'
p29
g8
sS'model.rpar'
p30
g3
sS'model.state'
p31
g3
sS'model.in'
p32
g8
sS'graphics.exprs'
p33
NsS'x0'
p34
g3
sS'model.ipar'
p35
g8
sS'typ'
p36
g13
sS'model.blocktype'
p37
g13
sS'i'
p38
g8
sS'model.sim[1-1]'
p39
NsS'no'
p40
g8
sS'o'
p41
g8
sS'gr_i'
p42
g3
sS'y'
p43
g3
sS'x'
p44
g3
sS'model'
p45
g5
s.