c__builtin__
set
p0
((lp1
S'i'
p2
aS'lab'
p3
aS'rpar'
p4
aS'o'
p5
aS'funam'
p6
aS'x'
p7
atp8
Rp9
.(dp0
S'model.dstate'
p1
S'vector'
p2
sS'arg1'
p3
S'object'
p4
sS'graphics'
p5
g4
sS'z0'
p6
g2
sS'this.x.model'
p7
g4
sS'model.out'
p8
S'double'
p9
sS'this.funam'
p10
S'string'
p11
sS'this.o'
p12
g9
sS'out'
p13
g9
sS'ni'
p14
g9
sS'model.in1'
p15
g9
sS'clkin'
p16
g2
sS'no'
p17
g9
sS'typ'
p18
g11
sS'tt'
p19
g2
sS'this.rpar'
p20
g2
sS'label'
p21
g2
sS'[ok,tt]'
p22
g9
sS'model.evtin'
p23
g2
sS'model.firing'
p24
g2
sS'this.x'
p25
g9
sS'model.sim'
p26
g2
sS'model.evtout'
p27
g2
sS'clkout'
p28
g2
sS'auto'
p29
g2
sS'label[2-1]'
p30
g2
sS'in1'
p31
g9
sS'model.rpar'
p32
NsS'this.i'
p33
g9
sS'model.state'
p34
g2
sS'graphics.exprs'
p35
NsS'x0'
p36
g2
sS'model.ipar'
p37
g9
sS'this.x.graphics'
p38
g4
sS'[model,graphics,ok]'
p39
g9
sS'model.blocktype'
p40
g11
sS'model.sim[1-1]'
p41
NsS'label[1-1]'
p42
NsS'model.dep_ut'
p43
g2
sS'gr_i'
p44
g2
sS'y'
p45
g2
sS'model'
p46
g9
s.