c__builtin__
set
p0
((lp1
S'impli'
p2
aS'co'
p3
aS'ci'
p4
aS'rpar'
p5
aS'xx'
p6
aS'out'
p7
aS'function_name'
p8
aS'in1'
p9
aS'lab'
p10
aS'it'
p11
aS'nmode'
p12
aS'z'
p13
aS'CC4'
p14
aS'auto0'
p15
aS'nzcr'
p16
aS'depu'
p17
aS'dept'
p18
aS'opar'
p19
aS'oz'
p20
aS'ipar'
p21
aS'x'
p22
aS'ot'
p23
atp24
Rp25
.c__builtin__
set
p0
((lp1
tp2
Rp3
.c__builtin__
set
p0
((lp1
tp2
Rp3
.c__builtin__
set
p0
((lp1
tp2
Rp3
.c__builtin__
set
p0
((lp1
tp2
Rp3
.c__builtin__
set
p0
((lp1
tp2
Rp3
.