c__builtin__
set
p0
((lp1
S'impli'
p2
aS'co'
p3
aS'ci'
p4
aS'rpar'
p5
aS'xx'
p6
aS'out'
p7
aS'function_name'
p8
aS'in1'
p9
aS'lab'
p10
aS'it'
p11
aS'nmode'
p12
aS'z'
p13
aS'CC4'
p14
aS'auto0'
p15
aS'nzcr'
p16
aS'depu'
p17
aS'dept'
p18
aS'opar'
p19
aS'oz'
p20
aS'ipar'
p21
aS'x'
p22
aS'ot'
p23
atp24
Rp25
.(dp0
S'model.odstate'
p1
NsS'ci'
p2
S'double'
p3
sS'co'
p4
g3
sS'arg1'
p5
S'object'
p6
sS'graphics.exprs'
p7
NsS'rpar'
p8
S'vector'
p9
sS'model.out'
p10
g3
sS'xx'
p11
g9
sS'model.intyp'
p12
g3
sS'funtyp'
p13
g3
sS'funam'
p14
S'string'
p15
sS'model.dstate'
p16
g9
sS'model.in2'
p17
g3
sS'model.in1'
p18
g3
sS'nevin'
p19
g3
sS'x.graphics'
p20
g6
sS'model.nzcross'
p21
NsS'tt'
p22
g3
sS'label'
p23
g9
sS'nx'
p24
g3
sS'nz'
p25
g3
sS'model.firing'
p26
NsS'nevout'
p27
g3
sS'model.sim'
p28
g9
sS'[ok,tt,cancel]'
p29
g3
sS'label[2-1]'
p30
g3
sS'model.out2'
p31
g3
sS'model.nmode'
p32
NsS'model.rpar'
p33
g9
sS'model.outtyp'
p34
g3
sS'model.state'
p35
g9
sS'graphics'
p36
g6
sS'model.ipar'
p37
g3
sS'typ'
p38
g9
sS'model.opar'
p39
NsS'[model,graphics,ok]'
p40
g3
sS'ok'
p41
S'boolean'
p42
sS'label[1-1]'
p43
NsS'x.model'
p44
g6
sS'model.dep_ut'
p45
g9
sS'depu'
p46
g42
sS'dept'
p47
g42
sS'gr_i'
p48
g9
sS'ipar'
p49
g3
sS'y'
p50
g9
sS'x'
p51
g3
sS'model'
p52
g6
sS'z'
p53
g9
sS'dep_ut'
p54
g9
s.