c__builtin__
set
p0
((lp1
S'impli'
p2
aS'co'
p3
aS'i'
p4
aS'auto0'
p5
aS'ci'
p6
aS'o'
p7
aS'ng'
p8
aS'depu'
p9
aS'dept'
p10
aS'xx'
p11
aS'rpar'
p12
aS'lab'
p13
aS'ipar'
p14
aS'x'
p15
aS'z'
p16
aS'function_name'
p17
atp18
Rp19
.(dp0
S'model.dstate'
p1
S'vector'
p2
sS'model.sim'
p3
g2
sS'this.x.graphics'
p4
S'object'
p5
sS'arg1'
p6
g5
sS'this.o'
p7
S'double'
p8
sS'model.evtout'
p9
g2
sS'this.ng'
p10
g8
sS'model.out'
p11
g8
sS'funtyp'
p12
g8
sS'model.dep_ut'
p13
g2
sS'this.x.model'
p14
g5
sS'funam'
p15
S'string'
p16
sS'out'
p17
g8
sS'model.in1'
p18
g8
sS'nevin'
p19
g8
sS'clkin'
p20
g2
sS'graphics.exprs'
p21
NsS'model.nzcross'
p22
NsS'tt'
p23
g8
sS'this.rpar'
p24
g2
sS'this.xx'
p25
g2
sS'label'
p26
g2
sS'nx'
p27
g8
sS'nz'
p28
g8
sS'z0'
p29
g2
sS'model.evtin'
p30
g2
sS'this.ci'
p31
g8
sS'model.firing'
p32
g2
sS'nevout'
p33
g8
sS'this.x'
p34
g8
sS'this.ipar'
p35
g2
sS'this.z'
p36
g2
sS'clkout'
p37
g2
sS'auto'
p38
g2
sS'label[2-1]'
p39
g8
sS'in1'
p40
g8
sS'model.rpar'
p41
NsS'this.i'
p42
g8
sS'model.state'
p43
g2
sS'graphics'
p44
g5
sS'x0'
p45
g2
sS'model.ipar'
p46
NsS'typ'
p47
g16
sS'[model,graphics,ok]'
p48
g8
sS'ok'
p49
S'boolean'
p50
sS'model.blocktype'
p51
g16
sS'label[1-1]'
p52
NsS'this.dept'
p53
g50
sS'this.depu'
p54
g50
sS'gr_i'
p55
g2
sS'[ok,tt,cancel]'
p56
g8
sS'y'
p57
g2
sS'model'
p58
g8
sS'this.co'
p59
g8
sS'nout'
p60
g8
sS'dep_ut'
p61
g2
s.