c__builtin__
set
p0
((lp1
S'impli'
p2
aS'co'
p3
aS'i'
p4
aS'auto0'
p5
aS'ci'
p6
aS'o'
p7
aS'ng'
p8
aS'depu'
p9
aS'dept'
p10
aS'xx'
p11
aS'rpar'
p12
aS'lab'
p13
aS'ipar'
p14
aS'x'
p15
aS'z'
p16
aS'function_name'
p17
atp18
Rp19
.(dp0
S'ci'
p1
S'double'
p2
sS'co'
p3
g2
sS'arg1'
p4
S'object'
p5
sS'graphics.exprs'
p6
NsS'rpar'
p7
S'vector'
p8
sS'model.out'
p9
g2
sS'xx'
p10
g8
sS'funtyp'
p11
g2
sS'model.dep_ut'
p12
g8
sS'funam'
p13
S'string'
p14
sS'model.dstate'
p15
g8
sS'ng'
p16
g2
sS'out'
p17
g2
sS'model.in1'
p18
g2
sS'nevin'
p19
g2
sS'clkin'
p20
g8
sS'x.graphics'
p21
g5
sS'model.nzcross'
p22
g2
sS'tt'
p23
g2
sS'label'
p24
g8
sS'nx'
p25
g2
sS'nz'
p26
g2
sS'z0'
p27
g8
sS'model.evtin'
p28
g8
sS'model.firing'
p29
g8
sS'nevout'
p30
g2
sS'model.sim'
p31
g8
sS'model.evtout'
p32
g8
sS'[ok,tt,cancel]'
p33
g2
sS'clkout'
p34
g8
sS'auto'
p35
g8
sS'label[2-1]'
p36
g2
sS'in1'
p37
g2
sS'model.rpar'
p38
g8
sS'model.state'
p39
g8
sS'graphics'
p40
g5
sS'x0'
p41
g8
sS'model.ipar'
p42
g8
sS'typ'
p43
g14
sS'[model,graphics,ok]'
p44
g2
sS'ok'
p45
S'boolean'
p46
sS'model.blocktype'
p47
g14
sS'i'
p48
g2
sS'label[1-1]'
p49
NsS'x.model'
p50
g5
sS'o'
p51
g2
sS'depu'
p52
g46
sS'dept'
p53
g46
sS'gr_i'
p54
g8
sS'ipar'
p55
g8
sS'y'
p56
g8
sS'x'
p57
g2
sS'model'
p58
g5
sS'z'
p59
g8
sS'nout'
p60
g2
sS'dep_ut'
p61
g8
s.