c__builtin__
set
p0
((lp1
S'impli'
p2
aS'co'
p3
aS'i'
p4
aS'auto0'
p5
aS'ci'
p6
aS'o'
p7
aS'ng'
p8
aS'depu'
p9
aS'dept'
p10
aS'xx'
p11
aS'rpar'
p12
aS'ipar'
p13
aS'graphics'
p14
aS'x'
p15
aS'model'
p16
aS'z'
p17
aS'function_name'
p18
atp19
Rp20
.(dp0
S'ci'
p1
S'double'
p2
sS'co'
p3
g2
sS'graphics.exprs'
p4
NsS'rpar'
p5
S'vector'
p6
sS'model.out'
p7
g2
sS'xx'
p8
g6
sS'funtyp'
p9
g2
sS'model.dep_ut'
p10
S'vector_boolean'
p11
sS'funam'
p12
S'string'
p13
sS'model.dstate'
p14
g6
sS'ng'
p15
g2
sS'out'
p16
g2
sS'nevin'
p17
g2
sS'clkin'
p18
g6
sS'x.graphics'
p19
S'object'
p20
sS'model.nzcross'
p21
g2
sS'tt'
p22
g2
sS'label'
p23
S'list'
p24
sS'nx'
p25
g2
sS'nz'
p26
g2
sS'z0'
p27
g6
sS'model.evtin'
p28
g6
sS'model.firing'
p29
g6
sS'nevout'
p30
g2
sS'model.sim'
p31
g24
sS'model.evtout'
p32
g6
sS'clkout'
p33
g6
sS'auto'
p34
g6
sS'label[2-1]'
p35
g2
sS'in1'
p36
g2
sS'model.rpar'
p37
g6
sS'model.state'
p38
g6
sS'model.in'
p39
g2
sS'graphics'
p40
g20
sS'x0'
p41
g6
sS'model.ipar'
p42
g6
sS'typ'
p43
g13
sS'ok'
p44
S'boolean'
p45
sS'model.blocktype'
p46
g13
sS'i'
p47
g2
sS'label[1-1]'
p48
NsS'x.model'
p49
g20
sS'o'
p50
g2
sS'depu'
p51
g45
sS'dept'
p52
g45
sS'gr_i'
p53
g6
sS'ipar'
p54
g6
sS'y'
p55
g6
sS'x'
p56
g6
sS'model'
p57
g20
sS'z'
p58
g6
sS'nout'
p59
g2
sS'dep_ut'
p60
g11
s.