c__builtin__
set
p0
((lp1
S'impli'
p2
aS'co'
p3
aS'ci'
p4
aS'rpar'
p5
aS'auto0'
p6
aS'out'
p7
aS'function_name'
p8
aS'in1'
p9
aS'lab'
p10
aS'it'
p11
aS'nmode'
p12
aS'z'
p13
aS'CC4'
p14
aS'xx'
p15
aS'nzcr'
p16
aS'depu'
p17
aS'dept'
p18
aS'opar'
p19
aS'oz'
p20
aS'ipar'
p21
aS'x'
p22
aS'model'
p23
aS'ot'
p24
atp25
Rp26
.(dp0
S'model.odstate'
p1
NsS'ci'
p2
S'double'
p3
sS'co'
p4
g3
sS'arg1'
p5
S'object'
p6
sS'graphics.exprs'
p7
NsS'rpar'
p8
S'vector'
p9
sS'model.out'
p10
g3
sS'xx'
p11
g9
sS'model.intyp'
p12
g3
sS'funtyp'
p13
g3
sS'funam'
p14
S'string'
p15
sS'model.dstate'
p16
g9
sS'model.in2'
p17
g3
sS'model.in1'
p18
g3
sS'nevin'
p19
g3
sS'x.graphics'
p20
g6
sS'model.nzcross'
p21
NsS'tt'
p22
g3
sS'label'
p23
S'list'
p24
sS'nx'
p25
g3
sS'nz'
p26
g3
sS'label[2-1]'
p27
g3
sS'model.firing'
p28
NsS'nevout'
p29
g3
sS'model.sim'
p30
g24
sS'[ok,tt,cancel]'
p31
g3
sS'[this.model,graphics,ok]'
p32
g3
sS'model.out2'
p33
g3
sS'model.nmode'
p34
NsS'model.rpar'
p35
g9
sS'model.outtyp'
p36
g3
sS'model.state'
p37
g9
sS'graphics'
p38
g6
sS'model.ipar'
p39
g3
sS'typ'
p40
g9
sS'model.opar'
p41
NsS'ok'
p42
S'boolean'
p43
sS'label[1-1]'
p44
NsS'x.model'
p45
g6
sS'model.dep_ut'
p46
g9
sS'depu'
p47
g43
sS'dept'
p48
g43
sS'gr_i'
p49
g9
sS'ipar'
p50
g3
sS'y'
p51
g9
sS'x'
p52
g3
sS'model'
p53
g6
sS'z'
p54
g9
sS'dep_ut'
p55
g9
s.