c__builtin__
set
p0
((lp1
S'impli'
p2
aS'co'
p3
aS'ci'
p4
aS'rpar'
p5
aS'auto0'
p6
aS'out'
p7
aS'dept'
p8
aS'function_name'
p9
aS'in1'
p10
aS'lab'
p11
aS'it'
p12
aS'graphics'
p13
aS'nmode'
p14
aS'z'
p15
aS'xx'
p16
aS'nzcr'
p17
aS'depu'
p18
aS'exprs'
p19
aS'gr_i'
p20
aS'opar'
p21
aS'oz'
p22
aS'ipar'
p23
aS'x'
p24
aS'model'
p25
aS'ot'
p26
atp27
Rp28
.(dp0
S'model.odstate'
p1
NsS'ci'
p2
S'double'
p3
sS'co'
p4
g3
sS'arg1'
p5
S'object'
p6
sS'graphics.exprs'
p7
NsS'rpar'
p8
S'vector'
p9
sS'model.out'
p10
g3
sS'xx'
p11
g9
sS'model.intyp'
p12
g3
sS'funtyp'
p13
g3
sS'funam'
p14
S'string'
p15
sS'model.dstate'
p16
g9
sS'model.in2'
p17
g3
sS'model.in1'
p18
g3
sS'nevin'
p19
g3
sS'x.graphics'
p20
g6
sS'model.nzcross'
p21
NsS'tt'
p22
g3
sS'label'
p23
S'list'
p24
sS'nx'
p25
g3
sS'nz'
p26
g3
sS'model.firing'
p27
NsS'nevout'
p28
g3
sS'model.sim'
p29
g24
sS'label[2-1]'
p30
g3
sS'model.out2'
p31
g3
sS'model.nmode'
p32
NsS'model.rpar'
p33
g9
sS'model.outtyp'
p34
g3
sS'model.state'
p35
g9
sS'graphics'
p36
g6
sS'model.ipar'
p37
g3
sS'typ'
p38
g9
sS'model.opar'
p39
NsS'ok'
p40
S'boolean'
p41
sS'label[1-1]'
p42
NsS'x.model'
p43
g6
sS'model.dep_ut'
p44
g9
sS'depu'
p45
g41
sS'dept'
p46
g41
sS'gr_i'
p47
g9
sS'ipar'
p48
g3
sS'y'
p49
g9
sS'x'
p50
g3
sS'model'
p51
g6
sS'z'
p52
g9
sS'dep_ut'
p53
g9
s.