c__builtin__
set
p0
((lp1
S'impli'
p2
aS'co'
p3
aS'ci'
p4
aS'rpar'
p5
aS'auto0'
p6
aS'out'
p7
aS'function_name'
p8
aS'in1'
p9
aS'it'
p10
aS'graphics'
p11
aS'nmode'
p12
aS'z'
p13
aS'xx'
p14
aS'nzcr'
p15
aS'depu'
p16
aS'dept'
p17
aS'opar'
p18
aS'oz'
p19
aS'ipar'
p20
aS'x'
p21
aS'model'
p22
aS'ot'
p23
atp24
Rp25
.(dp0
S'model.odstate'
p1
NsS'ci'
p2
S'double'
p3
sS'co'
p4
g3
sS'graphics.exprs'
p5
NsS'rpar'
p6
S'vector'
p7
sS'model.out'
p8
g3
sS'xx'
p9
g7
sS'funtyp'
p10
g3
sS'funam'
p11
S'string'
p12
sS'model.dstate'
p13
g7
sS'model.in2'
p14
g3
sS'model.intyp'
p15
g3
sS'nevin'
p16
g3
sS'x.graphics'
p17
S'object'
p18
sS'model.nzcross'
p19
NsS'tt'
p20
g3
sS'label'
p21
S'list'
p22
sS'nx'
p23
g3
sS'nz'
p24
g3
sS'model.firing'
p25
NsS'nevout'
p26
g3
sS'model.sim'
p27
g22
sS'label[2-1]'
p28
g3
sS'model.out2'
p29
g3
sS'model.nmode'
p30
NsS'model.rpar'
p31
g7
sS'model.outtyp'
p32
g3
sS'model.state'
p33
g7
sS'model.in'
p34
g3
sS'graphics'
p35
g18
sS'model.ipar'
p36
g3
sS'typ'
p37
g7
sS'model.opar'
p38
NsS'ok'
p39
S'boolean'
p40
sS'label[1-1]'
p41
NsS'x.model'
p42
g18
sS'model.dep_ut'
p43
S'vector_boolean'
p44
sS'depu'
p45
g40
sS'dept'
p46
g40
sS'gr_i'
p47
g7
sS'ipar'
p48
g3
sS'y'
p49
g7
sS'x'
p50
g7
sS'model'
p51
g18
sS'z'
p52
g7
sS'dep_ut'
p53
g44
s.