c__builtin__
set
p0
((lp1
S'impli'
p2
aS'co'
p3
aS'ci'
p4
aS'rpar'
p5
aS'xx'
p6
aS'out'
p7
aS'function_name'
p8
aS'in1'
p9
aS'lab'
p10
aS'it'
p11
aS'nmode'
p12
aS'z'
p13
aS'CC4'
p14
aS'auto0'
p15
aS'nzcr'
p16
aS'depu'
p17
aS'dept'
p18
aS'opar'
p19
aS'oz'
p20
aS'ipar'
p21
aS'x'
p22
aS'ot'
p23
atp24
Rp25
.(dp0
S'model.odstate'
p1
NsS'model.dstate'
p2
NsS'model.sim'
p3
S'vector'
p4
sS'this.x.graphics'
p5
S'object'
p6
sS'arg1'
p7
g6
sS'graphics.exprs'
p8
NsS'model.out'
p9
S'double'
p10
sS'model.intyp'
p11
g10
sS'funtyp'
p12
g10
sS'model.dep_ut'
p13
g4
sS'this.x.model'
p14
g6
sS'funam'
p15
S'string'
p16
sS'model.in2'
p17
g10
sS'model.in1'
p18
g10
sS'nevin'
p19
g10
sS'model.nzcross'
p20
NsS'tt'
p21
g10
sS'this.rpar'
p22
g4
sS'this.xx'
p23
g4
sS'label'
p24
g4
sS'nx'
p25
g10
sS'nz'
p26
g10
sS'this.ci'
p27
g10
sS'model.firing'
p28
NsS'nevout'
p29
g10
sS'this.x'
p30
g10
sS'this.ipar'
p31
g10
sS'this.z'
p32
g4
sS'label[2-1]'
p33
g10
sS'model.out2'
p34
g10
sS'model.nmode'
p35
NsS'model.rpar'
p36
NsS'model.outtyp'
p37
g10
sS'model.state'
p38
NsS'graphics'
p39
g6
sS'model.ipar'
p40
NsS'typ'
p41
g4
sS'model.opar'
p42
NsS'[model,graphics,ok]'
p43
g10
sS'ok'
p44
S'boolean'
p45
sS'label[1-1]'
p46
NsS'this.dept'
p47
g45
sS'this.depu'
p48
g45
sS'gr_i'
p49
g4
sS'[ok,tt,cancel]'
p50
g10
sS'y'
p51
g4
sS'model'
p52
g6
sS'this.co'
p53
g10
sS'dep_ut'
p54
g4
s.