c__builtin__
set
p0
((lp1
S'impli'
p2
aS'co'
p3
aS'ci'
p4
aS'rpar'
p5
aS'auto0'
p6
aS'out'
p7
aS'function_name'
p8
aS'in1'
p9
aS'lab'
p10
aS'it'
p11
aS'graphics'
p12
aS'nmode'
p13
aS'z'
p14
aS'xx'
p15
aS'nzcr'
p16
aS'depu'
p17
aS'dept'
p18
aS'opar'
p19
aS'oz'
p20
aS'ipar'
p21
aS'x'
p22
aS'model'
p23
aS'ot'
p24
atp25
Rp26
.(dp0
S'model.odstate'
p1
NsS'ci'
p2
S'double'
p3
sS'co'
p4
g3
sS'arg1'
p5
S'object'
p6
sS'graphics.exprs'
p7
NsS'rpar'
p8
S'vector'
p9
sS'model.out'
p10
g3
sS'xx'
p11
g9
sS'funtyp'
p12
g3
sS'funam'
p13
S'string'
p14
sS'model.dstate'
p15
g9
sS'model.in2'
p16
g3
sS'model.intyp'
p17
g3
sS'nevin'
p18
g3
sS'x.graphics'
p19
g6
sS'model.nzcross'
p20
NsS'tt'
p21
g3
sS'label'
p22
S'list'
p23
sS'nx'
p24
g3
sS'nz'
p25
g3
sS'model.firing'
p26
NsS'nevout'
p27
g3
sS'model.sim'
p28
g23
sS'label[2-1]'
p29
g3
sS'model.out2'
p30
g3
sS'model.nmode'
p31
NsS'model.rpar'
p32
g9
sS'model.outtyp'
p33
g3
sS'model.state'
p34
g9
sS'model.in'
p35
g3
sS'graphics'
p36
g6
sS'model.ipar'
p37
g3
sS'typ'
p38
g9
sS'model.opar'
p39
NsS'ok'
p40
S'boolean'
p41
sS'label[1-1]'
p42
NsS'x.model'
p43
g6
sS'model.dep_ut'
p44
S'vector_boolean'
p45
sS'depu'
p46
g41
sS'dept'
p47
g41
sS'gr_i'
p48
g9
sS'ipar'
p49
g3
sS'y'
p50
g9
sS'x'
p51
NsS'model'
p52
g6
sS'z'
p53
g9
sS'dep_ut'
p54
g45
s.