c__builtin__
set
p0
((lp1
S'impli'
p2
aS'co'
p3
aS'i'
p4
aS'auto0'
p5
aS'ci'
p6
aS'o'
p7
aS'ng'
p8
aS'depu'
p9
aS'dept'
p10
aS'xx'
p11
aS'rpar'
p12
aS'lab'
p13
aS'ipar'
p14
aS'x'
p15
aS'z'
p16
aS'function_name'
p17
atp18
Rp19
.