c__builtin__
set
p0
((lp1
S'impli'
p2
aS'co'
p3
aS'dept'
p4
aS'i'
p5
aS'auto0'
p6
aS'ci'
p7
aS'o'
p8
aS'ng'
p9
aS'depu'
p10
aS'exprs'
p11
aS'xx'
p12
aS'gr_i'
p13
aS'rpar'
p14
aS'lab'
p15
aS'ipar'
p16
aS'graphics'
p17
aS'x'
p18
aS'model'
p19
aS'z'
p20
aS'function_name'
p21
atp22
Rp23
.(dp0
S'ci'
p1
S'double'
p2
sS'co'
p3
g2
sS'arg1'
p4
S'object'
p5
sS'graphics.exprs'
p6
NsS'rpar'
p7
S'vector'
p8
sS'model.out'
p9
g2
sS'xx'
p10
g8
sS'funtyp'
p11
g2
sS'model.dep_ut'
p12
g8
sS'funam'
p13
S'string'
p14
sS'model.dstate'
p15
g8
sS'ng'
p16
g2
sS'out'
p17
g2
sS'nevin'
p18
g2
sS'clkin'
p19
g8
sS'x.graphics'
p20
g5
sS'model.nzcross'
p21
g2
sS'tt'
p22
g2
sS'label'
p23
S'list'
p24
sS'nx'
p25
g2
sS'nz'
p26
g2
sS'z0'
p27
g8
sS'model.evtin'
p28
g8
sS'model.firing'
p29
g8
sS'nevout'
p30
g2
sS'model.sim'
p31
g24
sS'model.evtout'
p32
g8
sS'clkout'
p33
g8
sS'auto'
p34
g8
sS'label[2-1]'
p35
g2
sS'in1'
p36
g2
sS'model.rpar'
p37
g8
sS'model.state'
p38
g8
sS'model.in'
p39
g2
sS'graphics'
p40
g5
sS'x0'
p41
g8
sS'model.ipar'
p42
g8
sS'typ'
p43
g14
sS'ok'
p44
S'boolean'
p45
sS'model.blocktype'
p46
g14
sS'i'
p47
g2
sS'label[1-1]'
p48
NsS'x.model'
p49
g5
sS'o'
p50
g2
sS'depu'
p51
g45
sS'dept'
p52
g45
sS'gr_i'
p53
g8
sS'ipar'
p54
g8
sS'y'
p55
g8
sS'x'
p56
NsS'model'
p57
g5
sS'z'
p58
g8
sS'nout'
p59
g2
sS'dep_ut'
p60
g8
s.