c__builtin__
set
p0
((lp1
S'impli'
p2
aS'co'
p3
aS'i'
p4
aS'auto0'
p5
aS'ci'
p6
aS'o'
p7
aS'ng'
p8
aS'depu'
p9
aS'dept'
p10
aS'xx'
p11
aS'rpar'
p12
aS'lab'
p13
aS'ipar'
p14
aS'x'
p15
aS'model'
p16
aS'z'
p17
aS'function_name'
p18
atp19
Rp20
.(dp0
S'ci'
p1
S'double'
p2
sS'co'
p3
g2
sS'arg1'
p4
S'object'
p5
sS'graphics.exprs'
p6
NsS'rpar'
p7
S'vector'
p8
sS'model.out'
p9
g2
sS'xx'
p10
g8
sS'funtyp'
p11
g2
sS'model.dep_ut'
p12
g8
sS'funam'
p13
S'string'
p14
sS'model.dstate'
p15
g8
sS'ng'
p16
g2
sS'out'
p17
g2
sS'model.in1'
p18
g2
sS'nevin'
p19
g2
sS'clkin'
p20
g8
sS'x.graphics'
p21
g5
sS'model.nzcross'
p22
g2
sS'tt'
p23
g2
sS'label'
p24
S'list'
p25
sS'nx'
p26
g2
sS'nz'
p27
g2
sS'z0'
p28
g8
sS'model.evtin'
p29
g8
sS'label[2-1]'
p30
g2
sS'model.firing'
p31
g8
sS'nevout'
p32
g2
sS'model.sim'
p33
g25
sS'model.evtout'
p34
g8
sS'[ok,tt,cancel]'
p35
g2
sS'clkout'
p36
g8
sS'auto'
p37
g8
sS'[this.model,graphics,ok]'
p38
g2
sS'in1'
p39
g2
sS'model.rpar'
p40
g8
sS'model.state'
p41
g8
sS'graphics'
p42
g5
sS'x0'
p43
g8
sS'model.ipar'
p44
g8
sS'typ'
p45
g14
sS'ok'
p46
S'boolean'
p47
sS'model.blocktype'
p48
g14
sS'i'
p49
g2
sS'label[1-1]'
p50
NsS'x.model'
p51
g5
sS'o'
p52
g2
sS'depu'
p53
g47
sS'dept'
p54
g47
sS'gr_i'
p55
g8
sS'ipar'
p56
g8
sS'y'
p57
g8
sS'x'
p58
g2
sS'model'
p59
g5
sS'z'
p60
g8
sS'nout'
p61
g2
sS'dep_ut'
p62
g8
s.