c__builtin__
set
p0
((lp1
S'x'
p2
aS'x0'
p3
atp4
Rp5
.(dp0
S'this.x'
p1
S'double'
p2
sS'[model,graphics,ok]'
p3
g2
sS'model.out'
p4
g2
sS'this.x0'
p5
S'matrix'
p6
sS'model.sim'
p7
S'vector'
p8
sS'this.x.graphics'
p9
S'object'
p10
sS'arg1'
p11
g10
sS'graphics.exprs'
p12
NsS'model.in1'
p13
g2
sS'model.dep_ut'
p14
g8
sS'N'
p15
g2
sS'this.x.model'
p16
NsS'exprs'
p17
S'string'
p18
sS'gr_i'
p19
g8
sS'model.state'
p20
NsS'graphics'
p21
g10
sS'y'
p22
g8
sS'model'
p23
g2
sS'model.ipar'
p24
g2
sS'typ'
p25
g8
sS'model.blocktype'
p26
g18
s.