c__builtin__
set
p0
((lp1
S'exprs'
p2
aS'gr_i'
p3
aS'graphics'
p4
aS'x'
p5
aS'model'
p6
aS'x0'
p7
atp8
Rp9
.(dp0
S'model.sim'
p1
S'list'
p2
sS'model.out'
p3
S'double'
p4
sS'model.blocktype'
p5
S'string'
p6
sS'x.graphics'
p7
S'object'
p8
sS'arg1'
p9
g8
sS'graphics.exprs'
p10
NsS'model.dep_ut'
p11
S'vector'
p12
sS'N'
p13
g4
sS'exprs'
p14
g6
sS'x.model'
p15
NsS'gr_i'
p16
g12
sS'model.state'
p17
S'matrix'
p18
sS'model.in'
p19
g4
sS'graphics'
p20
g8
sS'y'
p21
g12
sS'x'
p22
NsS'model'
p23
g8
sS'model.ipar'
p24
g4
sS'typ'
p25
g12
sS'x0'
p26
g18
s.