c__builtin__
set
p0
((lp1
S'graphics'
p2
aS'x0'
p3
aS'xd0'
p4
aS'x'
p5
aS'model'
p6
aS'id'
p7
atp8
Rp9
.(dp0
S'graphics.exprs'
p1
NsS'x.model'
p2
NsS'xd0'
p3
S'vector'
p4
sS'model.out'
p5
S'matrix'
p6
sS'id'
p7
g4
sS'x.graphics'
p8
S'object'
p9
sS'Nid'
p10
S'double'
p11
sS'model.sim'
p12
S'list'
p13
sS'N'
p14
g11
sS'Nxd'
p15
g11
sS'model.state'
p16
g6
sS'model.in'
p17
g11
sS'graphics'
p18
g9
sS'x0'
p19
g4
sS'model.ipar'
p20
g4
sS'typ'
p21
g4
sS'model.blocktype'
p22
S'string'
p23
sS'model.dep_ut'
p24
S'vector_boolean'
p25
sS'exprs'
p26
g13
sS'gr_i'
p27
g4
sS'id[i-1]'
p28
g11
sS'ask_again'
p29
S'boolean'
p30
sS'y'
p31
g4
sS'x'
p32
g4
sS'model'
p33
g9
s.