c__builtin__
set
p0
((lp1
S'x'
p2
aS'x0'
p3
aS'id'
p4
aS'xd0'
p5
atp6
Rp7
.(dp0
S'arg1'
p1
S'object'
p2
sS'graphics'
p3
g2
sS'this.x.model'
p4
NsS'model.out'
p5
S'matrix'
p6
sS'this.xd0'
p7
S'vector'
p8
sS'model.in1'
p9
S'double'
p10
sS'this.id'
p11
g8
sS'typ'
p12
g8
sS'Nid'
p13
g10
sS'this.x'
p14
g10
sS'model.sim'
p15
g8
sS'N'
p16
g10
sS'Nxd'
p17
g10
sS'model.state'
p18
g6
sS'graphics.exprs'
p19
NsS'model.ipar'
p20
NsS'this.x.graphics'
p21
g2
sS'model.blocktype'
p22
S'string'
p23
sS'this.id[i-1]'
p24
g10
sS'this.x0'
p25
g8
sS'model.dep_ut'
p26
g8
sS'exprs'
p27
g8
sS'gr_i'
p28
g8
sS'ask_again'
p29
S'boolean'
p30
sS'y'
p31
g8
sS'model'
p32
g10
s.