c__builtin__
set
p0
((lp1
S'xd0'
p2
aS'id'
p3
aS'exprs'
p4
aS'gr_i'
p5
aS'graphics'
p6
aS'x'
p7
aS'model'
p8
aS'x0'
p9
atp10
Rp11
.(dp0
S'arg1'
p1
S'object'
p2
sS'graphics'
p3
g2
sS'x.model'
p4
NsS'xd0'
p5
S'vector'
p6
sS'model.out'
p7
S'matrix'
p8
sS'id'
p9
g6
sS'x.graphics'
p10
g2
sS'Nid'
p11
S'double'
p12
sS'model.sim'
p13
S'list'
p14
sS'N'
p15
g12
sS'Nxd'
p16
g12
sS'model.state'
p17
g8
sS'model.in'
p18
g12
sS'graphics.exprs'
p19
NsS'x0'
p20
g6
sS'model.ipar'
p21
g6
sS'typ'
p22
g6
sS'model.blocktype'
p23
S'string'
p24
sS'model.dep_ut'
p25
S'vector_boolean'
p26
sS'exprs'
p27
g14
sS'gr_i'
p28
g6
sS'id[i-1]'
p29
g12
sS'ask_again'
p30
S'boolean'
p31
sS'y'
p32
g6
sS'x'
p33
NsS'model'
p34
g2
s.