c__builtin__
set
p0
((lp1
S'x'
p2
aS'model'
p3
aS'x0'
p4
atp5
Rp6
.(dp0
S'model.sim'
p1
S'list'
p2
sS'model.out'
p3
S'double'
p4
sS'model.blocktype'
p5
S'string'
p6
sS'x.graphics'
p7
S'object'
p8
sS'arg1'
p9
g8
sS'[this.model,graphics,ok]'
p10
g2
sS'graphics.exprs'
p11
NsS'model.in1'
p12
g4
sS'model.dep_ut'
p13
S'vector'
p14
sS'N'
p15
g4
sS'exprs'
p16
g6
sS'x.model'
p17
NsS'gr_i'
p18
g14
sS'model.state'
p19
S'matrix'
p20
sS'graphics'
p21
g8
sS'y'
p22
g14
sS'x'
p23
g4
sS'model'
p24
g8
sS'model.ipar'
p25
g4
sS'typ'
p26
g14
sS'x0'
p27
g20
s.