c__builtin__
set
p0
((lp1
S'x'
p2
aS'model'
p3
aS'x0'
p4
aS'graphics'
p5
atp6
Rp7
.(dp0
S'model.sim'
p1
S'list'
p2
sS'model.out'
p3
S'double'
p4
sS'model.blocktype'
p5
S'string'
p6
sS'x.graphics'
p7
S'object'
p8
sS'graphics.exprs'
p9
NsS'model.dep_ut'
p10
S'vector_boolean'
p11
sS'N'
p12
g4
sS'exprs'
p13
g6
sS'x.model'
p14
NsS'gr_i'
p15
S'vector'
p16
sS'model.state'
p17
S'matrix'
p18
sS'model.in'
p19
g4
sS'graphics'
p20
g8
sS'y'
p21
g16
sS'x'
p22
g16
sS'x0'
p23
g18
sS'model.ipar'
p24
g4
sS'typ'
p25
g16
sS'model'
p26
g8
s.