c__builtin__
set
p0
((lp1
S'x'
p2
aS'model'
p3
aS'x0'
p4
aS'graphics'
p5
atp6
Rp7
.(dp0
S'model.sim'
p1
S'list'
p2
sS'model.out'
p3
S'double'
p4
sS'model.blocktype'
p5
S'string'
p6
sS'x.graphics'
p7
S'object'
p8
sS'arg1'
p9
g8
sS'graphics.exprs'
p10
NsS'model.dep_ut'
p11
S'vector_boolean'
p12
sS'N'
p13
g4
sS'exprs'
p14
g6
sS'x.model'
p15
NsS'gr_i'
p16
S'vector'
p17
sS'model.state'
p18
S'matrix'
p19
sS'model.in'
p20
g4
sS'graphics'
p21
g8
sS'y'
p22
g17
sS'x'
p23
NsS'model'
p24
g8
sS'model.ipar'
p25
g4
sS'typ'
p26
g17
sS'x0'
p27
g19
s.