c__builtin__
set
p0
((lp1
S'x'
p2
aS'x0'
p3
aS'id'
p4
aS'xd0'
p5
atp6
Rp7
.c__builtin__
set
p0
((lp1
tp2
Rp3
.c__builtin__
set
p0
((lp1
tp2
Rp3
.c__builtin__
set
p0
((lp1
tp2
Rp3
.c__builtin__
set
p0
((lp1
tp2
Rp3
.c__builtin__
set
p0
((lp1
tp2
Rp3
.