c__builtin__
set
p0
((lp1
S'x'
p2
aS'model'
p3
aS'x0'
p4
atp5
Rp6
.(dp0
S'[model,graphics,ok]'
p1
S'double'
p2
sS'model.out'
p3
g2
sS'model.blocktype'
p4
S'string'
p5
sS'x.graphics'
p6
S'object'
p7
sS'arg1'
p8
g7
sS'graphics.exprs'
p9
NsS'model.in1'
p10
g2
sS'model.dep_ut'
p11
S'vector'
p12
sS'N'
p13
g2
sS'exprs'
p14
g5
sS'x.model'
p15
NsS'gr_i'
p16
g12
sS'model.state'
p17
S'matrix'
p18
sS'graphics'
p19
g7
sS'y'
p20
g12
sS'x'
p21
g2
sS'model'
p22
g7
sS'model.ipar'
p23
g2
sS'typ'
p24
g12
sS'x0'
p25
g18
sS'model.sim'
p26
S'list'
p27
s.