c__builtin__
set
p0
((lp1
S'x'
p2
aS'model'
p3
aS'x0'
p4
aS'graphics'
p5
atp6
Rp7
.(dp0
S'model.sim'
p1
S'list'
p2
sS'model.out'
p3
S'double'
p4
sS'model.blocktype'
p5
S'string'
p6
sS'x.graphics'
p7
S'object'
p8
sS'arg1'
p9
g8
sS'graphics.exprs'
p10
NsS'model.in1'
p11
g4
sS'model.dep_ut'
p12
S'vector'
p13
sS'N'
p14
g4
sS'exprs'
p15
g6
sS'x.model'
p16
NsS'gr_i'
p17
g13
sS'model.state'
p18
S'matrix'
p19
sS'graphics'
p20
g8
sS'y'
p21
g13
sS'x'
p22
g4
sS'model'
p23
g8
sS'model.ipar'
p24
g4
sS'typ'
p25
g13
sS'x0'
p26
g19
s.