c__builtin__
set
p0
((lp1
S'x'
p2
aS'x0'
p3
aS'id'
p4
aS'xd0'
p5
atp6
Rp7
.(dp0
S'arg1'
p1
S'object'
p2
sS'graphics'
p3
g2
sS'x.model'
p4
NsS'xd0'
p5
S'vector'
p6
sS'model.out'
p7
S'matrix'
p8
sS'id'
p9
g6
sS'model.in1'
p10
S'double'
p11
sS'x.graphics'
p12
g2
sS'Nid'
p13
g11
sS'model.sim'
p14
g6
sS'N'
p15
g11
sS'Nxd'
p16
g11
sS'model.state'
p17
g8
sS'graphics.exprs'
p18
NsS'x0'
p19
g6
sS'model.ipar'
p20
g6
sS'typ'
p21
g6
sS'model.blocktype'
p22
S'string'
p23
sS'model.dep_ut'
p24
g6
sS'exprs'
p25
g6
sS'gr_i'
p26
g6
sS'id[i-1]'
p27
g11
sS'ask_again'
p28
S'boolean'
p29
sS'y'
p30
g6
sS'x'
p31
g11
sS'model'
p32
g2
s.