c__builtin__
set
p0
((lp1
S'xd0'
p2
aS'id'
p3
aS'exprs'
p4
aS'gr_i'
p5
aS'graphics'
p6
aS'x'
p7
aS'model'
p8
aS'x0'
p9
atp10
Rp11
.(dp0
S'arg1'
p1
S'object'
p2
sS'graphics'
p3
g2
sS'x.model'
p4
NsS'xd0'
p5
S'vector'
p6
sS'model.out'
p7
S'matrix'
p8
sS'id'
p9
g6
sS'model.in1'
p10
S'double'
p11
sS'x.graphics'
p12
g2
sS'Nid'
p13
g11
sS'model.sim'
p14
S'list'
p15
sS'N'
p16
g11
sS'Nxd'
p17
g11
sS'model.state'
p18
g8
sS'graphics.exprs'
p19
NsS'x0'
p20
g6
sS'model.ipar'
p21
g6
sS'typ'
p22
g6
sS'model.blocktype'
p23
S'string'
p24
sS'model.dep_ut'
p25
g6
sS'exprs'
p26
g15
sS'gr_i'
p27
g6
sS'id[i-1]'
p28
g11
sS'ask_again'
p29
S'boolean'
p30
sS'y'
p31
g6
sS'x'
p32
g11
sS'model'
p33
g2
s.