c__builtin__
set
p0
((lp1
S'minp'
p2
aS'x'
p3
aS'model'
p4
aS'zeroc'
p5
aS'maxp'
p6
atp7
Rp8
.(dp0
S'arg1'
p1
S'object'
p2
sS'graphics'
p3
g2
sS'rpar'
p4
S'matrix'
p5
sS'model.out'
p6
S'double'
p7
sS'x.model'
p8
NsS'minp'
p9
g7
sS'model.in1'
p10
g7
sS'x.graphics'
p11
g2
sS'typ'
p12
S'vector'
p13
sS'maxp'
p14
g7
sS'model.sim'
p15
g13
sS'model.nmode'
p16
g7
sS'model.rpar'
p17
g5
sS'graphics.exprs'
p18
NsS'model.nzcross'
p19
g7
sS'model.blocktype'
p20
S'string'
p21
sS'model.dep_ut'
p22
g13
sS'exprs'
p23
g5
sS'gr_i'
p24
g13
sS'y'
p25
g13
sS'x'
p26
g7
sS'model'
p27
g2
s.