c__builtin__
set
p0
((lp1
S'zeroc'
p2
aS'maxp'
p3
aS'graphics'
p4
aS'minp'
p5
aS'x'
p6
aS'model'
p7
atp8
Rp9
.(dp0
S'model.sim'
p1
S'list'
p2
sS'model.out'
p3
S'double'
p4
sS'model.blocktype'
p5
S'string'
p6
sS'minp'
p7
g4
sS'x.graphics'
p8
S'object'
p9
sS'model.nzcross'
p10
g4
sS'maxp'
p11
g4
sS'graphics.exprs'
p12
NsS'model.nmode'
p13
g4
sS'model.rpar'
p14
S'matrix'
p15
sS'rpar'
p16
g15
sS'exprs'
p17
g15
sS'x.model'
p18
NsS'gr_i'
p19
S'vector'
p20
sS'model.dep_ut'
p21
S'vector_boolean'
p22
sS'model.in'
p23
g4
sS'graphics'
p24
g9
sS'y'
p25
g20
sS'x'
p26
g20
sS'model'
p27
g9
sS'typ'
p28
g20
s.