c__builtin__
set
p0
((lp1
S'minp'
p2
aS'x'
p3
aS'maxp'
p4
aS'zeroc'
p5
atp6
Rp7
.(dp0
S'arg1'
p1
S'object'
p2
sS'graphics'
p3
g2
sS'rpar'
p4
S'matrix'
p5
sS'this.x.model'
p6
NsS'model.out'
p7
S'double'
p8
sS'model.in1'
p9
g8
sS'this.minp'
p10
g8
sS'model.nzcross'
p11
g8
sS'this.x'
p12
g8
sS'model.sim'
p13
S'vector'
p14
sS'model.nmode'
p15
g8
sS'model.rpar'
p16
g5
sS'graphics.exprs'
p17
NsS'this.x.graphics'
p18
g2
sS'model.blocktype'
p19
S'string'
p20
sS'typ'
p21
g14
sS'model.dep_ut'
p22
g14
sS'exprs'
p23
g5
sS'gr_i'
p24
g14
sS'this.maxp'
p25
g8
sS'y'
p26
g14
sS'model'
p27
g2
s.