c__builtin__
set
p0
((lp1
S'debug_scicos'
p2
aS'x'
p3
aS'model'
p4
aS'TMPDIR'
p5
aS'dialog'
p6
atp7
Rp8
.(dp0
S'exprs[2-1]'
p1
NsS'model.sim'
p2
S'vector'
p3
sS'ok'
p4
S'boolean'
p5
sS'model.blocktype'
p6
S'string'
p7
sS'x.graphics'
p8
S'object'
p9
sS'textmp'
p10
S'double'
p11
sS'arg1'
p12
g9
sS'tt'
p13
g3
sS'[txt]'
p14
g11
sS'exprs'
p15
g3
sS'gr_i'
p16
g3
sS'graphics.exprs'
p17
NsS'graphics'
p18
g9
sS'y'
p19
g3
sS'x'
p20
g11
sS'model'
p21
g9
sS'typ'
p22
g3
sS'warnMode'
p23
g11
s.