c__builtin__
set
p0
((lp1
S'debug_scicos'
p2
aS'x'
p3
aS'model'
p4
aS'TMPDIR'
p5
atp6
Rp7
.(dp0
S'exprs[2-1]'
p1
NsS'model.sim'
p2
S'list'
p3
sS'ok'
p4
S'boolean'
p5
sS'model.blocktype'
p6
S'string'
p7
sS'x.graphics'
p8
S'object'
p9
sS'textmp'
p10
S'double'
p11
sS'arg1'
p12
g9
sS'tt'
p13
S'vector'
p14
sS'graphics.exprs'
p15
NsS'exprs'
p16
g3
sS'gr_i'
p17
g14
sS'graphics'
p18
g9
sS'y'
p19
g14
sS'x'
p20
g11
sS'model'
p21
g9
sS'typ'
p22
g14
sS'warnMode'
p23
g11
s.