c__builtin__
set
p0
((lp1
S'debug_scicos'
p2
aS'x'
p3
aS'TMPDIR'
p4
aS'dialog'
p5
atp6
Rp7
.(dp0
S'this.x'
p1
S'double'
p2
sS'model.sim'
p3
S'vector'
p4
sS'ok'
p5
S'boolean'
p6
sS'model.blocktype'
p7
S'string'
p8
sS'textmp'
p9
g2
sS'arg1'
p10
S'object'
p11
sS'tt'
p12
g4
sS'[txt]'
p13
g2
sS'exprs'
p14
g4
sS'gr_i'
p15
g4
sS'graphics.exprs'
p16
NsS'exprs[2-1]'
p17
NsS'graphics'
p18
g11
sS'y'
p19
g4
sS'model'
p20
g2
sS'typ'
p21
g4
sS'warnMode'
p22
g2
sS'this.x.graphics'
p23
g11
s.