c__builtin__
set
p0
((lp1
S'debug_scicos'
p2
aS'x'
p3
aS'model'
p4
aS'TMPDIR'
p5
aS'graphics'
p6
atp7
Rp8
.(dp0
S'model.sim'
p1
S'list'
p2
sS'ok'
p3
S'boolean'
p4
sS'model.blocktype'
p5
S'string'
p6
sS'x.graphics'
p7
S'object'
p8
sS'textmp'
p9
S'double'
p10
sS'exprs[2-1]'
p11
NsS'tt'
p12
S'vector_string'
p13
sS'graphics.exprs'
p14
NsS'exprs'
p15
g2
sS'gr_i'
p16
S'vector'
p17
sS'graphics'
p18
g8
sS'y'
p19
g17
sS'x'
p20
g17
sS'model'
p21
g8
sS'typ'
p22
g17
sS'warnMode'
p23
g10
s.