c__builtin__
set
p0
((lp1
S'xd0'
p2
aS'exprs'
p3
aS'gr_i'
p4
aS'graphics'
p5
aS'x'
p6
aS'model'
p7
aS'x0'
p8
atp9
Rp10
.(dp0
S'model.sim'
p1
S'list'
p2
sS'model.out'
p3
S'double'
p4
sS'model.blocktype'
p5
S'string'
p6
sS'x.model.firing'
p7
S'vector'
p8
sS'x.graphics'
p9
S'object'
p10
sS'arg1'
p11
g10
sS'graphics.exprs'
p12
NsS'model.dep_ut'
p13
S'vector_boolean'
p14
sS'exprs'
p15
S'matrix'
p16
sS'x.model'
p17
NsS'gr_i'
p18
g8
sS'model.state'
p19
g16
sS'model.in'
p20
g4
sS'graphics'
p21
g10
sS'y'
p22
g8
sS'x'
p23
NsS'model'
p24
g10
sS'typ'
p25
g8
sS'x0'
p26
g16
s.