c__builtin__
set
p0
((lp1
S'x'
p2
aS'x0'
p3
aS'xd0'
p4
atp5
Rp6
.(dp0
S'model.sim'
p1
S'vector'
p2
sS'model.in1'
p3
S'double'
p4
sS'model.blocktype'
p5
S'string'
p6
sS'x.model.firing'
p7
g2
sS'x.graphics'
p8
S'object'
p9
sS'arg1'
p10
g9
sS'graphics.exprs'
p11
NsS'model.dep_ut'
p12
g2
sS'model.out'
p13
g4
sS'exprs'
p14
S'matrix'
p15
sS'x.model'
p16
NsS'gr_i'
p17
g2
sS'model.state'
p18
g15
sS'graphics'
p19
g9
sS'y'
p20
g2
sS'x'
p21
g4
sS'model'
p22
g9
sS'typ'
p23
g2
sS'x0'
p24
g15
s.