c__builtin__
set
p0
((lp1
S'x'
p2
aS'x0'
p3
aS'xd0'
p4
atp5
Rp6
.(dp0
S'this.x'
p1
S'double'
p2
sS'model.sim'
p3
S'vector'
p4
sS'model.in1'
p5
g2
sS'this.x.model.firing'
p6
g4
sS'this.x.graphics'
p7
S'object'
p8
sS'arg1'
p9
g8
sS'graphics.exprs'
p10
NsS'model.blocktype'
p11
S'string'
p12
sS'model.dep_ut'
p13
g4
sS'model.out'
p14
g2
sS'this.x.model'
p15
NsS'exprs'
p16
S'matrix'
p17
sS'gr_i'
p18
g4
sS'model.state'
p19
NsS'graphics'
p20
g8
sS'y'
p21
g4
sS'model'
p22
g2
sS'typ'
p23
g4
sS'this.x0'
p24
g17
s.