c__builtin__
set
p0
((lp1
S'x'
p2
aS'model'
p3
aS'xd0'
p4
aS'x0'
p5
aS'graphics'
p6
atp7
Rp8
.(dp0
S'model.sim'
p1
S'list'
p2
sS'model.out'
p3
S'double'
p4
sS'model.blocktype'
p5
S'string'
p6
sS'x.model.firing'
p7
S'vector'
p8
sS'x.graphics'
p9
S'object'
p10
sS'graphics'
p11
g10
sS'model.dep_ut'
p12
S'vector_boolean'
p13
sS'exprs'
p14
S'matrix'
p15
sS'x.model'
p16
NsS'gr_i'
p17
g8
sS'model.state'
p18
g15
sS'model.in'
p19
g4
sS'graphics.exprs'
p20
NsS'y'
p21
g8
sS'x'
p22
g8
sS'x0'
p23
g15
sS'typ'
p24
g8
sS'model'
p25
g10
s.