c__builtin__
set
p0
((lp1
S'needcompile'
p2
aS'x'
p3
aS'ok'
p4
atp5
Rp6
.(dp0
S'bitems'
p1
S'string'
p2
sS'this.x.model.rpar'
p3
NsS'arg1'
p4
S'object'
p5
sS'scicos_context'
p6
NsS'x.model'
p7
g5
sS'arg1.model.rpar.props'
p8
g5
sS'tt'
p9
g2
sS'this.x.graphics.exprs[1-1]'
p10
S'double'
p11
sS'btitre'
p12
g11
sS'[PREVAR_scicos_context,ierr]'
p13
g11
sS'this.x'
p14
g5
sS'sblock'
p15
NsS'graphics'
p16
g5
sS'typ'
p17
S'vector'
p18
sS'arg1.model'
p19
g5
sS'ss'
p20
g11
sS'exprs0'
p21
g11
sS'exprs'
p22
g11
sS'[sblock,%w,needcompile2,this.ok]'
p23
g11
sS'PREVAR_scicos_context'
p24
NsS'context'
p25
g18
sS'y'
p26
g11
sS'x'
p27
g5
sS'arg1.model.rpar'
p28
g5
s.