c__builtin__
set
p0
((lp1
S'needcompile'
p2
aS'x'
p3
aS'ok'
p4
atp5
Rp6
.(dp0
S'bitems'
p1
S'string'
p2
sS'arg1'
p3
S'object'
p4
sS'scicos_context'
p5
NsS'x.model'
p6
g4
sS'x.model.rpar'
p7
NsS'arg1.model.rpar.props'
p8
g4
sS'tt'
p9
g2
sS'btitre'
p10
S'double'
p11
sS'[PREVAR_scicos_context,ierr]'
p12
g11
sS'sblock'
p13
NsS'graphics'
p14
g4
sS'typ'
p15
S'list'
p16
sS'arg1.model'
p17
g4
sS'x.graphics.exprs[1-1]'
p18
g11
sS'ss'
p19
g11
sS'exprs0'
p20
g11
sS'exprs'
p21
g11
sS'[sblock,%w,needcompile2,this.ok]'
p22
g11
sS'PREVAR_scicos_context'
p23
NsS'context'
p24
S'vector'
p25
sS'y'
p26
g11
sS'x'
p27
g4
sS'arg1.model.rpar'
p28
g4
s.