c__builtin__
set
p0
((lp1
S'needcompile'
p2
aS'x'
p3
aS'model'
p4
aS'ok'
p5
aS'graphics'
p6
atp7
Rp8
.(dp0
S'bitems'
p1
S'string'
p2
sS'x.graphics.exprs[1-1]'
p3
S'double'
p4
sS'model.rpar.props'
p5
S'object'
p6
sS'x.model.rpar'
p7
NsS'ss'
p8
g4
sS'exprs0'
p9
g4
sS'btitre'
p10
g4
sS'sblock'
p11
NsS'model.rpar'
p12
g6
sS'exprs'
p13
g4
sS'x.model'
p14
g6
sS'PREVAR_scicos_context'
p15
NsS'scicos_context'
p16
NsS'context'
p17
S'vector'
p18
sS'graphics'
p19
g6
sS'y'
p20
g4
sS'x'
p21
g6
sS'model'
p22
g6
sS'typ'
p23
S'list'
p24
sS'tt'
p25
g2
s.