c__builtin__
set
p0
((lp1
S'needcompile'
p2
aS'x'
p3
aS'ok'
p4
atp5
Rp6
.(dp0
S'bitems'
p1
S'string'
p2
sS'arg1.model'
p3
S'object'
p4
sS'x.graphics.exprs[1-1]'
p5
S'double'
p6
sS'x.model.rpar'
p7
NsS'ss'
p8
g6
sS'arg1'
p9
g4
sS'exprs0'
p10
g6
sS'btitre'
p11
g6
sS'sblock'
p12
NsS'scicos_context'
p13
NsS'exprs'
p14
g6
sS'x.model'
p15
g4
sS'PREVAR_scicos_context'
p16
NsS'context'
p17
S'vector'
p18
sS'graphics'
p19
g4
sS'y'
p20
g6
sS'x'
p21
g4
sS'arg1.model.rpar.props'
p22
g4
sS'typ'
p23
S'list'
p24
sS'tt'
p25
g2
sS'arg1.model.rpar'
p26
g4
s.