c__builtin__
set
p0
((lp1
S'x'
p2
aS'model'
p3
aS'xxn'
p4
aS'graphics'
p5
atp6
Rp7
.(dp0
S'lnk.ct'
p1
S'vector'
p2
sS'graphics.peout'
p3
S'matrix'
p4
sS'lnk'
p5
S'double'
p6
sS'ppath'
p7
S'list'
p8
sS'scs_m_1.objs[6-1]'
p9
g6
sS'graphics'
p10
NsS'scs_m_1.objs[3-1]'
p11
S'object'
p12
sS'xx'
p13
g12
sS'spath[$+1-1]'
p14
g6
sS'eq'
p15
g12
sS'graphics.orig'
p16
g2
sS'model.ipar'
p17
g6
sS'model.nzcross'
p18
g6
sS'blk'
p19
g12
sS'newpar[size(newpar)+1-1]'
p20
NsS'scs_m_1'
p21
g12
sS'eqn'
p22
g12
sS'np'
p23
g6
sS'blk.model'
p24
NsS'graphics.pein'
p25
g6
sS'lnk.from'
p26
g2
sS'scs_m_1.objs[2-1]'
p27
g12
sS'model.sim'
p28
S'string'
p29
sS'model.evtout'
p30
g6
sS'spath'
p31
g8
sS'newpar'
p32
g8
sS'model.evtin'
p33
g2
sS'model.nmode'
p34
g6
sS'model.rpar'
p35
g12
sS'model_n'
p36
g12
sS'scs_m_1.objs[4-1]'
p37
g12
sS'graphics.pin'
p38
g6
sS'model.in'
p39
g6
sS'scs_m_1.objs[5-1]'
p40
g6
sS'scs_m_1.objs[7-1]'
p41
g6
sS'graphics.sz'
p42
g2
sS'typ'
p43
g8
sS'xxn'
p44
g12
sS'needcompile'
p45
g6
sS'graphics.pout'
p46
g6
sS'scs_m_1.objs[1-1]'
p47
g12
sS'modified'
p48
g6
sS'o'
p49
g12
sS'gr_i'
p50
g2
sS'graphics.exprs'
p51
S'vector_string'
p52
sS'y'
p53
g6
sS'x'
p54
g2
sS'model'
p55
g12
sS'lnk.to'
p56
g2
sS'blk.graphics'
p57
Ns.