c__builtin__
set
p0
((lp1
S'x'
p2
aS'edge'
p3
atp4
Rp5
.(dp0
S'model.sim'
p1
S'vector'
p2
sS'model.in1'
p3
S'double'
p4
sS'model.dstate'
p5
g4
sS'model.blocktype'
p6
S'string'
p7
sS'x.graphics'
p8
S'object'
p9
sS'arg1'
p10
g9
sS'graphics.exprs'
p11
NsS'model.out'
p12
g4
sS'gr_i'
p13
g2
sS'model.nzcross'
p14
g4
sS'exprs'
p15
g2
sS'x.model'
p16
NsS'edge'
p17
g4
sS'model.dep_ut'
p18
g2
sS'graphics'
p19
g9
sS'y'
p20
g2
sS'x'
p21
g4
sS'model'
p22
g9
sS'model.ipar'
p23
g4
sS'typ'
p24
g2
s.