c__builtin__
set
p0
((lp1
S'x'
p2
aS'model'
p3
aS'edge'
p4
atp5
Rp6
.(dp0
S'model.sim'
p1
S'list'
p2
sS'model.in1'
p3
S'double'
p4
sS'model.dstate'
p5
g4
sS'model.blocktype'
p6
S'string'
p7
sS'x.graphics'
p8
S'object'
p9
sS'arg1'
p10
g9
sS'graphics.exprs'
p11
NsS'model.out'
p12
g4
sS'gr_i'
p13
S'vector'
p14
sS'model.nzcross'
p15
g4
sS'exprs'
p16
g14
sS'x.model'
p17
NsS'edge'
p18
g4
sS'model.dep_ut'
p19
g14
sS'graphics'
p20
g9
sS'y'
p21
g14
sS'x'
p22
g4
sS'model'
p23
g9
sS'model.ipar'
p24
g4
sS'typ'
p25
g14
s.