c__builtin__
set
p0
((lp1
S'x'
p2
aS'model'
p3
aS'edge'
p4
aS'graphics'
p5
atp6
Rp7
.(dp0
S'model.sim'
p1
S'list'
p2
sS'model.out'
p3
S'double'
p4
sS'model.dstate'
p5
g4
sS'model.blocktype'
p6
S'string'
p7
sS'x.graphics'
p8
S'object'
p9
sS'model.nzcross'
p10
g4
sS'graphics.exprs'
p11
NsS'model.dep_ut'
p12
S'vector_boolean'
p13
sS'gr_i'
p14
S'vector'
p15
sS'exprs'
p16
S'vector_string'
p17
sS'x.model'
p18
NsS'edge'
p19
g4
sS'model.in'
p20
g4
sS'graphics'
p21
g9
sS'y'
p22
g15
sS'x'
p23
g15
sS'model'
p24
g9
sS'model.ipar'
p25
g4
sS'typ'
p26
g15
s.