c__builtin__
set
p0
((lp1
S'x'
p2
aS'model'
p3
aS'xxn'
p4
atp5
Rp6
.(dp0
S'lnk.ct'
p1
S'vector'
p2
sS'graphics.peout'
p3
S'matrix'
p4
sS'lnk'
p5
S'double'
p6
sS'ppath'
p7
S'list'
p8
sS'arg1'
p9
S'object'
p10
sS'scs_m_1.objs[6-1]'
p11
g6
sS'graphics'
p12
NsS'scs_m_1.objs[3-1]'
p13
g10
sS'xx'
p14
g10
sS'spath[$+1-1]'
p15
g6
sS'eq'
p16
g10
sS'graphics.orig'
p17
g2
sS'model.in1'
p18
g6
sS'model.ipar'
p19
g6
sS'model.nzcross'
p20
g6
sS'blk'
p21
g10
sS'newpar[size(newpar)+1-1]'
p22
NsS'scs_m_1'
p23
g10
sS'eqn'
p24
g10
sS'np'
p25
g6
sS'blk.model'
p26
NsS'graphics.pein'
p27
g6
sS'lnk.from'
p28
g2
sS'scs_m_1.objs[2-1]'
p29
g10
sS'model.sim'
p30
S'string'
p31
sS'model.evtout'
p32
g6
sS'spath'
p33
g8
sS'newpar'
p34
g8
sS'model.evtin'
p35
g2
sS'graphics.pout'
p36
g6
sS'model.nmode'
p37
g6
sS'model_n'
p38
g10
sS'arg1[spath-1]'
p39
g10
sS'scs_m_1.objs[4-1]'
p40
g10
sS'graphics.pin'
p41
g6
sS'model.rpar'
p42
g10
sS'scs_m_1.objs[5-1]'
p43
g6
sS'scs_m_1.objs[7-1]'
p44
g6
sS'graphics.sz'
p45
g2
sS'typ'
p46
g8
sS'xxn'
p47
g10
sS'needcompile'
p48
g6
sS'arg1.model'
p49
g10
sS'scs_m_1.objs[1-1]'
p50
g10
sS'modified'
p51
g6
sS'o'
p52
g10
sS'gr_i'
p53
g2
sS'blk.graphics'
p54
NsS'graphics.exprs'
p55
g2
sS'y'
p56
g6
sS'x'
p57
g6
sS'model'
p58
g10
sS'lnk.to'
p59
g2
sS'arg1.model.rpar'
p60
g10
s.