c__builtin__
set
p0
((lp1
S'edge'
p2
aS'exprs'
p3
aS'gr_i'
p4
aS'graphics'
p5
aS'x'
p6
aS'model'
p7
atp8
Rp9
.(dp0
S'model.sim'
p1
S'list'
p2
sS'model.out'
p3
S'double'
p4
sS'model.dstate'
p5
g4
sS'model.blocktype'
p6
S'string'
p7
sS'x.graphics'
p8
S'object'
p9
sS'arg1'
p10
g9
sS'graphics.exprs'
p11
NsS'model.dep_ut'
p12
S'vector'
p13
sS'gr_i'
p14
g13
sS'model.nzcross'
p15
g4
sS'exprs'
p16
g13
sS'x.model'
p17
NsS'edge'
p18
g4
sS'model.in'
p19
g4
sS'graphics'
p20
g9
sS'y'
p21
g13
sS'x'
p22
g4
sS'model'
p23
g9
sS'model.ipar'
p24
g4
sS'typ'
p25
g13
s.