c__builtin__
set
p0
((lp1
S'x'
p2
aS'model'
p3
aS'xxn'
p4
atp5
Rp6
.(dp0
S'lnk.ct'
p1
S'vector'
p2
sS'graphics.peout'
p3
S'matrix'
p4
sS'lnk'
p5
S'double'
p6
sS'ppath'
p7
g2
sS'arg1'
p8
S'object'
p9
sS'scs_m_1.objs[6-1]'
p10
g6
sS'graphics'
p11
NsS'scs_m_1.objs[3-1]'
p12
g9
sS'xx'
p13
g9
sS'spath[$+1-1]'
p14
g6
sS'eq'
p15
g9
sS'graphics.orig'
p16
g2
sS'model.in1'
p17
g6
sS'model.ipar'
p18
g6
sS'model.nzcross'
p19
g6
sS'blk'
p20
g9
sS'newpar[size(newpar)+1-1]'
p21
NsS'scs_m_1'
p22
g9
sS'eqn'
p23
g9
sS'np'
p24
g6
sS'blk.model'
p25
NsS'graphics.pein'
p26
g6
sS'lnk.from'
p27
g2
sS'scs_m_1.objs[2-1]'
p28
g9
sS'model.sim'
p29
S'string'
p30
sS'model.evtout'
p31
g6
sS'spath'
p32
g2
sS'newpar'
p33
g2
sS'model.evtin'
p34
g2
sS'graphics.pout'
p35
g6
sS'model.nmode'
p36
g6
sS'model_n'
p37
g9
sS'arg1[spath-1]'
p38
g9
sS'scs_m_1.objs[4-1]'
p39
g9
sS'graphics.pin'
p40
g6
sS'model.rpar'
p41
g9
sS'scs_m_1.objs[5-1]'
p42
g6
sS'scs_m_1.objs[7-1]'
p43
g6
sS'graphics.sz'
p44
g2
sS'typ'
p45
g2
sS'xxn'
p46
g9
sS'needcompile'
p47
g6
sS'arg1.model'
p48
g9
sS'scs_m_1.objs[1-1]'
p49
g9
sS'modified'
p50
g6
sS'o'
p51
g9
sS'gr_i'
p52
g2
sS'blk.graphics'
p53
NsS'graphics.exprs'
p54
g2
sS'y'
p55
g6
sS'x'
p56
g6
sS'model'
p57
g9
sS'lnk.to'
p58
g2
sS'arg1.model.rpar'
p59
g9
s.