c__builtin__
set
p0
((lp1
S'x'
p2
aS'model'
p3
aS'edge'
p4
aS'graphics'
p5
atp6
Rp7
.(dp0
S'model.sim'
p1
S'list'
p2
sS'model.out'
p3
S'double'
p4
sS'model.dstate'
p5
g4
sS'model.blocktype'
p6
S'string'
p7
sS'x.graphics'
p8
S'object'
p9
sS'arg1'
p10
g9
sS'graphics.exprs'
p11
NsS'model.dep_ut'
p12
S'vector_boolean'
p13
sS'gr_i'
p14
S'vector'
p15
sS'model.nzcross'
p16
g4
sS'exprs'
p17
S'vector_string'
p18
sS'x.model'
p19
NsS'edge'
p20
g4
sS'model.in'
p21
g4
sS'graphics'
p22
g9
sS'y'
p23
g15
sS'x'
p24
NsS'model'
p25
g9
sS'model.ipar'
p26
g4
sS'typ'
p27
g15
s.