c__builtin__
set
p0
((lp1
S'exprs'
p2
aS'gr_i'
p3
aS'graphics'
p4
aS'x'
p5
aS'model'
p6
aS'xxn'
p7
atp8
Rp9
.(dp0
S'lnk.ct'
p1
S'vector'
p2
sS'graphics.peout'
p3
S'matrix'
p4
sS'lnk'
p5
S'double'
p6
sS'ppath'
p7
S'list'
p8
sS'arg1'
p9
S'object'
p10
sS'scs_m_1.objs[6-1]'
p11
g6
sS'graphics'
p12
NsS'scs_m_1.objs[3-1]'
p13
g10
sS'xx'
p14
g10
sS'spath[$+1-1]'
p15
g6
sS'eq'
p16
g10
sS'graphics.orig'
p17
g2
sS'model.ipar'
p18
g6
sS'model.nzcross'
p19
g6
sS'blk'
p20
g10
sS'newpar[size(newpar)+1-1]'
p21
NsS'scs_m_1'
p22
g10
sS'eqn'
p23
g10
sS'np'
p24
g6
sS'blk.model'
p25
NsS'graphics.pein'
p26
g6
sS'lnk.from'
p27
g2
sS'scs_m_1.objs[2-1]'
p28
g10
sS'model.sim'
p29
S'string'
p30
sS'model.evtout'
p31
g6
sS'spath'
p32
g8
sS'newpar'
p33
g8
sS'model.evtin'
p34
g2
sS'graphics.pout'
p35
g6
sS'model.nmode'
p36
g6
sS'model_n'
p37
g10
sS'arg1[spath-1]'
p38
g10
sS'scs_m_1.objs[4-1]'
p39
g10
sS'graphics.pin'
p40
g6
sS'model.rpar'
p41
g10
sS'model.in'
p42
g6
sS'scs_m_1.objs[5-1]'
p43
g6
sS'scs_m_1.objs[7-1]'
p44
g6
sS'graphics.sz'
p45
g2
sS'typ'
p46
g8
sS'xxn'
p47
g10
sS'needcompile'
p48
g6
sS'arg1.model'
p49
g10
sS'scs_m_1.objs[1-1]'
p50
g10
sS'modified'
p51
g6
sS'o'
p52
g10
sS'gr_i'
p53
g2
sS'blk.graphics'
p54
NsS'graphics.exprs'
p55
g2
sS'y'
p56
g6
sS'x'
p57
g10
sS'model'
p58
g10
sS'lnk.to'
p59
g2
sS'arg1.model.rpar'
p60
g10
s.