c__builtin__
set
p0
((lp1
S'x'
p2
aS'xxn'
p3
aS'isequalbitwise'
p4
atp5
Rp6
.(dp0
S'ppath'
p1
S'vector'
p2
sS'arg1'
p3
S'object'
p4
sS'xx'
p5
g4
sS'spath[$+1-1]'
p6
S'double'
p7
sS'eq'
p8
g4
sS'newpar[size(newpar)+1-1]'
p9
NsS'scs_m_1'
p10
g7
sS'eqn'
p11
g4
sS'np'
p12
g7
sS'scs_m_1.objs[2-1]'
p13
g7
sS'this.x'
p14
g7
sS'spath'
p15
g2
sS'newpar'
p16
g2
sS'model_n'
p17
g4
sS'arg1[spath-1]'
p18
g4
sS'typ'
p19
g2
sS'xxn'
p20
g4
sS'needcompile'
p21
g7
sS'arg1.model'
p22
g4
sS'scs_m_1.objs[1-1]'
p23
g7
sS'modified'
p24
g7
sS'o'
p25
g4
sS'gr_i'
p26
g2
sS'y'
p27
g7
sS'model'
p28
g4
sS'arg1.model.rpar'
p29
g4
s.