c__builtin__
set
p0
((lp1
S'x'
p2
aS'model'
p3
aS'xxn'
p4
aS'graphics'
p5
atp6
Rp7
.(dp0
S'ppath'
p1
S'list'
p2
sS'xx'
p3
S'object'
p4
sS'spath[$+1-1]'
p5
S'double'
p6
sS'eq'
p7
g4
sS'newpar[size(newpar)+1-1]'
p8
NsS'scs_m_1'
p9
g6
sS'eqn'
p10
g4
sS'np'
p11
g6
sS'scs_m_1.objs[2-1]'
p12
g6
sS'spath'
p13
g2
sS'newpar'
p14
g2
sS'model.rpar'
p15
g4
sS'model_n'
p16
g4
sS'typ'
p17
g2
sS'xxn'
p18
g4
sS'needcompile'
p19
g6
sS'scs_m_1.objs[1-1]'
p20
g6
sS'modified'
p21
g6
sS'o'
p22
g4
sS'gr_i'
p23
S'vector'
p24
sS'y'
p25
g6
sS'x'
p26
g24
sS'model'
p27
g4
s.