c__builtin__
set
p0
((lp1
S'x'
p2
aS'model'
p3
aS'xxn'
p4
aS'graphics'
p5
atp6
Rp7
.(dp0
S'ppath'
p1
S'list'
p2
sS'arg1'
p3
S'object'
p4
sS'xx'
p5
g4
sS'spath[$+1-1]'
p6
S'double'
p7
sS'eq'
p8
g4
sS'newpar[size(newpar)+1-1]'
p9
NsS'scs_m_1'
p10
g7
sS'eqn'
p11
g4
sS'np'
p12
g7
sS'scs_m_1.objs[2-1]'
p13
g7
sS'spath'
p14
g2
sS'newpar'
p15
g2
sS'model_n'
p16
g4
sS'arg1[spath-1]'
p17
g4
sS'typ'
p18
g2
sS'xxn'
p19
g4
sS'needcompile'
p20
g7
sS'arg1.model'
p21
g4
sS'scs_m_1.objs[1-1]'
p22
g7
sS'modified'
p23
g7
sS'o'
p24
g4
sS'gr_i'
p25
S'vector'
p26
sS'y'
p27
g7
sS'x'
p28
g4
sS'model'
p29
g4
sS'arg1.model.rpar'
p30
g4
s.