c__builtin__
set
p0
((lp1
S'PREVAR_foo'
p2
aS'getfield'
p3
aS'PREVAR_scicos_context'
p4
aS'%exx'
p5
aS'%nin'
p6
aS'x'
p7
aS'model'
p8
aS'%usenz'
p9
atp10
Rp11
.(dp0
S'arg1'
p1
S'object'
p2
sS'graphics'
p3
g2
sS'%exx'
p4
S'string'
p5
sS'rpar'
p6
S'vector'
p7
sS'x.model'
p8
NsS'model.out'
p9
S'double'
p10
sS'txt'
p11
g5
sS'%nini'
p12
g10
sS'out'
p13
g10
sS'model.in1'
p14
S'matrix'
p15
sS'[ok,%ok1,ipar,rpar,%nz]'
p16
g10
sS'%mm'
p17
g10
sS'typ'
p18
g7
sS'%head'
p19
g5
sS'%ok1'
p20
S'boolean'
p21
sS'[%ok1,ipar,rpar,nz]'
p22
g10
sS'model.sim'
p23
g7
sS'in1'
p24
g15
sS'model.rpar'
p25
NsS'model.nmode'
p26
NsS'graphics.exprs'
p27
NsS'model.ipar'
p28
NsS'model.nzcross'
p29
NsS'%nz'
p30
g7
sS'[model,graphics,ok]'
p31
g10
sS'ok'
p32
g21
sS'x.graphics'
p33
g2
sS'model.dep_ut'
p34
g7
sS'exprs'
p35
g15
sS'gr_i'
p36
g7
sS'PREVAR_scicos_context'
p37
NsS'ipar'
p38
g7
sS'y'
p39
g7
sS'x'
p40
g10
sS'model'
p41
g2
s.