c__builtin__
set
p0
((lp1
S'PREVAR_foo'
p2
aS'getfield'
p3
aS'PREVAR_scicos_context'
p4
aS'%exx'
p5
aS'%nin'
p6
aS'x'
p7
aS'%usenz'
p8
atp9
Rp10
.c__builtin__
set
p0
((lp1
tp2
Rp3
.c__builtin__
set
p0
((lp1
tp2
Rp3
.c__builtin__
set
p0
((lp1
tp2
Rp3
.c__builtin__
set
p0
((lp1
tp2
Rp3
.c__builtin__
set
p0
((lp1
tp2
Rp3
.