c__builtin__
set
p0
((lp1
S'PREVAR_foo'
p2
aS'getfield'
p3
aS'PREVAR_scicos_context'
p4
aS'%exx'
p5
aS'exprs'
p6
aS'gr_i'
p7
aS'%nin'
p8
aS'graphics'
p9
aS'x'
p10
aS'model'
p11
aS'%usenz'
p12
atp13
Rp14
.(dp0
S'arg1'
p1
S'object'
p2
sS'graphics'
p3
g2
sS'%exx'
p4
S'string'
p5
sS'rpar'
p6
S'vector'
p7
sS'x.model'
p8
NsS'model.out'
p9
S'double'
p10
sS'txt'
p11
g5
sS'%nini'
p12
g10
sS'out'
p13
g10
sS'x.graphics'
p14
g2
sS'%mm'
p15
g10
sS'typ'
p16
g7
sS'%head'
p17
g5
sS'%ok1'
p18
S'boolean'
p19
sS'model.sim'
p20
S'list'
p21
sS'in1'
p22
S'matrix'
p23
sS'model.rpar'
p24
NsS'model.nmode'
p25
NsS'model.in'
p26
g23
sS'graphics.exprs'
p27
NsS'model.ipar'
p28
NsS'model.nzcross'
p29
NsS'%nz'
p30
g7
sS'ok'
p31
g19
sS'model.dep_ut'
p32
S'vector_boolean'
p33
sS'exprs'
p34
g23
sS'gr_i'
p35
g7
sS'PREVAR_scicos_context'
p36
NsS'ipar'
p37
g7
sS'y'
p38
g7
sS'x'
p39
NsS'model'
p40
g2
s.