c__builtin__
set
p0
((lp1
S'%nin'
p2
aS'PREVAR_foo'
p3
aS'getfield'
p4
aS'PREVAR_scicos_context'
p5
aS'%exx'
p6
aS'%usenz'
p7
aS'graphics'
p8
aS'x'
p9
aS'model'
p10
atp11
Rp12
.(dp0
S'graphics'
p1
S'object'
p2
sS'%exx'
p3
S'string'
p4
sS'rpar'
p5
S'vector'
p6
sS'x.model'
p7
NsS'model.out'
p8
S'double'
p9
sS'txt'
p10
g4
sS'%nini'
p11
g9
sS'out'
p12
g9
sS'x.graphics'
p13
g2
sS'%mm'
p14
g9
sS'typ'
p15
g6
sS'%head'
p16
g4
sS'%ok1'
p17
S'boolean'
p18
sS'model.sim'
p19
S'list'
p20
sS'model.nmode'
p21
NsS'model.rpar'
p22
NsS'in1'
p23
S'matrix'
p24
sS'model.in'
p25
g24
sS'graphics.exprs'
p26
NsS'model.ipar'
p27
NsS'model.nzcross'
p28
NsS'%nz'
p29
g6
sS'ok'
p30
g18
sS'model.dep_ut'
p31
S'vector_boolean'
p32
sS'exprs'
p33
g24
sS'gr_i'
p34
g6
sS'PREVAR_scicos_context'
p35
NsS'ipar'
p36
g6
sS'y'
p37
g6
sS'x'
p38
g6
sS'model'
p39
g2
s.