c__builtin__
set
p0
((lp1
S'PREVAR_foo'
p2
aS'getfield'
p3
aS'PREVAR_scicos_context'
p4
aS'%exx'
p5
aS'%nin'
p6
aS'x'
p7
aS'model'
p8
aS'%usenz'
p9
atp10
Rp11
.(dp0
S'arg1'
p1
S'object'
p2
sS'graphics'
p3
g2
sS'%exx'
p4
S'string'
p5
sS'rpar'
p6
S'vector'
p7
sS'x.model'
p8
NsS'model.out'
p9
S'double'
p10
sS'txt'
p11
g5
sS'%nini'
p12
g10
sS'out'
p13
g10
sS'model.in1'
p14
S'matrix'
p15
sS'[ok,%ok1,ipar,rpar,%nz]'
p16
g10
sS'%mm'
p17
g10
sS'typ'
p18
g7
sS'%head'
p19
g5
sS'%ok1'
p20
S'boolean'
p21
sS'[%ok1,ipar,rpar,nz]'
p22
g10
sS'model.sim'
p23
S'list'
p24
sS'[this.model,graphics,ok]'
p25
g24
sS'in1'
p26
g15
sS'model.rpar'
p27
NsS'model.nmode'
p28
NsS'graphics.exprs'
p29
NsS'model.ipar'
p30
NsS'model.nzcross'
p31
NsS'%nz'
p32
g7
sS'ok'
p33
g21
sS'x.graphics'
p34
g2
sS'model.dep_ut'
p35
g7
sS'exprs'
p36
g15
sS'gr_i'
p37
g7
sS'PREVAR_scicos_context'
p38
NsS'ipar'
p39
g7
sS'y'
p40
g7
sS'x'
p41
g10
sS'model'
p42
g2
s.