c__builtin__
set
p0
((lp1
S'PREVAR_foo'
p2
aS'getfield'
p3
aS'PREVAR_scicos_context'
p4
aS'%exx'
p5
aS'%nin'
p6
aS'x'
p7
aS'%usenz'
p8
atp9
Rp10
.(dp0
S'arg1'
p1
S'object'
p2
sS'graphics'
p3
g2
sS'%exx'
p4
S'string'
p5
sS'rpar'
p6
S'vector'
p7
sS'this.x.model'
p8
NsS'model.out'
p9
S'double'
p10
sS'txt'
p11
g5
sS'%nini'
p12
g10
sS'out'
p13
g10
sS'model.in1'
p14
S'matrix'
p15
sS'[ok,%ok1,ipar,rpar,%nz]'
p16
g10
sS'%mm'
p17
g10
sS'model.nzcross'
p18
NsS'%head'
p19
g5
sS'%ok1'
p20
S'boolean'
p21
sS'[%ok1,ipar,rpar,nz]'
p22
g10
sS'this.x'
p23
g10
sS'model.sim'
p24
g7
sS'in1'
p25
g15
sS'model.rpar'
p26
NsS'model.nmode'
p27
NsS'graphics.exprs'
p28
NsS'model.ipar'
p29
NsS'this.x.graphics'
p30
g2
sS'%nz'
p31
g7
sS'[model,graphics,ok]'
p32
g10
sS'ok'
p33
g21
sS'typ'
p34
g7
sS'model.dep_ut'
p35
g7
sS'exprs'
p36
g15
sS'gr_i'
p37
g7
sS'PREVAR_scicos_context'
p38
NsS'ipar'
p39
g7
sS'y'
p40
g7
sS'model'
p41
g10
s.