c__builtin__
set
p0
((lp1
S'x'
p2
atp3
Rp4
.(dp0
S'lnk.ct'
p1
S'vector'
p2
sS'graphics.peout'
p3
S'double'
p4
sS'scs_m_1.objs[6-1]'
p5
g4
sS'graphics.exprs'
p6
g2
sS'scs_m_1.objs[3-1]'
p7
S'object'
p8
sS'lnk'
p9
g4
sS'graphics.orig'
p10
g2
sS'model.in1'
p11
g4
sS'typ'
p12
g2
sS'blk'
p13
g8
sS'model.evtin'
p14
g2
sS'blk.model'
p15
NsS'graphics.pein'
p16
g4
sS'lnk.from'
p17
g2
sS'scs_m_1.objs[2-1]'
p18
g8
sS'this.x'
p19
g4
sS'model.sim'
p20
S'string'
p21
sS'model.evtout'
p22
g4
sS'scs_m_1.objs[8-1]'
p23
g4
sS'scs_m_1'
p24
g8
sS'model.nmode'
p25
g4
sS'model.rpar'
p26
g8
sS'graphics.sz'
p27
g2
sS'y'
p28
g2
sS'graphics.pin'
p29
g4
sS'graphics'
p30
NsS'scs_m_1.objs[7-1]'
p31
g4
sS'model.ipar'
p32
g4
sS'model.nzcross'
p33
g4
sS'graphics.pout'
p34
g4
sS'scs_m_1.objs[1-1]'
p35
g8
sS'scs_m_1.objs[5-1]'
p36
g4
sS'gr_i'
p37
g2
sS'scs_m_1.objs[4-1]'
p38
g8
sS'model'
p39
g4
sS'lnk.to'
p40
g2
sS'blk.graphics'
p41
Ns.