c__builtin__
set
p0
((lp1
S'x'
p2
aS'model'
p3
aS'gr_i'
p4
aS'exprs'
p5
aS'graphics'
p6
atp7
Rp8
.(dp0
S'lnk.ct'
p1
S'vector'
p2
sS'graphics.peout'
p3
S'double'
p4
sS'scs_m_1.objs[6-1]'
p5
g4
sS'graphics'
p6
NsS'scs_m_1.objs[3-1]'
p7
S'object'
p8
sS'lnk'
p9
g4
sS'graphics.orig'
p10
g2
sS'typ'
p11
g2
sS'blk'
p12
g8
sS'model.evtin'
p13
g2
sS'blk.model'
p14
NsS'graphics.pein'
p15
g4
sS'lnk.from'
p16
g2
sS'scs_m_1.objs[2-1]'
p17
g8
sS'model.sim'
p18
S'string'
p19
sS'model.evtout'
p20
g4
sS'scs_m_1.objs[8-1]'
p21
g4
sS'scs_m_1'
p22
g8
sS'model.nmode'
p23
g4
sS'model.rpar'
p24
g8
sS'graphics.sz'
p25
g2
sS'y'
p26
g2
sS'graphics.pin'
p27
g4
sS'model.in'
p28
g4
sS'graphics.exprs'
p29
g2
sS'scs_m_1.objs[7-1]'
p30
g4
sS'model.ipar'
p31
g4
sS'model.nzcross'
p32
g4
sS'graphics.pout'
p33
g4
sS'scs_m_1.objs[1-1]'
p34
g8
sS'scs_m_1.objs[5-1]'
p35
g4
sS'gr_i'
p36
g2
sS'scs_m_1.objs[4-1]'
p37
g8
sS'x'
p38
NsS'model'
p39
g8
sS'lnk.to'
p40
g2
sS'blk.graphics'
p41
Ns.