c__builtin__
set
p0
((lp1
S'i'
p2
aS'o'
p3
aS'rpar'
p4
aS'exprs'
p5
aS'gr_i'
p6
aS'lab'
p7
aS'graphics'
p8
aS'funam'
p9
aS'x'
p10
aS'model'
p11
atp12
Rp13
.(dp0
S'label[1-1]'
p1
NsS'model.dstate'
p2
S'vector'
p3
sS'arg1'
p4
S'object'
p5
sS'graphics'
p6
g5
sS'rpar'
p7
g3
sS'funam'
p8
S'string'
p9
sS'x.model'
p10
g5
sS'model.dep_ut'
p11
g3
sS'model.out'
p12
S'double'
p13
sS'ni'
p14
g13
sS'model.in1'
p15
g13
sS'x.graphics'
p16
g5
sS'tt'
p17
g3
sS'label'
p18
S'list'
p19
sS'model.evtin'
p20
g3
sS'model.firing'
p21
g3
sS'model.sim'
p22
g19
sS'model.evtout'
p23
g3
sS'label[2-1]'
p24
g3
sS'model.rpar'
p25
g3
sS'model.state'
p26
g3
sS'graphics.exprs'
p27
NsS'model.ipar'
p28
g13
sS'typ'
p29
g3
sS'model.blocktype'
p30
g9
sS'i'
p31
g13
sS'model.sim[1-1]'
p32
NsS'no'
p33
g13
sS'o'
p34
g13
sS'gr_i'
p35
g3
sS'y'
p36
g3
sS'x'
p37
g13
sS'model'
p38
g5
s.