c__builtin__
set
p0
((lp1
S'i'
p2
aS'o'
p3
aS'rpar'
p4
aS'graphics'
p5
aS'funam'
p6
aS'x'
p7
aS'model'
p8
atp9
Rp10
.(dp0
S'label[1-1]'
p1
NsS'model.dstate'
p2
S'vector'
p3
sS'graphics'
p4
S'object'
p5
sS'rpar'
p6
g3
sS'funam'
p7
S'string'
p8
sS'x.model'
p9
g5
sS'model.dep_ut'
p10
S'vector_boolean'
p11
sS'model.out'
p12
S'double'
p13
sS'ni'
p14
g13
sS'x.graphics'
p15
g5
sS'tt'
p16
g3
sS'label'
p17
S'list'
p18
sS'model.evtin'
p19
g3
sS'model.firing'
p20
g3
sS'model.sim'
p21
g18
sS'model.evtout'
p22
g3
sS'label[2-1]'
p23
g3
sS'model.rpar'
p24
g3
sS'model.state'
p25
g3
sS'model.in'
p26
g13
sS'graphics.exprs'
p27
NsS'model.ipar'
p28
g13
sS'typ'
p29
g3
sS'model.blocktype'
p30
g8
sS'i'
p31
g13
sS'model.sim[1-1]'
p32
NsS'no'
p33
g13
sS'o'
p34
g13
sS'gr_i'
p35
g3
sS'y'
p36
g3
sS'x'
p37
g3
sS'model'
p38
g5
s.