c__builtin__
set
p0
((lp1
S'i'
p2
aS'lab'
p3
aS'rpar'
p4
aS'o'
p5
aS'funam'
p6
aS'x'
p7
atp8
Rp9
.(dp0
S'model.dstate'
p1
S'vector'
p2
sS'arg1'
p3
S'object'
p4
sS'graphics'
p5
g4
sS'this.x.model'
p6
g4
sS'model.out'
p7
S'double'
p8
sS'this.funam'
p9
S'string'
p10
sS'this.o'
p11
g8
sS'ni'
p12
g8
sS'model.in1'
p13
g8
sS'no'
p14
g8
sS'typ'
p15
g2
sS'tt'
p16
g2
sS'this.rpar'
p17
g2
sS'label'
p18
g2
sS'[ok,tt]'
p19
g8
sS'model.evtin'
p20
g2
sS'model.firing'
p21
g2
sS'this.x'
p22
g8
sS'model.sim'
p23
g2
sS'model.evtout'
p24
g2
sS'label[2-1]'
p25
g2
sS'model.rpar'
p26
g2
sS'this.i'
p27
g8
sS'model.state'
p28
g2
sS'graphics.exprs'
p29
NsS'model.ipar'
p30
g8
sS'this.x.graphics'
p31
g4
sS'[model,graphics,ok]'
p32
g8
sS'model.blocktype'
p33
g10
sS'model.sim[1-1]'
p34
NsS'label[1-1]'
p35
NsS'model.dep_ut'
p36
g2
sS'gr_i'
p37
g2
sS'y'
p38
g2
sS'model'
p39
g4
s.