c__builtin__
set
p0
((lp1
S'i'
p2
aS'o'
p3
aS'rpar'
p4
aS'graphics'
p5
aS'funam'
p6
aS'x'
p7
aS'model'
p8
atp9
Rp10
.(dp0
S'label[1-1]'
p1
NsS'model.dstate'
p2
S'vector'
p3
sS'arg1'
p4
S'object'
p5
sS'graphics'
p6
g5
sS'rpar'
p7
g3
sS'funam'
p8
S'string'
p9
sS'x.model'
p10
g5
sS'model.dep_ut'
p11
S'vector_boolean'
p12
sS'model.out'
p13
S'double'
p14
sS'ni'
p15
g14
sS'x.graphics'
p16
g5
sS'tt'
p17
g3
sS'label'
p18
S'list'
p19
sS'model.evtin'
p20
g3
sS'model.firing'
p21
g3
sS'model.sim'
p22
g19
sS'model.evtout'
p23
g3
sS'label[2-1]'
p24
g3
sS'model.rpar'
p25
g3
sS'model.state'
p26
g3
sS'model.in'
p27
g14
sS'graphics.exprs'
p28
NsS'model.ipar'
p29
g14
sS'typ'
p30
g3
sS'model.blocktype'
p31
g9
sS'i'
p32
g14
sS'model.sim[1-1]'
p33
NsS'no'
p34
g14
sS'o'
p35
g14
sS'gr_i'
p36
g3
sS'y'
p37
g3
sS'x'
p38
NsS'model'
p39
g5
s.