c__builtin__
set
p0
((lp1
S'i'
p2
aS'o'
p3
aS'rpar'
p4
aS'lab'
p5
aS'funam'
p6
aS'x'
p7
aS'model'
p8
atp9
Rp10
.(dp0
S'label[1-1]'
p1
NsS'model.dstate'
p2
S'vector'
p3
sS'arg1'
p4
S'object'
p5
sS'graphics'
p6
g5
sS'rpar'
p7
g3
sS'funam'
p8
S'string'
p9
sS'x.model'
p10
g5
sS'model.dep_ut'
p11
g3
sS'model.out'
p12
S'double'
p13
sS'ni'
p14
g13
sS'model.in1'
p15
g13
sS'x.graphics'
p16
g5
sS'tt'
p17
g3
sS'label'
p18
g3
sS'[ok,tt]'
p19
g13
sS'model.evtin'
p20
g3
sS'model.firing'
p21
g3
sS'model.sim'
p22
g3
sS'model.evtout'
p23
g3
sS'label[2-1]'
p24
g3
sS'model.rpar'
p25
g3
sS'model.state'
p26
g3
sS'graphics.exprs'
p27
NsS'model.ipar'
p28
g13
sS'typ'
p29
g3
sS"model.sim[('1', 'double')]"
p30
NsS'[model,graphics,ok]'
p31
g13
sS'model.blocktype'
p32
g9
sS'i'
p33
g13
sS'no'
p34
g13
sS'o'
p35
g13
sS'gr_i'
p36
g3
sS'y'
p37
g3
sS'x'
p38
g13
sS'model'
p39
g5
s.