c__builtin__
set
p0
((lp1
S'i'
p2
aS'o'
p3
aS'rpar'
p4
aS'lab'
p5
aS'funam'
p6
aS'x'
p7
aS'model'
p8
atp9
Rp10
.(dp0
S'label[1-1]'
p1
NsS'model.dstate'
p2
S'vector'
p3
sS'arg1'
p4
S'object'
p5
sS'graphics'
p6
g5
sS'rpar'
p7
g3
sS'funam'
p8
S'string'
p9
sS'x.model'
p10
g5
sS'model.dep_ut'
p11
g3
sS'model.out'
p12
S'double'
p13
sS'ni'
p14
g13
sS'model.in1'
p15
g13
sS'x.graphics'
p16
g5
sS'tt'
p17
g3
sS'label'
p18
S'list'
p19
sS'[ok,tt]'
p20
g13
sS'model.evtin'
p21
g3
sS'model.sim[1]'
p22
NsS'model.firing'
p23
g3
sS'model.sim'
p24
g19
sS'model.evtout'
p25
g3
sS'label[2-1]'
p26
g3
sS'model.rpar'
p27
g3
sS'model.state'
p28
g3
sS'graphics.exprs'
p29
NsS'model.ipar'
p30
g13
sS'typ'
p31
g3
sS'[model,graphics,ok]'
p32
g13
sS'model.blocktype'
p33
g9
sS'i'
p34
g13
sS'no'
p35
g13
sS'o'
p36
g13
sS'gr_i'
p37
g3
sS'y'
p38
g3
sS'x'
p39
g13
sS'model'
p40
g5
s.