c__builtin__
set
p0
((lp1
S'x'
p2
aS'model'
p3
atp4
Rp5
.(dp0
S'model.sim'
p1
S'string'
p2
sS'model.in1'
p3
S'double'
p4
sS'model.blocktype'
p5
g2
sS'x.graphics'
p6
S'object'
p7
sS'arg1'
p8
g7
sS'graphics.exprs'
p9
NsS'model.out'
p10
g4
sS'exprs'
p11
g2
sS'x.model'
p12
NsS'gr_i'
p13
S'vector'
p14
sS'model.dep_ut'
p15
g14
sS'graphics'
p16
g7
sS'y'
p17
g14
sS'x'
p18
g4
sS'model'
p19
g7
sS'typ'
p20
g14
s.