c__builtin__
set
p0
((lp1
S'x'
p2
aS'model'
p3
aS'gr_i'
p4
aS'exprs'
p5
aS'graphics'
p6
atp7
Rp8
.(dp0
S'model.sim'
p1
S'string'
p2
sS'model.out'
p3
S'double'
p4
sS'model.blocktype'
p5
g2
sS'x.graphics'
p6
S'object'
p7
sS'arg1'
p8
g7
sS'graphics.exprs'
p9
NsS'model.dep_ut'
p10
S'vector'
p11
sS'exprs'
p12
g2
sS'x.model'
p13
NsS'gr_i'
p14
g11
sS'model.in'
p15
g4
sS'graphics'
p16
g7
sS'y'
p17
g11
sS'x'
p18
g7
sS'model'
p19
g7
sS'typ'
p20
g11
s.