c__builtin__
set
p0
((lp1
S'x'
p2
aS'model'
p3
aS'genfunc'
p4
atp5
Rp6
.(dp0
S'model.sim'
p1
S'string'
p2
sS'model.in1'
p3
S'double'
p4
sS'[ok,mac,exprs]'
p5
g4
sS'model.blocktype'
p6
g2
sS'x.graphics'
p7
S'object'
p8
sS'arg1'
p9
g8
sS'graphics.exprs'
p10
NsS'model.out'
p11
g4
sS'exprs'
p12
g2
sS'x.model'
p13
NsS'gr_i'
p14
S'vector'
p15
sS'model.dep_ut'
p16
g15
sS'graphics'
p17
g8
sS'y'
p18
g15
sS'x'
p19
g4
sS'model'
p20
g8
sS'typ'
p21
g15
s.