c__builtin__
set
p0
((lp1
S'x'
p2
aS'genfunc'
p3
atp4
Rp5
.(dp0
S'this.x'
p1
S'double'
p2
sS'model.sim'
p3
S'string'
p4
sS'model.in1'
p5
g2
sS'[ok,mac,exprs]'
p6
g2
sS'model.blocktype'
p7
g4
sS'this.x.graphics'
p8
S'object'
p9
sS'arg1'
p10
g9
sS'graphics.exprs'
p11
NsS'model.out'
p12
g2
sS'this.x.model'
p13
NsS'exprs'
p14
g4
sS'gr_i'
p15
S'vector'
p16
sS'model.dep_ut'
p17
g16
sS'graphics'
p18
g9
sS'y'
p19
g16
sS'x'
p20
g9
sS'model'
p21
g2
sS'typ'
p22
g16
s.