c__builtin__
set
p0
((lp1
S'x'
p2
aS'model'
p3
aS'graphics'
p4
atp5
Rp6
.(dp0
S'model.sim'
p1
S'string'
p2
sS'model.out'
p3
S'double'
p4
sS'model.blocktype'
p5
g2
sS'x.graphics'
p6
S'object'
p7
sS'graphics.exprs'
p8
NsS'model.dep_ut'
p9
S'vector_boolean'
p10
sS'exprs'
p11
g2
sS'x.model'
p12
NsS'gr_i'
p13
S'vector'
p14
sS'model.in'
p15
g4
sS'graphics'
p16
g7
sS'y'
p17
g14
sS'x'
p18
g7
sS'model'
p19
g7
sS'typ'
p20
g14
s.