c__builtin__
set
p0
((lp1
S'ci'
p2
aS'co'
p3
aS'it'
p4
aS'rpar'
p5
aS'auto0'
p6
aS'funtyp'
p7
aS'out'
p8
aS'type'
p9
aS'function_name'
p10
aS'in1'
p11
aS'lab'
p12
aS'nmode'
p13
aS'z'
p14
aS'xx'
p15
aS'nzcr'
p16
aS'depu'
p17
aS'dept'
p18
aS'opar'
p19
aS'oz'
p20
aS'ipar'
p21
aS'x'
p22
aS'model'
p23
aS'ot'
p24
atp25
Rp26
.(dp0
S'model.odstate'
p1
NsS'ci'
p2
S'double'
p3
sS'co'
p4
g3
sS'arg1'
p5
S'object'
p6
sS'graphics.exprs'
p7
NsS'rpar'
p8
S'vector'
p9
sS'xx'
p10
g9
sS'model.intyp'
p11
g3
sS'funtyp'
p12
g3
sS'model.out'
p13
g3
sS'model.dstate'
p14
g9
sS'model.in2'
p15
g3
sS'model.in1'
p16
g3
sS'model.nzcross'
p17
NsS'label'
p18
S'matrix'
p19
sS'model.firing'
p20
NsS'function_name'
p21
S'string'
p22
sS'model.sim'
p23
g9
sS'arg1.graphics'
p24
g6
sS'model.out2'
p25
g3
sS'model.nmode'
p26
NsS'model.rpar'
p27
g9
sS'model.outtyp'
p28
g3
sS'model.state'
p29
g9
sS'graphics'
p30
g6
sS'model.ipar'
p31
g3
sS'typ'
p32
g9
sS'model.opar'
p33
NsS'needcompile'
p34
g3
sS'[model,graphics,ok]'
p35
g3
sS'arg1.model'
p36
NsS'label[9-1]'
p37
g9
sS'ok'
p38
S'boolean'
p39
sS'model.dep_ut'
p40
g9
sS'depu'
p41
g39
sS'dept'
p42
g39
sS'gr_i'
p43
g9
sS'ipar'
p44
g3
sS'y'
p45
g9
sS'x'
p46
g3
sS'model'
p47
g6
sS'z'
p48
g9
sS'dep_ut'
p49
g9
s.