c__builtin__
set
p0
((lp1
S'ci'
p2
aS'co'
p3
aS'i'
p4
aS'auto0'
p5
aS'o'
p6
aS'rpar'
p7
aS'depu'
p8
aS'dept'
p9
aS'xx'
p10
aS'funtyp'
p11
aS'lab'
p12
aS'ipar'
p13
aS'graphics'
p14
aS'x'
p15
aS'model'
p16
aS'z'
p17
aS'function_name'
p18
atp19
Rp20
.(dp0
S'ci'
p1
S'double'
p2
sS'co'
p3
g2
sS'arg1'
p4
S'object'
p5
sS'graphics.exprs'
p6
NsS'rpar'
p7
S'vector'
p8
sS'xx'
p9
g8
sS'funtyp'
p10
g2
sS'model.dep_ut'
p11
g8
sS'model.out'
p12
g2
sS'model.dstate'
p13
g8
sS'model.in1'
p14
g2
sS'label'
p15
S'matrix'
p16
sS'model.evtin'
p17
g8
sS'model.firing'
p18
g8
sS'function_name'
p19
S'string'
p20
sS'model.sim'
p21
S'list'
p22
sS'model.evtout'
p23
g8
sS'arg1.graphics'
p24
g5
sS'model.rpar'
p25
g8
sS'model.state'
p26
g8
sS'graphics'
p27
g5
sS'model.ipar'
p28
g8
sS'typ'
p29
g8
sS'needcompile'
p30
g2
sS'arg1.model'
p31
NsS'label[9-1]'
p32
g8
sS'ok'
p33
S'boolean'
p34
sS'model.blocktype'
p35
g20
sS'i'
p36
g2
sS'o'
p37
g2
sS'depu'
p38
g34
sS'dept'
p39
g34
sS'gr_i'
p40
g8
sS'ipar'
p41
g2
sS'y'
p42
g8
sS'x'
p43
g2
sS'model'
p44
g5
sS'z'
p45
g8
sS'dep_ut'
p46
g8
s.