c__builtin__
set
p0
((lp1
S'ci'
p2
aS'co'
p3
aS'it'
p4
aS'rpar'
p5
aS'auto0'
p6
aS'funtyp'
p7
aS'out'
p8
aS'type'
p9
aS'function_name'
p10
aS'in1'
p11
aS'lab'
p12
aS'nmode'
p13
aS'z'
p14
aS'xx'
p15
aS'nzcr'
p16
aS'depu'
p17
aS'dept'
p18
aS'opar'
p19
aS'oz'
p20
aS'ipar'
p21
aS'x'
p22
aS'ot'
p23
atp24
Rp25
.(dp0
S'model.odstate'
p1
NsS'model.dstate'
p2
NsS'model.sim'
p3
S'vector'
p4
sS'arg1'
p5
S'object'
p6
sS'graphics.exprs'
p7
NsS'this.function_name'
p8
S'string'
p9
sS'model.intyp'
p10
S'double'
p11
sS'model.dep_ut'
p12
g4
sS'model.out'
p13
g11
sS'model.in2'
p14
g11
sS'model.in1'
p15
g11
sS'model.nzcross'
p16
NsS'this.rpar'
p17
g4
sS'this.xx'
p18
g4
sS'label'
p19
S'matrix'
p20
sS'this.ci'
p21
g11
sS'model.firing'
p22
NsS'this.co'
p23
g11
sS'this.x'
p24
g11
sS'this.ipar'
p25
g11
sS'this.z'
p26
g4
sS'arg1.graphics'
p27
g6
sS'model.out2'
p28
g11
sS'model.nmode'
p29
NsS'model.rpar'
p30
NsS'model.outtyp'
p31
g11
sS'model.state'
p32
NsS'graphics'
p33
g6
sS'model.ipar'
p34
NsS'typ'
p35
g4
sS'model.opar'
p36
NsS'needcompile'
p37
g11
sS'[model,graphics,ok]'
p38
g11
sS'arg1.model'
p39
NsS'label[9-1]'
p40
g4
sS'ok'
p41
S'boolean'
p42
sS'this.dept'
p43
g42
sS'this.depu'
p44
g42
sS'gr_i'
p45
g4
sS'this.funtyp'
p46
g11
sS'y'
p47
g4
sS'model'
p48
g6
sS'dep_ut'
p49
g4
s.