c__builtin__
set
p0
((lp1
S'ci'
p2
aS'co'
p3
aS'i'
p4
aS'auto0'
p5
aS'o'
p6
aS'rpar'
p7
aS'depu'
p8
aS'dept'
p9
aS'xx'
p10
aS'nzcr'
p11
aS'funtyp'
p12
aS'lab'
p13
aS'ipar'
p14
aS'x'
p15
aS'z'
p16
aS'nmode'
p17
aS'function_name'
p18
atp19
Rp20
.(dp0
S'ci'
p1
S'double'
p2
sS'co'
p3
g2
sS'arg1'
p4
S'object'
p5
sS'graphics.exprs'
p6
NsS'rpar'
p7
S'vector'
p8
sS'xx'
p9
g8
sS'funtyp'
p10
g2
sS'model.dep_ut'
p11
g8
sS'model.out'
p12
g2
sS'model.dstate'
p13
g8
sS'model.in1'
p14
g2
sS'model.nzcross'
p15
NsS'label'
p16
S'matrix'
p17
sS'model.evtin'
p18
g8
sS'model.firing'
p19
g8
sS'function_name'
p20
S'string'
p21
sS'model.sim'
p22
g8
sS'model.evtout'
p23
g8
sS'arg1.graphics'
p24
g5
sS'model.nmode'
p25
NsS'model.rpar'
p26
g8
sS'model.state'
p27
g8
sS'graphics'
p28
g5
sS'model.ipar'
p29
g8
sS'typ'
p30
g8
sS'needcompile'
p31
g2
sS'[model,graphics,ok]'
p32
g2
sS'arg1.model'
p33
NsS'label[9-1]'
p34
g8
sS'ok'
p35
S'boolean'
p36
sS'model.blocktype'
p37
g21
sS'i'
p38
g2
sS'o'
p39
g2
sS'depu'
p40
g36
sS'dept'
p41
g36
sS'gr_i'
p42
g8
sS'ipar'
p43
g2
sS'y'
p44
g8
sS'x'
p45
g2
sS'model'
p46
g5
sS'z'
p47
g8
sS'dep_ut'
p48
g8
s.