c__builtin__
set
p0
((lp1
S'ci'
p2
aS'co'
p3
aS'i'
p4
aS'auto0'
p5
aS'o'
p6
aS'rpar'
p7
aS'depu'
p8
aS'dept'
p9
aS'xx'
p10
aS'nzcr'
p11
aS'funtyp'
p12
aS'ipar'
p13
aS'graphics'
p14
aS'x'
p15
aS'model'
p16
aS'z'
p17
aS'nmode'
p18
aS'function_name'
p19
atp20
Rp21
.(dp0
S'ci'
p1
S'double'
p2
sS'co'
p3
g2
sS'graphics.exprs'
p4
NsS'rpar'
p5
S'vector'
p6
sS'xx'
p7
g6
sS'funtyp'
p8
g2
sS'model.dep_ut'
p9
S'vector_boolean'
p10
sS'model.out'
p11
g2
sS'model.dstate'
p12
g6
sS'model.nzcross'
p13
NsS'label'
p14
S'matrix'
p15
sS'model.evtin'
p16
g6
sS'model.firing'
p17
g6
sS'function_name'
p18
S'string'
p19
sS'model.sim'
p20
S'list'
p21
sS'model.evtout'
p22
g6
sS'model.nmode'
p23
NsS'model.rpar'
p24
g6
sS'model.state'
p25
g6
sS'model.in'
p26
g2
sS'graphics'
p27
S'object'
p28
sS'model.ipar'
p29
g6
sS'typ'
p30
g6
sS'needcompile'
p31
g2
sS'label[9-1]'
p32
g6
sS'ok'
p33
S'boolean'
p34
sS'model.blocktype'
p35
g19
sS'i'
p36
g2
sS'o'
p37
g2
sS'depu'
p38
g34
sS'dept'
p39
g34
sS'gr_i'
p40
g6
sS'ipar'
p41
g2
sS'y'
p42
g6
sS'x'
p43
g6
sS'model'
p44
g28
sS'z'
p45
g6
sS'dep_ut'
p46
g10
s.