c__builtin__
set
p0
((lp1
S'ci'
p2
aS'co'
p3
aS'i'
p4
aS'auto0'
p5
aS'o'
p6
aS'rpar'
p7
aS'depu'
p8
aS'dept'
p9
aS'xx'
p10
aS'funtyp'
p11
aS'ipar'
p12
aS'graphics'
p13
aS'x'
p14
aS'model'
p15
aS'z'
p16
aS'function_name'
p17
atp18
Rp19
.(dp0
S'ci'
p1
S'double'
p2
sS'co'
p3
g2
sS'graphics.exprs'
p4
NsS'rpar'
p5
S'vector'
p6
sS'xx'
p7
g6
sS'funtyp'
p8
g2
sS'model.dep_ut'
p9
S'vector_boolean'
p10
sS'model.out'
p11
g2
sS'model.dstate'
p12
g6
sS'label'
p13
S'matrix'
p14
sS'model.evtin'
p15
g6
sS'model.firing'
p16
g6
sS'function_name'
p17
S'string'
p18
sS'model.sim'
p19
S'list'
p20
sS'model.evtout'
p21
g6
sS'model.rpar'
p22
g6
sS'model.state'
p23
g6
sS'model.in'
p24
g2
sS'graphics'
p25
S'object'
p26
sS'model.ipar'
p27
g6
sS'typ'
p28
g6
sS'needcompile'
p29
g2
sS'label[9-1]'
p30
g6
sS'ok'
p31
S'boolean'
p32
sS'model.blocktype'
p33
g18
sS'i'
p34
g2
sS'o'
p35
g2
sS'depu'
p36
g32
sS'dept'
p37
g32
sS'gr_i'
p38
g6
sS'ipar'
p39
g2
sS'y'
p40
g6
sS'x'
p41
g6
sS'model'
p42
g26
sS'z'
p43
g6
sS'dep_ut'
p44
g10
s.