c__builtin__
set
p0
((lp1
S'ci'
p2
aS'co'
p3
aS'i'
p4
aS'auto0'
p5
aS'o'
p6
aS'rpar'
p7
aS'depu'
p8
aS'dept'
p9
aS'xx'
p10
aS'funtyp'
p11
aS'ipar'
p12
aS'graphics'
p13
aS'x'
p14
aS'model'
p15
aS'z'
p16
aS'function_name'
p17
atp18
Rp19
.(dp0
S'ci'
p1
S'double'
p2
sS'co'
p3
g2
sS'arg1'
p4
S'object'
p5
sS'graphics.exprs'
p6
NsS'rpar'
p7
S'vector'
p8
sS'xx'
p9
g8
sS'funtyp'
p10
g2
sS'model.dep_ut'
p11
S'vector_boolean'
p12
sS'model.out'
p13
g2
sS'model.dstate'
p14
g8
sS'label'
p15
S'matrix'
p16
sS'model.evtin'
p17
g8
sS'model.firing'
p18
g8
sS'function_name'
p19
S'string'
p20
sS'model.sim'
p21
S'list'
p22
sS'model.evtout'
p23
g8
sS'arg1.graphics'
p24
g5
sS'model.rpar'
p25
g8
sS'model.state'
p26
g8
sS'model.in'
p27
g2
sS'graphics'
p28
g5
sS'model.ipar'
p29
g8
sS'typ'
p30
g8
sS'needcompile'
p31
g2
sS'arg1.model'
p32
NsS'label[9-1]'
p33
g8
sS'ok'
p34
S'boolean'
p35
sS'model.blocktype'
p36
g20
sS'i'
p37
g2
sS'o'
p38
g2
sS'depu'
p39
g35
sS'dept'
p40
g35
sS'gr_i'
p41
g8
sS'ipar'
p42
g2
sS'y'
p43
g8
sS'x'
p44
g5
sS'model'
p45
g5
sS'z'
p46
g8
sS'dep_ut'
p47
g12
s.