c__builtin__
set
p0
((lp1
S'ci'
p2
aS'co'
p3
aS'i'
p4
aS'auto0'
p5
aS'o'
p6
aS'rpar'
p7
aS'depu'
p8
aS'dept'
p9
aS'xx'
p10
aS'nzcr'
p11
aS'funtyp'
p12
aS'lab'
p13
aS'ipar'
p14
aS'x'
p15
aS'model'
p16
aS'z'
p17
aS'nmode'
p18
aS'function_name'
p19
atp20
Rp21
.(dp0
S'ci'
p1
S'double'
p2
sS'co'
p3
g2
sS'arg1'
p4
S'object'
p5
sS'graphics.exprs'
p6
NsS'rpar'
p7
S'vector'
p8
sS'xx'
p9
g8
sS'funtyp'
p10
g2
sS'model.dep_ut'
p11
g8
sS'model.out'
p12
g2
sS'model.dstate'
p13
g8
sS'model.in1'
p14
g2
sS'model.nzcross'
p15
NsS'label'
p16
S'matrix'
p17
sS'model.evtin'
p18
g8
sS'model.firing'
p19
g8
sS'function_name'
p20
S'string'
p21
sS'model.sim'
p22
S'list'
p23
sS'model.evtout'
p24
g8
sS'arg1.graphics'
p25
g5
sS'model.nmode'
p26
NsS'model.rpar'
p27
g8
sS'model.state'
p28
g8
sS'graphics'
p29
g5
sS'model.ipar'
p30
g8
sS'typ'
p31
g8
sS'needcompile'
p32
g2
sS'[model,graphics,ok]'
p33
g2
sS'arg1.model'
p34
NsS'label[9-1]'
p35
g8
sS'ok'
p36
S'boolean'
p37
sS'model.blocktype'
p38
g21
sS'i'
p39
g2
sS'o'
p40
g2
sS'depu'
p41
g37
sS'dept'
p42
g37
sS'gr_i'
p43
g8
sS'ipar'
p44
g2
sS'y'
p45
g8
sS'x'
p46
g2
sS'model'
p47
g5
sS'z'
p48
g8
sS'dep_ut'
p49
g8
s.