c__builtin__
set
p0
((lp1
S'ci'
p2
aS'co'
p3
aS'dept'
p4
aS'i'
p5
aS'auto0'
p6
aS'o'
p7
aS'rpar'
p8
aS'depu'
p9
aS'exprs'
p10
aS'xx'
p11
aS'gr_i'
p12
aS'funtyp'
p13
aS'lab'
p14
aS'ipar'
p15
aS'graphics'
p16
aS'x'
p17
aS'model'
p18
aS'z'
p19
aS'function_name'
p20
atp21
Rp22
.(dp0
S'ci'
p1
S'double'
p2
sS'co'
p3
g2
sS'arg1'
p4
S'object'
p5
sS'graphics.exprs'
p6
NsS'rpar'
p7
S'vector'
p8
sS'xx'
p9
g8
sS'funtyp'
p10
g2
sS'model.dep_ut'
p11
g8
sS'model.out'
p12
g2
sS'model.dstate'
p13
g8
sS'label'
p14
S'matrix'
p15
sS'model.evtin'
p16
g8
sS'model.firing'
p17
g8
sS'function_name'
p18
S'string'
p19
sS'model.sim'
p20
S'list'
p21
sS'model.evtout'
p22
g8
sS'arg1.graphics'
p23
g5
sS'model.rpar'
p24
g8
sS'model.state'
p25
g8
sS'model.in'
p26
g2
sS'graphics'
p27
g5
sS'model.ipar'
p28
g8
sS'typ'
p29
g8
sS'needcompile'
p30
g2
sS'arg1.model'
p31
NsS'label[9-1]'
p32
g8
sS'ok'
p33
S'boolean'
p34
sS'model.blocktype'
p35
g19
sS'i'
p36
g2
sS'o'
p37
g2
sS'depu'
p38
g34
sS'dept'
p39
g34
sS'gr_i'
p40
g8
sS'ipar'
p41
g2
sS'y'
p42
g8
sS'x'
p43
g5
sS'model'
p44
g5
sS'z'
p45
g8
sS'dep_ut'
p46
g8
s.