c__builtin__
set
p0
((lp1
S'ci'
p2
aS'co'
p3
aS'it'
p4
aS'rpar'
p5
aS'auto0'
p6
aS'funtyp'
p7
aS'out'
p8
aS'function_name'
p9
aS'in1'
p10
aS'graphics'
p11
aS'nmode'
p12
aS'z'
p13
aS'xx'
p14
aS'nzcr'
p15
aS'depu'
p16
aS'dept'
p17
aS'opar'
p18
aS'oz'
p19
aS'ipar'
p20
aS'x'
p21
aS'model'
p22
aS'ot'
p23
atp24
Rp25
.(dp0
S'model.odstate'
p1
NsS'ci'
p2
S'double'
p3
sS'co'
p4
g3
sS'graphics.exprs'
p5
NsS'rpar'
p6
S'vector'
p7
sS'xx'
p8
g7
sS'funtyp'
p9
g3
sS'model.out'
p10
g3
sS'model.dstate'
p11
g7
sS'model.in2'
p12
g3
sS'model.intyp'
p13
g3
sS'model.nzcross'
p14
NsS'label'
p15
S'matrix'
p16
sS'model.firing'
p17
NsS'function_name'
p18
S'string'
p19
sS'model.sim'
p20
S'list'
p21
sS'model.out2'
p22
g3
sS'model.nmode'
p23
NsS'model.rpar'
p24
g7
sS'model.outtyp'
p25
g3
sS'model.state'
p26
g7
sS'model.in'
p27
g3
sS'graphics'
p28
S'object'
p29
sS'model.ipar'
p30
g3
sS'typ'
p31
g7
sS'model.opar'
p32
NsS'needcompile'
p33
g3
sS'label[9-1]'
p34
g7
sS'ok'
p35
S'boolean'
p36
sS'model.dep_ut'
p37
S'vector_boolean'
p38
sS'depu'
p39
g36
sS'dept'
p40
g36
sS'gr_i'
p41
g7
sS'ipar'
p42
g3
sS'y'
p43
g7
sS'x'
p44
g7
sS'model'
p45
g29
sS'z'
p46
g7
sS'dep_ut'
p47
g38
s.