c__builtin__
set
p0
((lp1
S'ci'
p2
aS'co'
p3
aS'i'
p4
aS'auto0'
p5
aS'o'
p6
aS'rpar'
p7
aS'depu'
p8
aS'dept'
p9
aS'xx'
p10
aS'funtyp'
p11
aS'lab'
p12
aS'ipar'
p13
aS'x'
p14
aS'z'
p15
aS'function_name'
p16
atp17
Rp18
.(dp0
S'model.dstate'
p1
S'vector'
p2
sS'model.sim'
p3
g2
sS'arg1'
p4
S'object'
p5
sS'graphics'
p6
g5
sS'model.evtout'
p7
g2
sS'this.function_name'
p8
S'string'
p9
sS'model.dep_ut'
p10
g2
sS'model.out'
p11
S'double'
p12
sS'model.in1'
p13
g12
sS'this.rpar'
p14
g2
sS'this.xx'
p15
g2
sS'label'
p16
S'matrix'
p17
sS'model.evtin'
p18
g2
sS'this.ci'
p19
g12
sS'model.firing'
p20
g2
sS'this.co'
p21
g12
sS'this.x'
p22
g12
sS'this.ipar'
p23
g12
sS'this.z'
p24
g2
sS'arg1.graphics'
p25
g5
sS'model.rpar'
p26
g2
sS'this.i'
p27
g12
sS'model.state'
p28
g2
sS'this.o'
p29
g12
sS'model.ipar'
p30
g2
sS'typ'
p31
g2
sS'needcompile'
p32
g12
sS'[model,graphics,ok]'
p33
g12
sS'arg1.model'
p34
NsS'label[9-1]'
p35
g2
sS'ok'
p36
S'boolean'
p37
sS'model.blocktype'
p38
g9
sS'this.dept'
p39
g37
sS'this.depu'
p40
g37
sS'gr_i'
p41
g2
sS'graphics.exprs'
p42
NsS'this.funtyp'
p43
g12
sS'y'
p44
g2
sS'model'
p45
g5
sS'dep_ut'
p46
g2
s.