c__builtin__
set
p0
((lp1
S'ci'
p2
aS'co'
p3
aS'i'
p4
aS'auto0'
p5
aS'o'
p6
aS'rpar'
p7
aS'depu'
p8
aS'dept'
p9
aS'xx'
p10
aS'nzcr'
p11
aS'funtyp'
p12
aS'lab'
p13
aS'ipar'
p14
aS'x'
p15
aS'z'
p16
aS'nmode'
p17
aS'function_name'
p18
atp19
Rp20
.(dp0
S'model.dstate'
p1
S'vector'
p2
sS'model.sim'
p3
g2
sS'arg1'
p4
S'object'
p5
sS'graphics'
p6
g5
sS'model.evtout'
p7
g2
sS'this.function_name'
p8
S'string'
p9
sS'model.dep_ut'
p10
g2
sS'model.out'
p11
S'double'
p12
sS'model.in1'
p13
g12
sS'model.nzcross'
p14
NsS'this.rpar'
p15
g2
sS'this.xx'
p16
g2
sS'label'
p17
S'matrix'
p18
sS'model.evtin'
p19
g2
sS'this.ci'
p20
g12
sS'model.firing'
p21
g2
sS'this.co'
p22
g12
sS'this.x'
p23
g12
sS'this.ipar'
p24
g12
sS'this.z'
p25
g2
sS'arg1.graphics'
p26
g5
sS'model.nmode'
p27
NsS'model.rpar'
p28
g2
sS'this.i'
p29
g12
sS'model.state'
p30
g2
sS'this.o'
p31
g12
sS'model.ipar'
p32
g2
sS'typ'
p33
g2
sS'needcompile'
p34
g12
sS'[model,graphics,ok]'
p35
g12
sS'arg1.model'
p36
NsS'label[9-1]'
p37
g2
sS'ok'
p38
S'boolean'
p39
sS'model.blocktype'
p40
g9
sS'this.dept'
p41
g39
sS'this.depu'
p42
g39
sS'gr_i'
p43
g2
sS'graphics.exprs'
p44
NsS'this.funtyp'
p45
g12
sS'y'
p46
g2
sS'model'
p47
g5
sS'dep_ut'
p48
g2
s.