c__builtin__
set
p0
((lp1
S'ci'
p2
aS'nzcr'
p3
aS'co'
p4
aS'dept'
p5
aS'i'
p6
aS'auto0'
p7
aS'o'
p8
aS'rpar'
p9
aS'depu'
p10
aS'exprs'
p11
aS'xx'
p12
aS'gr_i'
p13
aS'funtyp'
p14
aS'lab'
p15
aS'ipar'
p16
aS'graphics'
p17
aS'x'
p18
aS'model'
p19
aS'z'
p20
aS'nmode'
p21
aS'function_name'
p22
atp23
Rp24
.(dp0
S'ci'
p1
S'double'
p2
sS'co'
p3
g2
sS'arg1'
p4
S'object'
p5
sS'graphics.exprs'
p6
NsS'rpar'
p7
S'vector'
p8
sS'xx'
p9
g8
sS'funtyp'
p10
g2
sS'model.dep_ut'
p11
g8
sS'model.out'
p12
g2
sS'model.dstate'
p13
g8
sS'model.nzcross'
p14
NsS'label'
p15
S'matrix'
p16
sS'model.evtin'
p17
g8
sS'model.firing'
p18
g8
sS'function_name'
p19
S'string'
p20
sS'model.sim'
p21
S'list'
p22
sS'model.evtout'
p23
g8
sS'arg1.graphics'
p24
g5
sS'model.nmode'
p25
NsS'model.rpar'
p26
g8
sS'model.state'
p27
g8
sS'model.in'
p28
g2
sS'graphics'
p29
g5
sS'model.ipar'
p30
g8
sS'typ'
p31
g8
sS'needcompile'
p32
g2
sS'arg1.model'
p33
NsS'label[9-1]'
p34
g8
sS'ok'
p35
S'boolean'
p36
sS'model.blocktype'
p37
g20
sS'i'
p38
g2
sS'o'
p39
g2
sS'depu'
p40
g36
sS'dept'
p41
g36
sS'gr_i'
p42
g8
sS'ipar'
p43
g2
sS'y'
p44
g8
sS'x'
p45
g5
sS'model'
p46
g5
sS'z'
p47
g8
sS'dep_ut'
p48
g8
s.