c__builtin__
set
p0
((lp1
S'ci'
p2
aS'co'
p3
aS'it'
p4
aS'rpar'
p5
aS'auto0'
p6
aS'funtyp'
p7
aS'out'
p8
aS'dept'
p9
aS'type'
p10
aS'function_name'
p11
aS'in1'
p12
aS'lab'
p13
aS'graphics'
p14
aS'nmode'
p15
aS'z'
p16
aS'xx'
p17
aS'nzcr'
p18
aS'depu'
p19
aS'exprs'
p20
aS'gr_i'
p21
aS'opar'
p22
aS'oz'
p23
aS'ipar'
p24
aS'x'
p25
aS'model'
p26
aS'ot'
p27
atp28
Rp29
.(dp0
S'model.odstate'
p1
NsS'ci'
p2
S'double'
p3
sS'co'
p4
g3
sS'arg1'
p5
S'object'
p6
sS'graphics.exprs'
p7
NsS'rpar'
p8
S'vector'
p9
sS'xx'
p10
g9
sS'model.intyp'
p11
g3
sS'funtyp'
p12
g3
sS'model.out'
p13
g3
sS'model.dstate'
p14
g9
sS'model.in2'
p15
g3
sS'model.in1'
p16
g3
sS'model.nzcross'
p17
NsS'label'
p18
S'matrix'
p19
sS'model.firing'
p20
NsS'function_name'
p21
S'string'
p22
sS'model.sim'
p23
S'list'
p24
sS'arg1.graphics'
p25
g6
sS'model.out2'
p26
g3
sS'model.nmode'
p27
NsS'model.rpar'
p28
g9
sS'model.outtyp'
p29
g3
sS'model.state'
p30
g9
sS'graphics'
p31
g6
sS'model.ipar'
p32
g3
sS'typ'
p33
g9
sS'model.opar'
p34
NsS'needcompile'
p35
g3
sS'arg1.model'
p36
NsS'label[9-1]'
p37
g9
sS'ok'
p38
S'boolean'
p39
sS'model.dep_ut'
p40
g9
sS'depu'
p41
g39
sS'dept'
p42
g39
sS'gr_i'
p43
g9
sS'ipar'
p44
g3
sS'y'
p45
g9
sS'x'
p46
g3
sS'model'
p47
g6
sS'z'
p48
g9
sS'dep_ut'
p49
g9
s.