c__builtin__
set
p0
((lp1
S'ci'
p2
aS'co'
p3
aS'it'
p4
aS'rpar'
p5
aS'auto0'
p6
aS'funtyp'
p7
aS'out'
p8
aS'type'
p9
aS'function_name'
p10
aS'in1'
p11
aS'lab'
p12
aS'nmode'
p13
aS'z'
p14
aS'xx'
p15
aS'nzcr'
p16
aS'depu'
p17
aS'dept'
p18
aS'opar'
p19
aS'oz'
p20
aS'ipar'
p21
aS'x'
p22
aS'model'
p23
aS'ot'
p24
atp25
Rp26
.(dp0
S'model.odstate'
p1
NsS'ci'
p2
S'double'
p3
sS'co'
p4
g3
sS'arg1'
p5
S'object'
p6
sS'graphics.exprs'
p7
NsS'rpar'
p8
S'vector'
p9
sS'xx'
p10
g9
sS'model.intyp'
p11
g3
sS'funtyp'
p12
g3
sS'model.out'
p13
g3
sS'model.dstate'
p14
g9
sS'model.in2'
p15
g3
sS'model.in1'
p16
g3
sS'model.nzcross'
p17
NsS'label'
p18
S'matrix'
p19
sS'model.firing'
p20
NsS'function_name'
p21
S'string'
p22
sS'model.sim'
p23
S'list'
p24
sS'arg1.graphics'
p25
g6
sS'[this.model,graphics,ok]'
p26
g3
sS'model.out2'
p27
g3
sS'model.nmode'
p28
NsS'model.rpar'
p29
g9
sS'model.outtyp'
p30
g3
sS'model.state'
p31
g9
sS'graphics'
p32
g6
sS'model.ipar'
p33
g3
sS'typ'
p34
g9
sS'model.opar'
p35
NsS'needcompile'
p36
g3
sS'arg1.model'
p37
NsS'label[9-1]'
p38
g9
sS'ok'
p39
S'boolean'
p40
sS'model.dep_ut'
p41
g9
sS'depu'
p42
g40
sS'dept'
p43
g40
sS'gr_i'
p44
g9
sS'ipar'
p45
g3
sS'y'
p46
g9
sS'x'
p47
g3
sS'model'
p48
g6
sS'z'
p49
g9
sS'dep_ut'
p50
g9
s.