c__builtin__
set
p0
((lp1
S'low_lim'
p2
aS'out_low'
p3
aS'nzz'
p4
aS'graphics'
p5
aS'out_high'
p6
aS'high_lim'
p7
aS'x'
p8
aS'model'
p9
atp10
Rp11
.(dp0
S'arg1'
p1
S'object'
p2
sS'graphics'
p3
g2
sS'rpar'
p4
S'matrix'
p5
sS'x.model'
p6
NsS'model.out'
p7
S'double'
p8
sS'x.graphics'
p9
g2
sS'typ'
p10
S'vector'
p11
sS'model.sim'
p12
S'list'
p13
sS'in1'
p14
g8
sS'model.rpar'
p15
g5
sS'model.nmode'
p16
g8
sS'model.in'
p17
g8
sS'graphics.exprs'
p18
NsS'model.nzcross'
p19
g8
sS'model.blocktype'
p20
S'string'
p21
sS'nzz'
p22
g8
sS'model.dep_ut'
p23
S'vector_boolean'
p24
sS'exprs'
p25
g5
sS'gr_i'
p26
g11
sS'ipar'
p27
g11
sS'y'
p28
g11
sS'x'
p29
NsS'model'
p30
g2
s.