c__builtin__
set
p0
((lp1
S'low_lim'
p2
aS'out_low'
p3
aS'nzz'
p4
aS'out_high'
p5
aS'high_lim'
p6
aS'x'
p7
atp8
Rp9
.(dp0
S'arg1'
p1
S'object'
p2
sS'graphics'
p3
g2
sS'rpar'
p4
S'matrix'
p5
sS'x.model'
p6
NsS'model.out'
p7
S'double'
p8
sS'model.in1'
p9
g8
sS'x.graphics'
p10
g2
sS'typ'
p11
S'vector'
p12
sS'model.sim'
p13
g12
sS'model.nmode'
p14
g8
sS'model.rpar'
p15
g5
sS'in1'
p16
g8
sS'graphics.exprs'
p17
NsS'model.nzcross'
p18
g8
sS'model.blocktype'
p19
S'string'
p20
sS'nzz'
p21
g8
sS'model.dep_ut'
p22
g12
sS'exprs'
p23
g5
sS'gr_i'
p24
g12
sS'ipar'
p25
g12
sS'y'
p26
g12
sS'x'
p27
g8
sS'model'
p28
g2
s.