c__builtin__
set
p0
((lp1
S'low_lim'
p2
aS'out_low'
p3
aS'nzz'
p4
aS'out_high'
p5
aS'high_lim'
p6
aS'x'
p7
atp8
Rp9
.(dp0
S'arg1'
p1
S'object'
p2
sS'graphics'
p3
g2
sS'typ'
p4
S'vector'
p5
sS'rpar'
p6
S'matrix'
p7
sS'this.x.model'
p8
NsS'model.out'
p9
S'double'
p10
sS'model.in1'
p11
g10
sS'model.nzcross'
p12
NsS'this.x'
p13
g10
sS'model.sim'
p14
g5
sS'model.nmode'
p15
g10
sS'model.rpar'
p16
g7
sS'in1'
p17
g10
sS'graphics.exprs'
p18
NsS'this.x.graphics'
p19
g2
sS'model.blocktype'
p20
S'string'
p21
sS'this.nzz'
p22
g10
sS'model.dep_ut'
p23
g5
sS'exprs'
p24
g7
sS'gr_i'
p25
g5
sS'ipar'
p26
g5
sS'y'
p27
g5
sS'model'
p28
g10
s.