c__builtin__
set
p0
((lp1
S'low_lim'
p2
aS'out_low'
p3
aS'nzz'
p4
aS'out_high'
p5
aS'high_lim'
p6
aS'x'
p7
atp8
Rp9
.c__builtin__
set
p0
((lp1
tp2
Rp3
.c__builtin__
set
p0
((lp1
tp2
Rp3
.c__builtin__
set
p0
((lp1
tp2
Rp3
.c__builtin__
set
p0
((lp1
tp2
Rp3
.c__builtin__
set
p0
((lp1
tp2
Rp3
.