c__builtin__
set
p0
((lp1
S'out_low'
p2
aS'low_lim'
p3
aS'out_high'
p4
aS'nzz'
p5
aS'graphics'
p6
aS'exprs'
p7
aS'gr_i'
p8
aS'high_lim'
p9
aS'x'
p10
aS'model'
p11
atp12
Rp13
.(dp0
S'arg1'
p1
S'object'
p2
sS'graphics'
p3
g2
sS'rpar'
p4
S'matrix'
p5
sS'x.model'
p6
NsS'model.out'
p7
S'double'
p8
sS'x.graphics'
p9
g2
sS'typ'
p10
S'vector'
p11
sS'model.sim'
p12
S'list'
p13
sS'in1'
p14
g8
sS'model.rpar'
p15
g5
sS'model.nmode'
p16
g8
sS'model.in'
p17
g8
sS'graphics.exprs'
p18
NsS'model.nzcross'
p19
g8
sS'model.blocktype'
p20
S'string'
p21
sS'nzz'
p22
g8
sS'model.dep_ut'
p23
g11
sS'exprs'
p24
g5
sS'gr_i'
p25
g11
sS'ipar'
p26
g11
sS'y'
p27
g11
sS'x'
p28
NsS'model'
p29
g2
s.