c__builtin__
set
p0
((lp1
S'low_lim'
p2
aS'out_low'
p3
aS'nzz'
p4
aS'graphics'
p5
aS'out_high'
p6
aS'high_lim'
p7
aS'x'
p8
aS'model'
p9
atp10
Rp11
.(dp0
S'graphics.exprs'
p1
NsS'rpar'
p2
S'matrix'
p3
sS'x.model'
p4
NsS'model.out'
p5
S'double'
p6
sS'x.graphics'
p7
S'object'
p8
sS'typ'
p9
S'vector'
p10
sS'model.sim'
p11
S'list'
p12
sS'in1'
p13
g6
sS'model.rpar'
p14
g3
sS'model.nmode'
p15
g6
sS'model.in'
p16
g6
sS'graphics'
p17
g8
sS'model.nzcross'
p18
g6
sS'model.blocktype'
p19
S'string'
p20
sS'nzz'
p21
g6
sS'model.dep_ut'
p22
S'vector_boolean'
p23
sS'exprs'
p24
g3
sS'gr_i'
p25
g10
sS'ipar'
p26
g10
sS'y'
p27
g10
sS'x'
p28
g10
sS'model'
p29
g8
s.