c__builtin__
set
p0
((lp1
S'x'
p2
atp3
Rp4
.(dp0
S'model.sim'
p1
S'string'
p2
sS'model.in1'
p3
S'double'
p4
sS'model.equations'
p5
g4
sS'x.graphics.out_implicit'
p6
S'vector'
p7
sS'mo'
p8
S'object'
p9
sS'mo.inputs'
p10
g2
sS'mo.model'
p11
g2
sS'model.out'
p12
g4
sS'x.graphics.in_implicit'
p13
g7
sS'y'
p14
g7
sS'x'
p15
g4
sS'model'
p16
g9
sS'typ'
p17
g7
sS'mo.outputs'
p18
S'matrix'
p19
s.