c__builtin__
set
p0
((lp1
S'x'
p2
aS'model'
p3
aS'graphics'
p4
atp5
Rp6
.(dp0
S'model.sim'
p1
S'string'
p2
sS'model.equations'
p3
S'double'
p4
sS'x.graphics.out_implicit'
p5
S'vector_string'
p6
sS'mo'
p7
S'object'
p8
sS'mo.inputs'
p9
g2
sS'mo.model'
p10
g2
sS'model.out'
p11
g4
sS'x.graphics.in_implicit'
p12
g6
sS'model.in'
p13
g4
sS'y'
p14
S'vector'
p15
sS'x'
p16
NsS'model'
p17
g8
sS'typ'
p18
g15
sS'mo.outputs'
p19
S'matrix'
p20
s.