c__builtin__
set
p0
((lp1
S'x'
p2
aS'model'
p3
aS'gr_i'
p4
aS'exprs'
p5
aS'graphics'
p6
atp7
Rp8
.(dp0
S'model.sim'
p1
S'string'
p2
sS'model.equations'
p3
S'double'
p4
sS'x.graphics.out_implicit'
p5
S'vector'
p6
sS'mo'
p7
S'object'
p8
sS'mo.inputs'
p9
g2
sS'mo.model'
p10
g2
sS'model.out'
p11
g4
sS'x.graphics.in_implicit'
p12
g6
sS'model.in'
p13
g4
sS'y'
p14
g6
sS'x'
p15
NsS'model'
p16
g8
sS'typ'
p17
g6
sS'mo.outputs'
p18
S'matrix'
p19
s.