c__builtin__
set
p0
((lp1
S'x'
p2
atp3
Rp4
.(dp0
S'this.x'
p1
S'double'
p2
sS'model.sim'
p3
S'string'
p4
sS'model.in1'
p5
g2
sS'model.equations'
p6
g2
sS'this.x.graphics.out_implicit'
p7
S'vector'
p8
sS'mo'
p9
S'object'
p10
sS'mo.inputs'
p11
g4
sS'mo.model'
p12
g4
sS'model.out'
p13
g2
sS'y'
p14
g8
sS'model'
p15
g10
sS'this.x.graphics.in_implicit'
p16
g8
sS'typ'
p17
g8
sS'mo.outputs'
p18
S'matrix'
p19
s.