c__builtin__
set
p0
((lp1
S'nin'
p2
aS'Datatype'
p3
aS'rule'
p4
aS'exprs'
p5
aS'gr_i'
p6
aS'tp'
p7
aS'graphics'
p8
aS'x'
p9
aS'model'
p10
atp11
Rp12
.(dp0
S'arg1'
p1
S'object'
p2
sS'graphics'
p3
g2
sS'it'
p4
S'string'
p5
sS'x.model'
p6
NsS'model.dep_ut'
p7
S'vector_boolean'
p8
sS'model.out'
p9
S'double'
p10
sS'out'
p11
S'vector'
p12
sS'graphics.style'
p13
g12
sS'x.graphics'
p14
g2
sS'tp'
p15
g10
sS'label'
p16
g5
sS'model.sim'
p17
S'list'
p18
sS'nin'
p19
g10
sS'in1'
p20
S'matrix'
p21
sS'model.in'
p22
g21
sS'graphics.exprs'
p23
g21
sS'model.ipar'
p24
g12
sS'typ'
p25
g12
sS'ok'
p26
S'boolean'
p27
sS'model.blocktype'
p28
g5
sS'rule'
p29
g10
sS'exprs'
p30
g21
sS'gr_i'
p31
g12
sS'ipar'
p32
g12
sS'y'
p33
g12
sS'x'
p34
NsS'model'
p35
g2
sS'ot'
p36
Ns.