c__builtin__
set
p0
((lp1
S'nin'
p2
aS'Datatype'
p3
aS'rule'
p4
aS'exprs'
p5
aS'gr_i'
p6
aS'tp'
p7
aS'graphics'
p8
aS'x'
p9
aS'model'
p10
atp11
Rp12
.(dp0
S'arg1'
p1
S'object'
p2
sS'graphics'
p3
g2
sS'it'
p4
S'string'
p5
sS'x.model'
p6
NsS'model.dep_ut'
p7
S'vector_boolean'
p8
sS'model.out'
p9
S'double'
p10
sS'out'
p11
S'vector'
p12
sS'graphics.style'
p13
S'vector_string'
p14
sS'x.graphics'
p15
g2
sS'tp'
p16
g10
sS'label'
p17
g5
sS'model.sim'
p18
S'list'
p19
sS'nin'
p20
g10
sS'in1'
p21
S'matrix'
p22
sS'model.in'
p23
g22
sS'graphics.exprs'
p24
g22
sS'model.ipar'
p25
g12
sS'typ'
p26
g12
sS'ok'
p27
S'boolean'
p28
sS'model.blocktype'
p29
g5
sS'rule'
p30
g10
sS'exprs'
p31
g22
sS'gr_i'
p32
g12
sS'ipar'
p33
g12
sS'y'
p34
g12
sS'x'
p35
NsS'model'
p36
g2
sS'ot'
p37
Ns.