c__builtin__
set
p0
((lp1
S'nin'
p2
aS'Datatype'
p3
aS'rule'
p4
aS'exprs'
p5
aS'gr_i'
p6
aS'tp'
p7
aS'graphics'
p8
aS'x'
p9
aS'model'
p10
atp11
Rp12
.(dp0
S'arg1'
p1
S'object'
p2
sS'graphics'
p3
g2
sS'it'
p4
S'string'
p5
sS'x.model'
p6
NsS'model.dep_ut'
p7
S'vector'
p8
sS'model.out'
p9
S'double'
p10
sS'out'
p11
g8
sS'graphics.style'
p12
g8
sS'x.graphics'
p13
g2
sS'tp'
p14
g10
sS'label'
p15
g5
sS'model.sim'
p16
S'list'
p17
sS'nin'
p18
g10
sS'in1'
p19
S'matrix'
p20
sS'model.in'
p21
g20
sS'graphics.exprs'
p22
g20
sS'model.ipar'
p23
g8
sS'typ'
p24
g8
sS'ok'
p25
S'boolean'
p26
sS'model.blocktype'
p27
g5
sS'rule'
p28
g10
sS'exprs'
p29
g20
sS'gr_i'
p30
g8
sS'ipar'
p31
g8
sS'y'
p32
g8
sS'x'
p33
g10
sS'model'
p34
g2
sS'ot'
p35
Ns.