c__builtin__
set
p0
((lp1
S'Datatype'
p2
aS'x'
p3
aS'nin'
p4
aS'tp'
p5
aS'rule'
p6
atp7
Rp8
.(dp0
S'arg1'
p1
S'object'
p2
sS'graphics'
p3
g2
sS'it'
p4
S'string'
p5
sS'this.x.model'
p6
NsS'model.out'
p7
S'double'
p8
sS'out'
p9
S'vector'
p10
sS'graphics.style'
p11
g10
sS'model.in1'
p12
S'matrix'
p13
sS'exprs'
p14
g13
sS'this.tp'
p15
g8
sS'label'
p16
g5
sS'this.x'
p17
g8
sS'model.sim'
p18
g10
sS'in1'
p19
g13
sS'graphics.exprs'
p20
g13
sS'model.ipar'
p21
g10
sS'this.x.graphics'
p22
g2
sS'[model,graphics,ok]'
p23
g8
sS'ok'
p24
S'boolean'
p25
sS'model.blocktype'
p26
g5
sS'typ'
p27
g10
sS'this.nin'
p28
g8
sS'model.dep_ut'
p29
g10
sS'this.rule'
p30
g8
sS'gr_i'
p31
g10
sS'ipar'
p32
g10
sS'y'
p33
g10
sS'model'
p34
g2
sS'ot'
p35
Ns.