c__builtin__
set
p0
((lp1
S'nin'
p2
aS'Datatype'
p3
aS'tp'
p4
aS'rule'
p5
aS'x'
p6
aS'model'
p7
atp8
Rp9
.(dp0
S'arg1'
p1
S'object'
p2
sS'graphics'
p3
g2
sS'it'
p4
S'string'
p5
sS'x.model'
p6
NsS'model.dep_ut'
p7
S'vector'
p8
sS'model.out'
p9
S'double'
p10
sS'out'
p11
g8
sS'graphics.style'
p12
g8
sS'model.in1'
p13
S'matrix'
p14
sS'x.graphics'
p15
g2
sS'tp'
p16
g10
sS'label'
p17
g5
sS'model.sim'
p18
S'list'
p19
sS'nin'
p20
g10
sS'in1'
p21
g14
sS'graphics.exprs'
p22
g14
sS'model.ipar'
p23
g8
sS'typ'
p24
g8
sS'ok'
p25
S'boolean'
p26
sS'model.blocktype'
p27
g5
sS'rule'
p28
g10
sS'exprs'
p29
g14
sS'gr_i'
p30
g8
sS'ipar'
p31
g8
sS'y'
p32
g8
sS'x'
p33
g10
sS'model'
p34
g2
sS'ot'
p35
Ns.