c__builtin__
set
p0
((lp1
S'nin'
p2
aS'Datatype'
p3
aS'rule'
p4
aS'tp'
p5
aS'graphics'
p6
aS'x'
p7
aS'model'
p8
atp9
Rp10
.(dp0
S'graphics'
p1
S'object'
p2
sS'it'
p3
S'string'
p4
sS'x.model'
p5
NsS'model.dep_ut'
p6
S'vector_boolean'
p7
sS'model.out'
p8
S'double'
p9
sS'out'
p10
S'vector'
p11
sS'graphics.style'
p12
S'vector_string'
p13
sS'x.graphics'
p14
g2
sS'tp'
p15
g9
sS'label'
p16
g4
sS'model.sim'
p17
S'list'
p18
sS'nin'
p19
g9
sS'in1'
p20
S'matrix'
p21
sS'model.in'
p22
g21
sS'graphics.exprs'
p23
g21
sS'model.ipar'
p24
g11
sS'typ'
p25
g11
sS'ok'
p26
S'boolean'
p27
sS'model.blocktype'
p28
g4
sS'rule'
p29
g9
sS'exprs'
p30
g21
sS'gr_i'
p31
g11
sS'ipar'
p32
g11
sS'y'
p33
g11
sS'x'
p34
g11
sS'model'
p35
g2
sS'ot'
p36
Ns.