c__builtin__
set
p0
((lp1
S'Touttype'
p2
aS'lab_1'
p3
aS'Tparam'
p4
aS'intype'
p5
aS'in1'
p6
aS'Tin'
p7
aS'outtype'
p8
aS'Tout'
p9
aS'pprop'
p10
aS'funam'
p11
aS'x'
p12
aS'model'
p13
aS'out'
p14
aS'type'
p15
aS'Tintype'
p16
aS'Tfunam'
p17
atp18
Rp19
.(dp0
S'rhs_txt'
p1
S'string'
p2
sS'model.sim'
p3
S'list'
p4
sS'arg1'
p5
S'object'
p6
sS'graphics.gr_i[1-1][1-1]'
p7
g2
sS'graphics.exprs'
p8
g6
sS'outtypex'
p9
S'double'
p10
sS'mo.model'
p11
g2
sS'ierr'
p12
g10
sS'exprs.paramv[i-1]'
p13
g10
sS'lab_2_tmp'
p14
g4
sS'x.model'
p15
g6
sS'exprs.outtype'
p16
g10
sS'exprs.intype'
p17
g10
sS'exprs.nameF'
p18
g10
sS'exprs.funtxt'
p19
S'vector'
p20
sS'graphics.out_implicit'
p21
NsS'out'
p22
S'matrix'
p23
sS'nameF'
p24
g2
sS'lab_2_tmp[i-1]'
p25
g10
sS'exprs.pprop'
p26
g10
sS'Tparam_lab'
p27
g10
sS'exprs.out'
p28
g10
sS'graphics.in_implicit'
p29
NsS'typ'
p30
g20
sS'getvalue_txt'
p31
g2
sS'mo.inputs'
p32
g20
sS'param'
p33
g23
sS'paramv'
p34
g4
sS'gr_i'
p35
g20
sS'x.graphics.in_implicit'
p36
g20
sS'model.sim[1]'
p37
NsS'mo.parameters'
p38
g4
sS'Tparam_sz'
p39
g10
sS'pprop'
p40
g23
sS'model.out'
p41
g10
sS'exprs.in1'
p42
g10
sS'model.equations'
p43
g6
sS'mo.outputs'
p44
g23
sS'intype'
p45
g20
sS'x.graphics.out_implicit'
p46
g23
sS'in1'
p47
g20
sS'model.rpar'
p48
g23
sS'model.in1'
p49
g10
sS'lhs_txt'
p50
g2
sS'outtype'
p51
g23
sS'graphics'
p52
g6
sS'intypex'
p53
g10
sS'lab_1'
p54
g4
sS'lab_2'
p55
NsS'paramv[$+1-1]'
p56
g2
sS'ok'
p57
S'boolean'
p58
sS'model.blocktype'
p59
g2
sS'exprs.param'
p60
g10
sS'mo'
p61
g6
sS'x.graphics'
p62
g6
sS'pprop[$+1-1]'
p63
g10
sS'model.dep_ut'
p64
g20
sS'exprs.paramv'
p65
g4
sS'exprs'
p66
g10
sS'lab_2[$+1-1]'
p67
g2
sS'r'
p68
g58
sS'lab_txt'
p69
g2
sS'y'
p70
g20
sS'x'
p71
g10
sS'model'
p72
g6
sS'tt'
p73
g20
s.