c__builtin__
set
p0
((lp1
S'Touttype'
p2
aS'lab_1'
p3
aS'outtype'
p4
aS'Tparam'
p5
aS'intype'
p6
aS'in1'
p7
aS'exprs'
p8
aS'Tin'
p9
aS'gr_i'
p10
aS'Tout'
p11
aS'pprop'
p12
aS'graphics'
p13
aS'funam'
p14
aS'x'
p15
aS'model'
p16
aS'out'
p17
aS'type'
p18
aS'Tintype'
p19
aS'Tfunam'
p20
atp21
Rp22
.(dp0
S'rhs_txt'
p1
S'string'
p2
sS'arg1'
p3
S'object'
p4
sS'graphics.gr_i[1-1][1-1]'
p5
g2
sS'graphics.exprs'
p6
g4
sS'outtypex'
p7
S'double'
p8
sS'mo.model'
p9
g2
sS'ierr'
p10
g8
sS'exprs.paramv[i-1]'
p11
g8
sS'lab_2_tmp'
p12
S'list'
p13
sS'x.model'
p14
g4
sS'exprs.outtype'
p15
g8
sS'exprs.intype'
p16
g8
sS'exprs.nameF'
p17
g8
sS'exprs.in'
p18
g8
sS'graphics.out_implicit'
p19
NsS'out'
p20
S'matrix'
p21
sS'nameF'
p22
g2
sS'lab_2_tmp[i-1]'
p23
g8
sS'exprs.pprop'
p24
g8
sS'Tparam_lab'
p25
g8
sS'exprs.out'
p26
g8
sS'graphics.in_implicit'
p27
NsS'typ'
p28
S'vector'
p29
sS'getvalue_txt'
p30
g2
sS'mo.inputs'
p31
S'vector_string'
p32
sS'param'
p33
g21
sS'gr_i'
p34
g29
sS'paramv'
p35
g13
sS'exprs.funtxt'
p36
g29
sS'x.graphics.in_implicit'
p37
g32
sS'mo.parameters'
p38
g13
sS'Tparam_sz'
p39
g8
sS'pprop'
p40
g21
sS'model.out'
p41
g8
sS'model.sim'
p42
g13
sS'model.equations'
p43
g4
sS'mo.outputs'
p44
g21
sS'intype'
p45
g32
sS'x.graphics.out_implicit'
p46
g21
sS'in1'
p47
g32
sS'model.rpar'
p48
g21
sS'lhs_txt'
p49
g2
sS'outtype'
p50
g21
sS'model.in'
p51
g8
sS'graphics'
p52
g4
sS'intypex'
p53
g8
sS'lab_1'
p54
g13
sS'lab_2'
p55
NsS'paramv[$+1-1]'
p56
g2
sS'ok'
p57
S'boolean'
p58
sS'model.blocktype'
p59
g2
sS'exprs.param'
p60
g8
sS'model.sim[1-1]'
p61
NsS'mo'
p62
g4
sS'x.graphics'
p63
g4
sS'pprop[$+1-1]'
p64
g8
sS'model.dep_ut'
p65
S'vector_boolean'
p66
sS'exprs.paramv'
p67
g13
sS'exprs'
p68
g8
sS'lab_2[$+1-1]'
p69
g2
sS'r'
p70
g58
sS'lab_txt'
p71
g2
sS'y'
p72
g29
sS'x'
p73
NsS'model'
p74
g4
sS'tt'
p75
g29
s.