c__builtin__
set
p0
((lp1
S'Touttype'
p2
aS'lab_1'
p3
aS'Tparam'
p4
aS'intype'
p5
aS'in1'
p6
aS'Tin'
p7
aS'outtype'
p8
aS'Tout'
p9
aS'pprop'
p10
aS'funam'
p11
aS'x'
p12
aS'model'
p13
aS'out'
p14
aS'type'
p15
aS'Tintype'
p16
aS'Tfunam'
p17
atp18
Rp19
.(dp0
S'rhs_txt'
p1
S'string'
p2
sS'graphics.out_implicit'
p3
NsS'model.sim'
p4
S'list'
p5
sS'arg1'
p6
S'object'
p7
sS'graphics.gr_i[1-1][1-1]'
p8
g2
sS'graphics.exprs'
p9
g7
sS'outtypex'
p10
S'double'
p11
sS'mo.model'
p12
g2
sS'ierr'
p13
g11
sS'exprs.paramv[i-1]'
p14
g11
sS'lab_2_tmp'
p15
g5
sS"model.sim[('1', 'double')]"
p16
NsS'exprs.outtype'
p17
g11
sS'exprs.intype'
p18
g11
sS'exprs.nameF'
p19
g11
sS'exprs.funtxt'
p20
S'vector'
p21
sS'[dirF,nameF,extF]'
p22
g11
sS'out'
p23
S'matrix'
p24
sS'nameF'
p25
g2
sS'lab_2_tmp[i-1]'
p26
g11
sS'exprs.pprop'
p27
g11
sS'Tparam_lab'
p28
g11
sS'exprs.out'
p29
g11
sS'graphics.in_implicit'
p30
NsS'typ'
p31
g21
sS'getvalue_txt'
p32
g2
sS'mo.inputs'
p33
g21
sS'param'
p34
g24
sS'paramv'
p35
g5
sS'gr_i'
p36
g21
sS'x.graphics.in_implicit'
p37
g21
sS'x.model'
p38
g7
sS'[ok,tt]'
p39
g11
sS'mo.parameters'
p40
g5
sS'Tparam_sz'
p41
g11
sS'pprop'
p42
g24
sS'model.out'
p43
g11
sS'exprs.in1'
p44
g11
sS'model.equations'
p45
g7
sS'mo.outputs'
p46
g24
sS'intype'
p47
g21
sS'x.graphics.out_implicit'
p48
g24
sS'in1'
p49
g21
sS'model.rpar'
p50
g24
sS'model.in1'
p51
g11
sS'lhs_txt'
p52
g2
sS'outtype'
p53
g24
sS'graphics'
p54
g7
sS'intypex'
p55
g11
sS'lab_1'
p56
g5
sS'lab_2'
p57
NsS'paramv[$+1-1]'
p58
g2
sS'[model,graphics,ok]'
p59
g11
sS'ok'
p60
S'boolean'
p61
sS'model.blocktype'
p62
g2
sS'exprs.param'
p63
g11
sS'mo'
p64
g7
sS'x.graphics'
p65
g7
sS'pprop[$+1-1]'
p66
g11
sS'model.dep_ut'
p67
g21
sS'exprs.paramv'
p68
g5
sS'exprs'
p69
g11
sS'lab_2[$+1-1]'
p70
g2
sS'r'
p71
g61
sS'lab_txt'
p72
g2
sS'y'
p73
g21
sS'x'
p74
g11
sS'model'
p75
g7
sS'tt'
p76
g21
s.