c__builtin__
set
p0
((lp1
S'Touttype'
p2
aS'lab_1'
p3
aS'Tparam'
p4
aS'intype'
p5
aS'in1'
p6
aS'Tin'
p7
aS'outtype'
p8
aS'Tout'
p9
aS'pprop'
p10
aS'funam'
p11
aS'x'
p12
aS'out'
p13
aS'type'
p14
aS'Tintype'
p15
aS'Tfunam'
p16
atp17
Rp18
.