c__builtin__
set
p0
((lp1
S'Touttype'
p2
aS'lab_1'
p3
aS'outtype'
p4
aS'Tparam'
p5
aS'intype'
p6
aS'in1'
p7
aS'exprs'
p8
aS'Tin'
p9
aS'gr_i'
p10
aS'Tout'
p11
aS'pprop'
p12
aS'graphics'
p13
aS'funam'
p14
aS'x'
p15
aS'model'
p16
aS'out'
p17
aS'type'
p18
aS'Tintype'
p19
aS'Tfunam'
p20
atp21
Rp22
.(dp0
S'rhs_txt'
p1
S'string'
p2
sS'arg1'
p3
S'object'
p4
sS'graphics.gr_i[1-1][1-1]'
p5
g2
sS'graphics.exprs'
p6
g4
sS'outtypex'
p7
S'double'
p8
sS'mo.model'
p9
g2
sS'ierr'
p10
g8
sS'exprs.paramv[i-1]'
p11
g8
sS'lab_2_tmp'
p12
S'list'
p13
sS'x.model'
p14
g4
sS'exprs.outtype'
p15
g8
sS'exprs.intype'
p16
g8
sS'exprs.nameF'
p17
g8
sS'exprs.in'
p18
g8
sS'graphics.out_implicit'
p19
NsS'out'
p20
S'matrix'
p21
sS'nameF'
p22
g2
sS'lab_2_tmp[i-1]'
p23
g8
sS'exprs.pprop'
p24
g8
sS'Tparam_lab'
p25
g8
sS'exprs.out'
p26
g8
sS'graphics.in_implicit'
p27
NsS'typ'
p28
S'vector'
p29
sS'getvalue_txt'
p30
g2
sS'mo.inputs'
p31
g29
sS'param'
p32
g21
sS'gr_i'
p33
g29
sS'paramv'
p34
g13
sS'exprs.funtxt'
p35
g29
sS'x.graphics.in_implicit'
p36
g29
sS'mo.parameters'
p37
g13
sS'Tparam_sz'
p38
g8
sS'pprop'
p39
g21
sS'model.out'
p40
g8
sS'model.sim'
p41
g13
sS'model.equations'
p42
g4
sS'mo.outputs'
p43
g21
sS'intype'
p44
g29
sS'x.graphics.out_implicit'
p45
g21
sS'in1'
p46
g29
sS'model.rpar'
p47
g21
sS'lhs_txt'
p48
g2
sS'outtype'
p49
g21
sS'model.in'
p50
g8
sS'graphics'
p51
g4
sS'intypex'
p52
g8
sS'lab_1'
p53
g13
sS'lab_2'
p54
NsS'paramv[$+1-1]'
p55
g2
sS'ok'
p56
S'boolean'
p57
sS'model.blocktype'
p58
g2
sS'exprs.param'
p59
g8
sS'model.sim[1-1]'
p60
NsS'mo'
p61
g4
sS'x.graphics'
p62
g4
sS'pprop[$+1-1]'
p63
g8
sS'model.dep_ut'
p64
S'vector_boolean'
p65
sS'exprs.paramv'
p66
g13
sS'exprs'
p67
g8
sS'lab_2[$+1-1]'
p68
g2
sS'r'
p69
g57
sS'lab_txt'
p70
g2
sS'y'
p71
g29
sS'x'
p72
NsS'model'
p73
g4
sS'tt'
p74
g29
s.