c__builtin__
set
p0
((lp1
S'Touttype'
p2
aS'Tparam'
p3
aS'intype'
p4
aS'in1'
p5
aS'Tin'
p6
aS'outtype'
p7
aS'Tout'
p8
aS'pprop'
p9
aS'graphics'
p10
aS'funam'
p11
aS'x'
p12
aS'model'
p13
aS'out'
p14
aS'Tintype'
p15
aS'Tfunam'
p16
atp17
Rp18
.(dp0
S'rhs_txt'
p1
S'string'
p2
sS'graphics.gr_i[1-1][1-1]'
p3
g2
sS'graphics.exprs'
p4
S'object'
p5
sS'outtypex'
p6
S'double'
p7
sS'mo.model'
p8
g2
sS'ierr'
p9
g7
sS'exprs.paramv[i-1]'
p10
g7
sS'lab_2_tmp'
p11
S'list'
p12
sS'x.model'
p13
g5
sS'exprs.outtype'
p14
g7
sS'exprs.intype'
p15
g7
sS'exprs.nameF'
p16
g7
sS'exprs.in'
p17
g7
sS'graphics.out_implicit'
p18
NsS'out'
p19
S'matrix'
p20
sS'nameF'
p21
g2
sS'lab_2_tmp[i-1]'
p22
g7
sS'exprs.pprop'
p23
g7
sS'Tparam_lab'
p24
g7
sS'in'
p25
S'vector_string'
p26
sS'exprs.out'
p27
g7
sS'graphics.in_implicit'
p28
NsS'typ'
p29
S'vector'
p30
sS'getvalue_txt'
p31
g2
sS'mo.inputs'
p32
NsS'param'
p33
g20
sS'gr_i'
p34
g30
sS'paramv'
p35
g12
sS'exprs.funtxt'
p36
g30
sS'x.graphics.in_implicit'
p37
g26
sS'mo.parameters'
p38
g12
sS'Tparam_sz'
p39
g7
sS'pprop'
p40
g20
sS'model.out'
p41
g7
sS'model.sim'
p42
g12
sS'model.equations'
p43
g5
sS'mo.outputs'
p44
g20
sS'intype'
p45
g26
sS'x.graphics.out_implicit'
p46
g20
sS'model.rpar'
p47
g20
sS'lhs_txt'
p48
g2
sS'outtype'
p49
g20
sS'model.in'
p50
g7
sS'graphics'
p51
g5
sS'intypex'
p52
g7
sS'lab_1'
p53
g12
sS'lab_2'
p54
NsS'paramv[$+1-1]'
p55
g2
sS'ok'
p56
S'boolean'
p57
sS'model.blocktype'
p58
g2
sS'exprs.param'
p59
g7
sS'model.sim[1-1]'
p60
NsS'mo'
p61
g5
sS'x.graphics'
p62
g5
sS'pprop[$+1-1]'
p63
g7
sS'model.dep_ut'
p64
S'vector_boolean'
p65
sS'exprs.paramv'
p66
g12
sS'exprs'
p67
g7
sS'lab_2[$+1-1]'
p68
g2
sS'r'
p69
g57
sS'lab_txt'
p70
g2
sS'y'
p71
g30
sS'x'
p72
g30
sS'model'
p73
g5
sS'tt'
p74
g30
s.