c__builtin__
set
p0
((lp1
S'Touttype'
p2
aS'lab_1'
p3
aS'Tparam'
p4
aS'intype'
p5
aS'in1'
p6
aS'Tin'
p7
aS'outtype'
p8
aS'Tout'
p9
aS'pprop'
p10
aS'funam'
p11
aS'x'
p12
aS'out'
p13
aS'type'
p14
aS'Tintype'
p15
aS'Tfunam'
p16
atp17
Rp18
.(dp0
S'rhs_txt'
p1
S'string'
p2
sS'graphics.out_implicit'
p3
NsS'model.sim'
p4
S'vector'
p5
sS'this.x.graphics'
p6
S'object'
p7
sS'arg1'
p8
g7
sS'graphics.gr_i[1-1][1-1]'
p9
g2
sS'this.x.model'
p10
g7
sS'outtypex'
p11
S'double'
p12
sS'mo.model'
p13
g2
sS'ierr'
p14
g12
sS'exprs.paramv[i-1]'
p15
g12
sS'lab_2_tmp'
p16
g5
sS'exprs.outtype'
p17
g12
sS'this.out'
p18
S'matrix'
p19
sS'exprs.intype'
p20
g12
sS'exprs.nameF'
p21
g12
sS'exprs.funtxt'
p22
g5
sS'[dirF,nameF,extF]'
p23
g12
sS'this.in1'
p24
g5
sS'nameF'
p25
g2
sS'lab_2_tmp[i-1]'
p26
g12
sS'exprs.pprop'
p27
g12
sS'Tparam_lab'
p28
g12
sS'exprs.out'
p29
g12
sS'graphics.in_implicit'
p30
NsS'typ'
p31
g5
sS'getvalue_txt'
p32
g2
sS'this.pprop'
p33
g19
sS'mo.inputs'
p34
NsS'param'
p35
g19
sS'paramv'
p36
g5
sS'gr_i'
p37
g5
sS'[ok,tt]'
p38
g12
sS'mo.parameters'
p39
g5
sS'Tparam_sz'
p40
g12
sS'this.x.graphics.out_implicit'
p41
NsS'pprop'
p42
g5
sS'model.out'
p43
g12
sS'this.x'
p44
g12
sS'exprs.in1'
p45
g12
sS'model.equations'
p46
g7
sS'mo.outputs'
p47
NsS'model.in1'
p48
g12
sS'model.rpar'
p49
g19
sS'lhs_txt'
p50
g2
sS'graphics'
p51
g7
sS'intypex'
p52
g12
sS'lab_1'
p53
g5
sS'this.outtype'
p54
g19
sS'lab_2'
p55
NsS'paramv[$+1-1]'
p56
g2
sS'[model,graphics,ok]'
p57
g12
sS'this.x.graphics.in_implicit'
p58
NsS'ok'
p59
S'boolean'
p60
sS'model.blocktype'
p61
g2
sS'exprs.param'
p62
g12
sS'this.intype'
p63
g5
sS'model.sim[1-1]'
p64
NsS'mo'
p65
g7
sS'pprop[$+1-1]'
p66
g12
sS'model.dep_ut'
p67
g5
sS'exprs.paramv'
p68
g5
sS'exprs'
p69
g12
sS'lab_2[$+1-1]'
p70
g2
sS'r'
p71
g60
sS'graphics.exprs'
p72
g7
sS'lab_txt'
p73
g2
sS'y'
p74
g5
sS'model'
p75
g7
sS'tt'
p76
g5
s.