c__builtin__
set
p0
((lp1
S'Touttype'
p2
aS'lab_1'
p3
aS'Tparam'
p4
aS'intype'
p5
aS'in1'
p6
aS'Tin'
p7
aS'outtype'
p8
aS'Tout'
p9
aS'pprop'
p10
aS'funam'
p11
aS'x'
p12
aS'model'
p13
aS'out'
p14
aS'type'
p15
aS'Tintype'
p16
aS'Tfunam'
p17
atp18
Rp19
.(dp0
S'rhs_txt'
p1
S'string'
p2
sS'graphics.out_implicit'
p3
NsS'model.sim'
p4
S'vector'
p5
sS'arg1'
p6
S'object'
p7
sS'graphics.gr_i[1-1][1-1]'
p8
g2
sS'graphics.exprs'
p9
g7
sS'outtypex'
p10
S'double'
p11
sS'mo.model'
p12
g2
sS'ierr'
p13
g11
sS'exprs.paramv[i-1]'
p14
g11
sS'lab_2_tmp'
p15
g5
sS"model.sim[('1', 'double')]"
p16
NsS'exprs.outtype'
p17
g11
sS'exprs.intype'
p18
g11
sS'exprs.nameF'
p19
g11
sS'exprs.funtxt'
p20
g5
sS'[dirF,nameF,extF]'
p21
g11
sS'out'
p22
S'matrix'
p23
sS'nameF'
p24
g2
sS'lab_2_tmp[i-1]'
p25
g11
sS'exprs.pprop'
p26
g11
sS'Tparam_lab'
p27
g11
sS'exprs.out'
p28
g11
sS'graphics.in_implicit'
p29
NsS'typ'
p30
g5
sS'getvalue_txt'
p31
g2
sS'mo.inputs'
p32
g5
sS'param'
p33
g23
sS'paramv'
p34
g5
sS'gr_i'
p35
g5
sS'x.graphics.in_implicit'
p36
g5
sS'x.model'
p37
g7
sS'[ok,tt]'
p38
g11
sS'mo.parameters'
p39
g5
sS'Tparam_sz'
p40
g11
sS'pprop'
p41
g23
sS'model.out'
p42
g11
sS'exprs.in1'
p43
g11
sS'model.equations'
p44
g7
sS'mo.outputs'
p45
g23
sS'intype'
p46
g5
sS'x.graphics.out_implicit'
p47
g23
sS'in1'
p48
g5
sS'model.rpar'
p49
g23
sS'model.in1'
p50
g11
sS'lhs_txt'
p51
g2
sS'outtype'
p52
g23
sS'graphics'
p53
g7
sS'intypex'
p54
g11
sS'lab_1'
p55
g5
sS'lab_2'
p56
NsS'paramv[$+1-1]'
p57
g2
sS'[model,graphics,ok]'
p58
g11
sS'ok'
p59
S'boolean'
p60
sS'model.blocktype'
p61
g2
sS'exprs.param'
p62
g11
sS'mo'
p63
g7
sS'x.graphics'
p64
g7
sS'pprop[$+1-1]'
p65
g11
sS'model.dep_ut'
p66
g5
sS'exprs.paramv'
p67
g5
sS'exprs'
p68
g11
sS'lab_2[$+1-1]'
p69
g2
sS'r'
p70
g60
sS'lab_txt'
p71
g2
sS'y'
p72
g5
sS'x'
p73
g11
sS'model'
p74
g7
sS'tt'
p75
g5
s.