c__builtin__
set
p0
((lp1
S'Touttype'
p2
aS'lab_1'
p3
aS'outtype'
p4
aS'Tparam'
p5
aS'intype'
p6
aS'in1'
p7
aS'exprs'
p8
aS'Tin'
p9
aS'gr_i'
p10
aS'Tout'
p11
aS'pprop'
p12
aS'graphics'
p13
aS'funam'
p14
aS'x'
p15
aS'model'
p16
aS'out'
p17
aS'type'
p18
aS'Tintype'
p19
aS'Tfunam'
p20
atp21
Rp22
.(dp0
S'rhs_txt'
p1
S'string'
p2
sS'model.sim'
p3
S'list'
p4
sS'arg1'
p5
S'object'
p6
sS'graphics.gr_i[1-1][1-1]'
p7
g2
sS'graphics.exprs'
p8
g6
sS'outtypex'
p9
S'double'
p10
sS'mo.model'
p11
g2
sS'ierr'
p12
g10
sS'exprs.paramv[i-1]'
p13
g10
sS'lab_2_tmp'
p14
g4
sS'x.model'
p15
g6
sS'exprs.outtype'
p16
g10
sS'exprs.intype'
p17
g10
sS'exprs.nameF'
p18
g10
sS'exprs.funtxt'
p19
S'vector'
p20
sS'graphics.out_implicit'
p21
NsS'out'
p22
S'matrix'
p23
sS'nameF'
p24
g2
sS'lab_2_tmp[i-1]'
p25
g10
sS'exprs.pprop'
p26
g10
sS'Tparam_lab'
p27
g10
sS'exprs.out'
p28
g10
sS'graphics.in_implicit'
p29
NsS'typ'
p30
g20
sS'getvalue_txt'
p31
g2
sS'mo.inputs'
p32
g20
sS'param'
p33
g23
sS'paramv'
p34
g4
sS'gr_i'
p35
g20
sS'x.graphics.in_implicit'
p36
g20
sS'mo.parameters'
p37
g4
sS'Tparam_sz'
p38
g10
sS'pprop'
p39
g23
sS'model.out'
p40
g10
sS'exprs.in1'
p41
g10
sS'model.equations'
p42
g6
sS'mo.outputs'
p43
g23
sS'intype'
p44
g20
sS'x.graphics.out_implicit'
p45
g23
sS'in1'
p46
g20
sS'model.rpar'
p47
g23
sS'model.in1'
p48
g10
sS'lhs_txt'
p49
g2
sS'outtype'
p50
g23
sS'graphics'
p51
g6
sS'intypex'
p52
g10
sS'lab_1'
p53
g4
sS'lab_2'
p54
NsS'paramv[$+1-1]'
p55
g2
sS'ok'
p56
S'boolean'
p57
sS'model.blocktype'
p58
g2
sS'exprs.param'
p59
g10
sS'model.sim[1-1]'
p60
NsS'mo'
p61
g6
sS'x.graphics'
p62
g6
sS'pprop[$+1-1]'
p63
g10
sS'model.dep_ut'
p64
g20
sS'exprs.paramv'
p65
g4
sS'exprs'
p66
g10
sS'lab_2[$+1-1]'
p67
g2
sS'r'
p68
g57
sS'lab_txt'
p69
g2
sS'y'
p70
g20
sS'x'
p71
g10
sS'model'
p72
g6
sS'tt'
p73
g20
s.