c__builtin__
set
p0
((lp1
S'a'
p2
aS'x'
p3
aS'model'
p4
aS'inh'
p5
aS'graphics'
p6
atp7
Rp8
.(dp0
S'model.dstate'
p1
S'double'
p2
sS'graphics'
p3
S'object'
p4
sS'x.model'
p5
NsS'inh'
p6
g2
sS'model.out'
p7
g2
sS'out'
p8
g2
sS'x.graphics'
p9
g4
sS'model.evtin'
p10
g2
sS'model.sim'
p11
S'string'
p12
sS'in1'
p13
g2
sS'model.rpar'
p14
g2
sS'model.in'
p15
g2
sS'graphics.exprs'
p16
NsS'typ'
p17
S'vector'
p18
sS'ok'
p19
S'boolean'
p20
sS'model.blocktype'
p21
g12
sS'model.dep_ut'
p22
S'vector_boolean'
p23
sS'exprs'
p24
S'matrix'
p25
sS'gr_i'
p26
g18
sS'y'
p27
g18
sS'x'
p28
g18
sS'model'
p29
g4
sS'z'
p30
g2
s.