c__builtin__
set
p0
((lp1
S'a'
p2
aS'exprs'
p3
aS'gr_i'
p4
aS'inh'
p5
aS'graphics'
p6
aS'x'
p7
aS'model'
p8
atp9
Rp10
.(dp0
S'model.dstate'
p1
S'double'
p2
sS'arg1'
p3
S'object'
p4
sS'graphics'
p5
g4
sS'x.model'
p6
NsS'inh'
p7
g2
sS'model.out'
p8
g2
sS'out'
p9
g2
sS'x.graphics'
p10
g4
sS'model.evtin'
p11
g2
sS'model.sim'
p12
S'string'
p13
sS'in1'
p14
g2
sS'model.rpar'
p15
g2
sS'model.in'
p16
g2
sS'graphics.exprs'
p17
NsS'typ'
p18
S'vector'
p19
sS'ok'
p20
S'boolean'
p21
sS'model.blocktype'
p22
g13
sS'model.dep_ut'
p23
g19
sS'exprs'
p24
S'matrix'
p25
sS'gr_i'
p26
g19
sS'y'
p27
g19
sS'x'
p28
g2
sS'model'
p29
g4
sS'z'
p30
g2
s.