c__builtin__
set
p0
((lp1
S'a'
p2
aS'x'
p3
aS'inh'
p4
atp5
Rp6
.(dp0
S'model.dstate'
p1
S'double'
p2
sS'arg1'
p3
S'object'
p4
sS'graphics'
p5
g4
sS'this.x.model'
p6
NsS'model.out'
p7
g2
sS'out'
p8
g2
sS'this.inh'
p9
g2
sS'model.in1'
p10
g2
sS'typ'
p11
S'vector'
p12
sS'model.evtin'
p13
g2
sS'this.x'
p14
g2
sS'model.sim'
p15
S'string'
p16
sS'in1'
p17
g2
sS'model.rpar'
p18
g2
sS'graphics.exprs'
p19
NsS'this.x.graphics'
p20
g4
sS'[model,graphics,ok]'
p21
g2
sS'ok'
p22
S'boolean'
p23
sS'model.blocktype'
p24
g16
sS'model.dep_ut'
p25
g12
sS'exprs'
p26
S'matrix'
p27
sS'gr_i'
p28
g12
sS'y'
p29
g12
sS'model'
p30
g4
sS'z'
p31
g2
s.