c__builtin__
set
p0
((lp1
S'a'
p2
aS'x'
p3
aS'model'
p4
aS'inh'
p5
atp6
Rp7
.(dp0
S'model.dstate'
p1
S'double'
p2
sS'arg1'
p3
S'object'
p4
sS'graphics'
p5
g4
sS'x.model'
p6
NsS'inh'
p7
g2
sS'model.out'
p8
g2
sS'out'
p9
g2
sS'model.in1'
p10
g2
sS'x.graphics'
p11
g4
sS'model.evtin'
p12
g2
sS'model.sim'
p13
S'string'
p14
sS'[this.model,graphics,ok]'
p15
S'list'
p16
sS'in1'
p17
g2
sS'model.rpar'
p18
g2
sS'graphics.exprs'
p19
NsS'typ'
p20
S'vector'
p21
sS'ok'
p22
S'boolean'
p23
sS'model.blocktype'
p24
g14
sS'model.dep_ut'
p25
g21
sS'exprs'
p26
S'matrix'
p27
sS'gr_i'
p28
g21
sS'y'
p29
g21
sS'x'
p30
g2
sS'model'
p31
g4
sS'z'
p32
g2
s.