c__builtin__
set
p0
((lp1
S'a'
p2
aS'x'
p3
aS'model'
p4
aS'inh'
p5
atp6
Rp7
.(dp0
S'model.dstate'
p1
S'double'
p2
sS'arg1'
p3
S'object'
p4
sS'graphics'
p5
g4
sS'x.model'
p6
NsS'inh'
p7
g2
sS'model.out'
p8
g2
sS'out'
p9
g2
sS'model.in1'
p10
g2
sS'x.graphics'
p11
g4
sS'model.evtin'
p12
g2
sS'model.sim'
p13
S'string'
p14
sS'in1'
p15
g2
sS'model.rpar'
p16
g2
sS'graphics.exprs'
p17
NsS'typ'
p18
S'vector'
p19
sS'[model,graphics,ok]'
p20
g2
sS'ok'
p21
S'boolean'
p22
sS'model.blocktype'
p23
g14
sS'model.dep_ut'
p24
g19
sS'exprs'
p25
S'matrix'
p26
sS'gr_i'
p27
g19
sS'y'
p28
g19
sS'x'
p29
g2
sS'model'
p30
g4
sS'z'
p31
g2
s.