c__builtin__
set
p0
((lp1
S'intype'
p2
aS'in1'
p3
aS'outtype'
p4
aS'funam'
p5
aS'x'
p6
aS'type'
p7
aS'out'
p8
atp9
Rp10
.(dp0
S'rhs_txt'
p1
S'string'
p2
sS'graphics.out_implicit'
p3
NsS'model.sim'
p4
S'vector'
p5
sS'ee'
p6
S'double'
p7
sS'arg1'
p8
S'object'
p9
sS'graphics.gr_i[1-1][1-1]'
p10
g2
sS'this.x.model'
p11
g9
sS'outtypex'
p12
g7
sS'mo.model'
p13
g2
sS'ierr'
p14
g7
sS'exprs.paramv[i-1]'
p15
g7
sS'lab_2_tmp'
p16
g5
sS'[ok,Tin,Tintype,Tout,Touttype,Tparam,pprop,Tfunam,lab_1]'
p17
g7
sS'exprs.outtype'
p18
g7
sS'this.out'
p19
S'matrix'
p20
sS'exprs.intype'
p21
g7
sS'exprs.nameF'
p22
g7
sS'[dirF,nameF,extF]'
p23
g7
sS'this.in1'
p24
g5
sS'nameF'
p25
g2
sS'lab_2_tmp[i-1]'
p26
g7
sS'exprs.pprop'
p27
g7
sS'Tparam_lab'
p28
g7
sS'exprs.out'
p29
g7
sS'graphics.in_implicit'
p30
NsS'typ'
p31
g5
sS'getvalue_txt'
p32
g2
sS'mo.inputs'
p33
NsS'param'
p34
g5
sS'paramv'
p35
g5
sS'gr_i'
p36
g5
sS'this.x.graphics'
p37
g9
sS'mo.parameters'
p38
g5
sS'Tparam_sz'
p39
g7
sS'this.x.graphics.out_implicit'
p40
NsS'pprop'
p41
g5
sS'model.out'
p42
g7
sS'this.x'
p43
g7
sS'exprs.in1'
p44
g7
sS'model.equations'
p45
g9
sS'mo.outputs'
p46
NsS'model.in1'
p47
g7
sS'model.rpar'
p48
g20
sS'lhs_txt'
p49
g2
sS'graphics'
p50
g9
sS'intypex'
p51
g7
sS'lab_1'
p52
g5
sS'this.outtype'
p53
g20
sS'lab_2'
p54
NsS'paramv[$+1-1]'
p55
g2
sS'[model,graphics,ok]'
p56
g7
sS'this.x.graphics.in_implicit'
p57
NsS'ok'
p58
S'boolean'
p59
sS'model.blocktype'
p60
g2
sS'exprs.param'
p61
g7
sS'this.intype'
p62
g5
sS'model.sim[1-1]'
p63
NsS'mo'
p64
g9
sS'pprop[$+1-1]'
p65
g7
sS'model.dep_ut'
p66
g5
sS'exprs.funtxt'
p67
g2
sS'exprs'
p68
g7
sS'lab_2[$+1-1]'
p69
g2
sS'r'
p70
g59
sS'graphics.exprs'
p71
g9
sS'lab_txt'
p72
g2
sS'y'
p73
g5
sS'model'
p74
g9
sS'exprs.paramv'
p75
g5
s.