c__builtin__
set
p0
((lp1
S'intype'
p2
aS'in1'
p3
aS'outtype'
p4
aS'funam'
p5
aS'x'
p6
aS'model'
p7
aS'type'
p8
aS'out'
p9
atp10
Rp11
.(dp0
S'rhs_txt'
p1
S'string'
p2
sS'graphics.out_implicit'
p3
NsS'model.sim'
p4
S'vector'
p5
sS'ee'
p6
S'double'
p7
sS'arg1'
p8
S'object'
p9
sS'graphics.gr_i[1-1][1-1]'
p10
g2
sS'graphics.exprs'
p11
g9
sS'outtypex'
p12
g7
sS'mo.model'
p13
g2
sS'ierr'
p14
g7
sS'exprs.paramv[i-1]'
p15
g7
sS'lab_2_tmp'
p16
g5
sS'[ok,Tin,Tintype,Tout,Touttype,Tparam,pprop,Tfunam,lab_1]'
p17
g7
sS'exprs.outtype'
p18
g7
sS'exprs.intype'
p19
g7
sS'exprs.nameF'
p20
g7
sS'[dirF,nameF,extF]'
p21
g7
sS'out'
p22
S'matrix'
p23
sS'nameF'
p24
g2
sS'lab_2_tmp[i-1]'
p25
g7
sS'exprs.pprop'
p26
g7
sS'Tparam_lab'
p27
g7
sS'exprs.out'
p28
g7
sS'graphics.in_implicit'
p29
NsS'typ'
p30
g5
sS'getvalue_txt'
p31
g2
sS'mo.inputs'
p32
g5
sS'param'
p33
g5
sS'paramv'
p34
g5
sS"model.sim[('1', 'double')]"
p35
NsS'gr_i'
p36
g5
sS'x.graphics.in_implicit'
p37
g5
sS'x.model'
p38
g9
sS'mo.parameters'
p39
g5
sS'Tparam_sz'
p40
g7
sS'pprop'
p41
g5
sS'model.out'
p42
g7
sS'exprs.in1'
p43
g7
sS'model.equations'
p44
g9
sS'mo.outputs'
p45
g23
sS'intype'
p46
g5
sS'x.graphics.out_implicit'
p47
g23
sS'in1'
p48
g5
sS'model.rpar'
p49
g23
sS'model.in1'
p50
g7
sS'lhs_txt'
p51
g2
sS'outtype'
p52
g23
sS'graphics'
p53
g9
sS'intypex'
p54
g7
sS'lab_1'
p55
g5
sS'lab_2'
p56
NsS'paramv[$+1-1]'
p57
g2
sS'[model,graphics,ok]'
p58
g7
sS'ok'
p59
S'boolean'
p60
sS'model.blocktype'
p61
g2
sS'exprs.param'
p62
g7
sS'mo'
p63
g9
sS'x.graphics'
p64
g9
sS'pprop[$+1-1]'
p65
g7
sS'model.dep_ut'
p66
g5
sS'exprs.funtxt'
p67
g2
sS'exprs'
p68
g7
sS'lab_2[$+1-1]'
p69
g2
sS'r'
p70
g60
sS'lab_txt'
p71
g2
sS'y'
p72
g5
sS'x'
p73
g7
sS'model'
p74
g9
sS'exprs.paramv'
p75
g5
s.