c__builtin__
set
p0
((lp1
S'outtype'
p2
aS'intype'
p3
aS'in1'
p4
aS'exprs'
p5
aS'gr_i'
p6
aS'graphics'
p7
aS'funam'
p8
aS'x'
p9
aS'model'
p10
aS'type'
p11
aS'out'
p12
atp13
Rp14
.(dp0
S'rhs_txt'
p1
S'string'
p2
sS'ee'
p3
S'double'
p4
sS'arg1'
p5
S'object'
p6
sS'graphics.gr_i[1-1][1-1]'
p7
g2
sS'graphics.exprs'
p8
g6
sS'outtypex'
p9
g4
sS'mo.model'
p10
g2
sS'ierr'
p11
g4
sS'exprs.paramv[i-1]'
p12
g4
sS'lab_2_tmp'
p13
S'list'
p14
sS'x.model'
p15
g6
sS'exprs.outtype'
p16
g4
sS'exprs.intype'
p17
g4
sS'exprs.nameF'
p18
g4
sS'exprs.in'
p19
g4
sS'graphics.out_implicit'
p20
NsS'out'
p21
S'matrix'
p22
sS'nameF'
p23
g2
sS'lab_2_tmp[i-1]'
p24
g4
sS'exprs.pprop'
p25
g4
sS'Tparam_lab'
p26
g4
sS'exprs.out'
p27
g4
sS'graphics.in_implicit'
p28
NsS'typ'
p29
S'vector'
p30
sS'getvalue_txt'
p31
g2
sS'mo.inputs'
p32
S'vector_string'
p33
sS'param'
p34
g30
sS'paramv'
p35
g14
sS'gr_i'
p36
g30
sS'x.graphics.in_implicit'
p37
g33
sS'mo.parameters'
p38
g14
sS'Tparam_sz'
p39
g4
sS'pprop'
p40
g30
sS'model.out'
p41
g4
sS'model.sim'
p42
g14
sS'model.equations'
p43
g6
sS'mo.outputs'
p44
g22
sS'intype'
p45
g33
sS'x.graphics.out_implicit'
p46
g22
sS'in1'
p47
g33
sS'model.rpar'
p48
g22
sS'lhs_txt'
p49
g2
sS'outtype'
p50
g22
sS'model.in'
p51
g4
sS'graphics'
p52
g6
sS'intypex'
p53
g4
sS'lab_1'
p54
g14
sS'lab_2'
p55
NsS'paramv[$+1-1]'
p56
g2
sS'ok'
p57
S'boolean'
p58
sS'model.blocktype'
p59
g2
sS'exprs.param'
p60
g4
sS'model.sim[1-1]'
p61
NsS'mo'
p62
g6
sS'x.graphics'
p63
g6
sS'pprop[$+1-1]'
p64
g4
sS'model.dep_ut'
p65
S'vector_boolean'
p66
sS'exprs.funtxt'
p67
g2
sS'exprs'
p68
g4
sS'lab_2[$+1-1]'
p69
g2
sS'r'
p70
g58
sS'lab_txt'
p71
g2
sS'y'
p72
g30
sS'x'
p73
NsS'model'
p74
g6
sS'exprs.paramv'
p75
g14
s.