c__builtin__
set
p0
((lp1
S'outtype'
p2
aS'intype'
p3
aS'in1'
p4
aS'exprs'
p5
aS'gr_i'
p6
aS'graphics'
p7
aS'funam'
p8
aS'x'
p9
aS'model'
p10
aS'type'
p11
aS'out'
p12
atp13
Rp14
.(dp0
S'rhs_txt'
p1
S'string'
p2
sS'ee'
p3
S'double'
p4
sS'arg1'
p5
S'object'
p6
sS'graphics.gr_i[1-1][1-1]'
p7
g2
sS'graphics.exprs'
p8
g6
sS'outtypex'
p9
g4
sS'mo.model'
p10
g2
sS'ierr'
p11
g4
sS'exprs.paramv[i-1]'
p12
g4
sS'lab_2_tmp'
p13
S'list'
p14
sS'x.model'
p15
g6
sS'exprs.outtype'
p16
g4
sS'exprs.intype'
p17
g4
sS'exprs.nameF'
p18
g4
sS'exprs.in'
p19
g4
sS'graphics.out_implicit'
p20
NsS'out'
p21
S'matrix'
p22
sS'nameF'
p23
g2
sS'lab_2_tmp[i-1]'
p24
g4
sS'exprs.pprop'
p25
g4
sS'Tparam_lab'
p26
g4
sS'exprs.out'
p27
g4
sS'graphics.in_implicit'
p28
NsS'typ'
p29
S'vector'
p30
sS'getvalue_txt'
p31
g2
sS'mo.inputs'
p32
g30
sS'param'
p33
g30
sS'paramv'
p34
g14
sS'gr_i'
p35
g30
sS'x.graphics.in_implicit'
p36
g30
sS'mo.parameters'
p37
g14
sS'Tparam_sz'
p38
g4
sS'pprop'
p39
g30
sS'model.out'
p40
g4
sS'model.sim'
p41
g14
sS'model.equations'
p42
g6
sS'mo.outputs'
p43
g22
sS'intype'
p44
g30
sS'x.graphics.out_implicit'
p45
g22
sS'in1'
p46
g30
sS'model.rpar'
p47
g22
sS'lhs_txt'
p48
g2
sS'outtype'
p49
g22
sS'model.in'
p50
g4
sS'graphics'
p51
g6
sS'intypex'
p52
g4
sS'lab_1'
p53
g14
sS'lab_2'
p54
NsS'paramv[$+1-1]'
p55
g2
sS'ok'
p56
S'boolean'
p57
sS'model.blocktype'
p58
g2
sS'exprs.param'
p59
g4
sS'model.sim[1-1]'
p60
NsS'mo'
p61
g6
sS'x.graphics'
p62
g6
sS'pprop[$+1-1]'
p63
g4
sS'model.dep_ut'
p64
g30
sS'exprs.funtxt'
p65
g2
sS'exprs'
p66
g4
sS'lab_2[$+1-1]'
p67
g2
sS'r'
p68
g57
sS'lab_txt'
p69
g2
sS'y'
p70
g30
sS'x'
p71
NsS'model'
p72
g6
sS'exprs.paramv'
p73
g14
s.