c__builtin__
set
p0
((lp1
S'intype'
p2
aS'in1'
p3
aS'outtype'
p4
aS'graphics'
p5
aS'funam'
p6
aS'x'
p7
aS'model'
p8
aS'out'
p9
atp10
Rp11
.(dp0
S'rhs_txt'
p1
S'string'
p2
sS'ee'
p3
S'double'
p4
sS'graphics.gr_i[1-1][1-1]'
p5
g2
sS'graphics.exprs'
p6
S'object'
p7
sS'outtypex'
p8
g4
sS'mo.model'
p9
g2
sS'ierr'
p10
g4
sS'exprs.paramv[i-1]'
p11
g4
sS'lab_2_tmp'
p12
S'list'
p13
sS'x.model'
p14
g7
sS'exprs.outtype'
p15
g4
sS'exprs.intype'
p16
g4
sS'exprs.nameF'
p17
g4
sS'exprs.in'
p18
g4
sS'graphics.out_implicit'
p19
NsS'out'
p20
S'matrix'
p21
sS'nameF'
p22
g2
sS'lab_2_tmp[i-1]'
p23
g4
sS'exprs.pprop'
p24
g4
sS'Tparam_lab'
p25
g4
sS'in'
p26
S'vector_string'
p27
sS'exprs.out'
p28
g4
sS'graphics.in_implicit'
p29
NsS'typ'
p30
S'vector'
p31
sS'getvalue_txt'
p32
g2
sS'mo.inputs'
p33
NsS'param'
p34
g31
sS'paramv'
p35
g13
sS'gr_i'
p36
g31
sS'x.graphics.in_implicit'
p37
g27
sS'mo.parameters'
p38
g13
sS'Tparam_sz'
p39
g4
sS'pprop'
p40
g31
sS'model.out'
p41
g4
sS'model.sim'
p42
g13
sS'model.equations'
p43
g7
sS'mo.outputs'
p44
g21
sS'intype'
p45
g27
sS'x.graphics.out_implicit'
p46
g21
sS'model.rpar'
p47
g21
sS'lhs_txt'
p48
g2
sS'outtype'
p49
g21
sS'model.in'
p50
g4
sS'graphics'
p51
g7
sS'intypex'
p52
g4
sS'lab_1'
p53
g13
sS'lab_2'
p54
NsS'paramv[$+1-1]'
p55
g2
sS'ok'
p56
S'boolean'
p57
sS'model.blocktype'
p58
g2
sS'exprs.param'
p59
g4
sS'model.sim[1-1]'
p60
NsS'mo'
p61
g7
sS'x.graphics'
p62
g7
sS'pprop[$+1-1]'
p63
g4
sS'model.dep_ut'
p64
S'vector_boolean'
p65
sS'exprs.funtxt'
p66
g2
sS'exprs'
p67
g4
sS'lab_2[$+1-1]'
p68
g2
sS'r'
p69
g57
sS'lab_txt'
p70
g2
sS'y'
p71
g31
sS'x'
p72
g31
sS'model'
p73
g7
sS'exprs.paramv'
p74
g13
s.