c__builtin__
set
p0
((lp1
S'intype'
p2
aS'in1'
p3
aS'outtype'
p4
aS'funam'
p5
aS'x'
p6
aS'model'
p7
aS'type'
p8
aS'out'
p9
atp10
Rp11
.(dp0
S'rhs_txt'
p1
S'string'
p2
sS'graphics.out_implicit'
p3
NsS'model.sim'
p4
S'list'
p5
sS'ee'
p6
S'double'
p7
sS'arg1'
p8
S'object'
p9
sS'graphics.gr_i[1-1][1-1]'
p10
g2
sS'graphics.exprs'
p11
g9
sS'outtypex'
p12
g7
sS'mo.model'
p13
g2
sS'ierr'
p14
g7
sS'exprs.paramv[i-1]'
p15
g7
sS'lab_2_tmp'
p16
g5
sS'[ok,Tin,Tintype,Tout,Touttype,Tparam,pprop,Tfunam,lab_1]'
p17
g7
sS'exprs.outtype'
p18
g7
sS'exprs.intype'
p19
g7
sS'exprs.nameF'
p20
g7
sS'[dirF,nameF,extF]'
p21
g7
sS'out'
p22
S'matrix'
p23
sS'nameF'
p24
g2
sS'lab_2_tmp[i-1]'
p25
g7
sS'exprs.pprop'
p26
g7
sS'Tparam_lab'
p27
g7
sS'exprs.out'
p28
g7
sS'graphics.in_implicit'
p29
NsS'typ'
p30
S'vector'
p31
sS'getvalue_txt'
p32
g2
sS'mo.inputs'
p33
g31
sS'param'
p34
g31
sS'paramv'
p35
g5
sS'gr_i'
p36
g31
sS'x.graphics.in_implicit'
p37
g31
sS'x.model'
p38
g9
sS'model.sim[1]'
p39
NsS'mo.parameters'
p40
g5
sS'Tparam_sz'
p41
g7
sS'pprop'
p42
g31
sS'model.out'
p43
g7
sS'exprs.in1'
p44
g7
sS'model.equations'
p45
g9
sS'mo.outputs'
p46
g23
sS'intype'
p47
g31
sS'x.graphics.out_implicit'
p48
g23
sS'in1'
p49
g31
sS'model.rpar'
p50
g23
sS'model.in1'
p51
g7
sS'lhs_txt'
p52
g2
sS'outtype'
p53
g23
sS'graphics'
p54
g9
sS'intypex'
p55
g7
sS'lab_1'
p56
g5
sS'lab_2'
p57
NsS'paramv[$+1-1]'
p58
g2
sS'[model,graphics,ok]'
p59
g7
sS'ok'
p60
S'boolean'
p61
sS'model.blocktype'
p62
g2
sS'exprs.param'
p63
g7
sS'mo'
p64
g9
sS'x.graphics'
p65
g9
sS'pprop[$+1-1]'
p66
g7
sS'model.dep_ut'
p67
g31
sS'exprs.funtxt'
p68
g2
sS'exprs'
p69
g7
sS'lab_2[$+1-1]'
p70
g2
sS'r'
p71
g61
sS'lab_txt'
p72
g2
sS'y'
p73
g31
sS'x'
p74
g7
sS'model'
p75
g9
sS'exprs.paramv'
p76
g5
s.