c__builtin__
set
p0
((lp1
S'intype'
p2
aS'in1'
p3
aS'outtype'
p4
aS'funam'
p5
aS'x'
p6
aS'model'
p7
aS'type'
p8
aS'out'
p9
atp10
Rp11
.(dp0
S'rhs_txt'
p1
S'string'
p2
sS'model.sim'
p3
S'list'
p4
sS'ee'
p5
S'double'
p6
sS'arg1'
p7
S'object'
p8
sS'graphics.gr_i[1-1][1-1]'
p9
g2
sS'graphics.exprs'
p10
g8
sS'outtypex'
p11
g6
sS'mo.model'
p12
g2
sS'ierr'
p13
g6
sS'exprs.paramv[i-1]'
p14
g6
sS'lab_2_tmp'
p15
g4
sS'x.model'
p16
g8
sS'exprs.outtype'
p17
g6
sS'exprs.intype'
p18
g6
sS'exprs.nameF'
p19
g6
sS'graphics.out_implicit'
p20
NsS'out'
p21
S'matrix'
p22
sS'nameF'
p23
g2
sS'lab_2_tmp[i-1]'
p24
g6
sS'exprs.pprop'
p25
g6
sS'Tparam_lab'
p26
g6
sS'exprs.out'
p27
g6
sS'graphics.in_implicit'
p28
NsS'typ'
p29
S'vector'
p30
sS'getvalue_txt'
p31
g2
sS'mo.inputs'
p32
g30
sS'param'
p33
g30
sS'paramv'
p34
g4
sS'gr_i'
p35
g30
sS'x.graphics.in_implicit'
p36
g30
sS'model.sim[1]'
p37
NsS'mo.parameters'
p38
g4
sS'Tparam_sz'
p39
g6
sS'pprop'
p40
g30
sS'model.out'
p41
g6
sS'exprs.in1'
p42
g6
sS'model.equations'
p43
g8
sS'mo.outputs'
p44
g22
sS'intype'
p45
g30
sS'x.graphics.out_implicit'
p46
g22
sS'in1'
p47
g30
sS'model.rpar'
p48
g22
sS'model.in1'
p49
g6
sS'lhs_txt'
p50
g2
sS'outtype'
p51
g22
sS'graphics'
p52
g8
sS'intypex'
p53
g6
sS'lab_1'
p54
g4
sS'lab_2'
p55
NsS'paramv[$+1-1]'
p56
g2
sS'ok'
p57
S'boolean'
p58
sS'model.blocktype'
p59
g2
sS'exprs.param'
p60
g6
sS'mo'
p61
g8
sS'x.graphics'
p62
g8
sS'pprop[$+1-1]'
p63
g6
sS'model.dep_ut'
p64
g30
sS'exprs.funtxt'
p65
g2
sS'exprs'
p66
g6
sS'lab_2[$+1-1]'
p67
g2
sS'r'
p68
g58
sS'lab_txt'
p69
g2
sS'y'
p70
g30
sS'x'
p71
g6
sS'model'
p72
g8
sS'exprs.paramv'
p73
g4
s.