c__builtin__
set
p0
((lp1
S'x'
p2
atp3
Rp4
.(dp0
S'[this.x,newparameters,needcompile,edited]'
p1
S'double'
p2
sS'scs.props.title'
p3
S'string'
p4
sS'model.out'
p5
S'vector'
p6
sS'scs'
p7
S'object'
p8
sS'arg1.graphics.id'
p9
g2
sS'model.in1'
p10
g6
sS'typ'
p11
g6
sS'this.x.graphics.id'
p12
g2
sS'arg1'
p13
g8
sS'this.x'
p14
g2
sS'model.sim'
p15
g4
sS'model.rpar'
p16
g2
sS'scs.props'
p17
g8
sS'arg1.model'
p18
g8
sS'model.blocktype'
p19
g4
sS'model.dep_ut'
p20
g6
sS'x.props'
p21
g8
sS'gr_i'
p22
g6
sS'y'
p23
g6
sS'x'
p24
g8
sS'model'
p25
g2
sS'arg1.model.rpar'
p26
g8
s.