c__builtin__
set
p0
((lp1
S'x'
p2
aS'model'
p3
aS'graphics'
p4
atp5
Rp6
.(dp0
S'model.sim'
p1
S'string'
p2
sS'model.blocktype'
p3
g2
sS'scs.props'
p4
S'object'
p5
sS'model.dep_ut'
p6
S'vector_boolean'
p7
sS'model.rpar'
p8
S'double'
p9
sS'x.props'
p10
g5
sS'model.out'
p11
S'vector'
p12
sS'gr_i'
p13
g12
sS'scs.props.title'
p14
g2
sS'model.in'
p15
g12
sS'y'
p16
g12
sS'x'
p17
g5
sS'model'
p18
g5
sS'x.graphics.id'
p19
g9
sS'typ'
p20
g12
sS'scs'
p21
g5
sS'graphics.id'
p22
g9
s.