c__builtin__
set
p0
((lp1
S'x'
p2
aS'model'
p3
atp4
Rp5
.(dp0
S'model.sim'
p1
S'string'
p2
sS'arg1.model'
p3
S'object'
p4
sS'model.blocktype'
p5
g2
sS'model.dep_ut'
p6
S'vector'
p7
sS'[this.x,newparameters,needcompile,edited]'
p8
S'double'
p9
sS'scs.props'
p10
g4
sS'model.in1'
p11
g7
sS'scs.props.title'
p12
g2
sS'x.props'
p13
g4
sS'model.out'
p14
g7
sS'gr_i'
p15
g7
sS'model.rpar'
p16
g9
sS'scs'
p17
g4
sS'arg1'
p18
g4
sS'y'
p19
g7
sS'x'
p20
g9
sS'model'
p21
g4
sS'x.graphics.id'
p22
g9
sS'typ'
p23
g7
sS'arg1.model.rpar'
p24
g4
sS'arg1.graphics.id'
p25
g9
s.