c__builtin__
set
p0
((lp1
S'x'
p2
aS'model'
p3
atp4
Rp5
.(dp0
S'model.sim'
p1
S'string'
p2
sS'arg1.model'
p3
S'object'
p4
sS'model.blocktype'
p5
g2
sS'model.dep_ut'
p6
S'vector'
p7
sS'arg1'
p8
g4
sS'scs.props'
p9
g4
sS'model.in1'
p10
g7
sS'scs.props.title'
p11
g2
sS'x.props'
p12
g4
sS'model.out'
p13
g7
sS'gr_i'
p14
g7
sS'model.rpar'
p15
S'double'
p16
sS'scs'
p17
g4
sS'y'
p18
g7
sS'x'
p19
g16
sS'model'
p20
g4
sS'x.graphics.id'
p21
g16
sS'typ'
p22
g7
sS'arg1.model.rpar'
p23
g4
sS'arg1.graphics.id'
p24
g16
s.