c__builtin__
set
p0
((lp1
S'x'
p2
aS'model'
p3
aS'gr_i'
p4
aS'exprs'
p5
aS'graphics'
p6
atp7
Rp8
.(dp0
S'model.sim'
p1
S'string'
p2
sS'arg1.model'
p3
S'object'
p4
sS'model.blocktype'
p5
g2
sS'arg1'
p6
g4
sS'scs.props'
p7
g4
sS'model.dep_ut'
p8
S'vector'
p9
sS'scs.props.title'
p10
g2
sS'x.props'
p11
g4
sS'model.out'
p12
g9
sS'gr_i'
p13
g9
sS'model.rpar'
p14
S'double'
p15
sS'scs'
p16
g4
sS'model.in'
p17
g9
sS'y'
p18
g9
sS'x'
p19
g4
sS'model'
p20
g4
sS'x.graphics.id'
p21
g15
sS'typ'
p22
g9
sS'arg1.model.rpar'
p23
g4
sS'arg1.graphics.id'
p24
g15
s.