c__builtin__
set
p0
((lp1
S'x'
p2
aS'model'
p3
aS'gr_i'
p4
aS'exprs'
p5
aS'graphics'
p6
atp7
Rp8
.(dp0
S'model.sim'
p1
S'string'
p2
sS'arg1.model'
p3
S'object'
p4
sS'model.blocktype'
p5
g2
sS'arg1'
p6
g4
sS'scs.props'
p7
g4
sS'model.dep_ut'
p8
S'vector_boolean'
p9
sS'scs.props.title'
p10
g2
sS'x.props'
p11
g4
sS'model.out'
p12
S'vector'
p13
sS'gr_i'
p14
g13
sS'model.rpar'
p15
S'double'
p16
sS'scs'
p17
g4
sS'model.in'
p18
g13
sS'y'
p19
g13
sS'x'
p20
g4
sS'model'
p21
g4
sS'x.graphics.id'
p22
g16
sS'typ'
p23
g13
sS'arg1.model.rpar'
p24
g4
sS'arg1.graphics.id'
p25
g16
s.