c__builtin__
set
p0
((lp1
S'phi'
p2
aS'ymax'
p3
aS'csiz'
p4
aS'graphics'
p5
aS'xmax'
p6
aS'plen'
p7
aS'xmin'
p8
aS'x'
p9
aS'model'
p10
aS'ymin'
p11
atp12
Rp13
.(dp0
S'model.dstate'
p1
S'double'
p2
sS'graphics'
p3
S'object'
p4
sS'dstate'
p5
NsS'rpar'
p6
S'matrix'
p7
sS'x.model'
p8
g4
sS'xmin'
p9
g2
sS'ymin'
p10
g2
sS'ymax'
p11
g2
sS'x.graphics'
p12
g4
sS'model.evtin'
p13
g2
sS'model.sim'
p14
S'list'
p15
sS'phi'
p16
g2
sS'mess'
p17
g7
sS'csiz'
p18
g2
sS'model.rpar'
p19
g7
sS'model.in'
p20
g7
sS'graphics.exprs'
p21
NsS'plen'
p22
g2
sS'typ'
p23
S'vector'
p24
sS'ok'
p25
S'boolean'
p26
sS'model.blocktype'
p27
S'string'
p28
sS'model.dep_ut'
p29
S'vector_boolean'
p30
sS'exprs'
p31
g28
sS'gr_i'
p32
g24
sS'xmax'
p33
g2
sS'y'
p34
g24
sS'x'
p35
g24
sS'model'
p36
g4
s.