c__builtin__
set
p0
((lp1
S'minp'
p2
aS'x'
p3
aS'model'
p4
aS'maxp'
p5
aS'graphics'
p6
atp7
Rp8
.(dp0
S'model.sim'
p1
S'list'
p2
sS'model.out'
p3
S'double'
p4
sS'model.blocktype'
p5
S'string'
p6
sS'minp'
p7
g4
sS'x.graphics'
p8
S'object'
p9
sS'maxp'
p10
g4
sS'graphics.exprs'
p11
NsS'model.rpar'
p12
S'matrix'
p13
sS'rpar'
p14
g13
sS'exprs'
p15
g13
sS'x.model'
p16
NsS'gr_i'
p17
S'vector'
p18
sS'model.dep_ut'
p19
S'vector_boolean'
p20
sS'model.in'
p21
g4
sS'graphics'
p22
g9
sS'y'
p23
g18
sS'x'
p24
g18
sS'model'
p25
g9
sS'typ'
p26
g18
s.