c__builtin__
set
p0
((lp1
S'minp'
p2
aS'x'
p3
aS'maxp'
p4
atp5
Rp6
.(dp0
S'this.x'
p1
S'double'
p2
sS'model.sim'
p3
S'vector'
p4
sS'model.in1'
p5
g2
sS'this.minp'
p6
g2
sS'model.blocktype'
p7
S'string'
p8
sS'this.x.graphics'
p9
S'object'
p10
sS'arg1'
p11
g10
sS'graphics.exprs'
p12
NsS'this.maxp'
p13
g2
sS'model.rpar'
p14
S'matrix'
p15
sS'rpar'
p16
g15
sS'this.x.model'
p17
NsS'exprs'
p18
g15
sS'gr_i'
p19
g4
sS'model.dep_ut'
p20
g4
sS'graphics'
p21
g10
sS'y'
p22
g4
sS'model'
p23
g10
sS'typ'
p24
g4
sS'model.out'
p25
g2
s.