c__builtin__
set
p0
((lp1
S'maxp'
p2
aS'exprs'
p3
aS'gr_i'
p4
aS'graphics'
p5
aS'minp'
p6
aS'x'
p7
aS'model'
p8
atp9
Rp10
.(dp0
S'model.sim'
p1
S'list'
p2
sS'model.out'
p3
S'double'
p4
sS'model.blocktype'
p5
S'string'
p6
sS'minp'
p7
g4
sS'x.graphics'
p8
S'object'
p9
sS'arg1'
p10
g9
sS'maxp'
p11
g4
sS'graphics.exprs'
p12
NsS'model.rpar'
p13
S'matrix'
p14
sS'rpar'
p15
g14
sS'exprs'
p16
g14
sS'x.model'
p17
NsS'gr_i'
p18
S'vector'
p19
sS'model.dep_ut'
p20
g19
sS'model.in'
p21
g4
sS'graphics'
p22
g9
sS'y'
p23
g19
sS'x'
p24
g4
sS'model'
p25
g9
sS'typ'
p26
g19
s.