c__builtin__
set
p0
((lp1
S'minp'
p2
aS'x'
p3
aS'model'
p4
aS'maxp'
p5
atp6
Rp7
.(dp0
S'model.sim'
p1
S'vector'
p2
sS'model.in1'
p3
S'double'
p4
sS'model.blocktype'
p5
S'string'
p6
sS'minp'
p7
g4
sS'x.graphics'
p8
S'object'
p9
sS'arg1'
p10
g9
sS'maxp'
p11
g4
sS'graphics.exprs'
p12
NsS'model.rpar'
p13
S'matrix'
p14
sS'rpar'
p15
g14
sS'exprs'
p16
g14
sS'x.model'
p17
NsS'gr_i'
p18
g2
sS'model.dep_ut'
p19
g2
sS'graphics'
p20
g9
sS'y'
p21
g2
sS'x'
p22
g4
sS'model'
p23
g9
sS'typ'
p24
g2
sS'model.out'
p25
g4
s.