c__builtin__
set
p0
((lp1
S'Datatype'
p2
aS'rule'
p3
aS'zcr'
p4
aS'graphics'
p5
aS'x'
p6
aS'model'
p7
atp8
Rp9
.(dp0
S'arg1'
p1
S'object'
p2
sS'graphics'
p3
g2
sS'it'
p4
S'string'
p5
sS'x.model'
p6
NsS'model.dep_ut'
p7
S'vector_boolean'
p8
sS'zcr'
p9
S'double'
p10
sS'model.out'
p11
g10
sS'out'
p12
S'vector'
p13
sS'graphics.style'
p14
S'vector_string'
p15
sS'x.graphics'
p16
g2
sS'typ'
p17
g13
sS'label'
p18
g5
sS'model.sim'
p19
S'list'
p20
sS'model.nmode'
p21
g10
sS'in1'
p22
S'matrix'
p23
sS'model.in'
p24
g23
sS'graphics.exprs'
p25
g23
sS'x.graphics.style'
p26
g15
sS'model.ipar'
p27
g13
sS'model.nzcross'
p28
g10
sS'ok'
p29
S'boolean'
p30
sS'model.blocktype'
p31
g5
sS'rule'
p32
g10
sS'exprs'
p33
g23
sS'gr_i'
p34
g13
sS'ipar'
p35
g13
sS'y'
p36
g13
sS'x'
p37
NsS'model'
p38
g2
sS'ot'
p39
Ns.