c__builtin__
set
p0
((lp1
S'Datatype'
p2
aS'rule'
p3
aS'exprs'
p4
aS'gr_i'
p5
aS'zcr'
p6
aS'graphics'
p7
aS'x'
p8
aS'model'
p9
atp10
Rp11
.(dp0
S'arg1'
p1
S'object'
p2
sS'graphics'
p3
g2
sS'it'
p4
S'string'
p5
sS'x.model'
p6
NsS'model.dep_ut'
p7
S'vector_boolean'
p8
sS'zcr'
p9
S'double'
p10
sS'model.out'
p11
g10
sS'out'
p12
S'vector'
p13
sS'graphics.style'
p14
g13
sS'x.graphics'
p15
g2
sS'typ'
p16
g13
sS'label'
p17
g5
sS'model.sim'
p18
S'list'
p19
sS'model.nmode'
p20
g10
sS'in1'
p21
S'matrix'
p22
sS'model.in'
p23
g22
sS'graphics.exprs'
p24
g22
sS'x.graphics.style'
p25
g13
sS'model.ipar'
p26
g13
sS'model.nzcross'
p27
g10
sS'ok'
p28
S'boolean'
p29
sS'model.blocktype'
p30
g5
sS'rule'
p31
g10
sS'exprs'
p32
g22
sS'gr_i'
p33
g13
sS'ipar'
p34
g13
sS'y'
p35
g13
sS'x'
p36
NsS'model'
p37
g2
sS'ot'
p38
Ns.