c__builtin__
set
p0
((lp1
S'Datatype'
p2
aS'x'
p3
aS'model'
p4
aS'zcr'
p5
aS'rule'
p6
atp7
Rp8
.(dp0
S'arg1'
p1
S'object'
p2
sS'graphics'
p3
g2
sS'it'
p4
S'string'
p5
sS'x.model'
p6
NsS'model.dep_ut'
p7
S'vector'
p8
sS'zcr'
p9
S'double'
p10
sS'model.out'
p11
g10
sS'out'
p12
g8
sS'graphics.style'
p13
g8
sS'model.in1'
p14
S'matrix'
p15
sS'x.graphics'
p16
g2
sS'typ'
p17
g8
sS'label'
p18
g5
sS'model.sim'
p19
S'list'
p20
sS'model.nmode'
p21
g10
sS'in1'
p22
g15
sS'graphics.exprs'
p23
g15
sS'x.graphics.style'
p24
g8
sS'model.ipar'
p25
g8
sS'model.nzcross'
p26
g10
sS'[model,graphics,ok]'
p27
g10
sS'ok'
p28
S'boolean'
p29
sS'model.blocktype'
p30
g5
sS'rule'
p31
g10
sS'exprs'
p32
g15
sS'gr_i'
p33
g8
sS'ipar'
p34
g8
sS'y'
p35
g8
sS'x'
p36
g10
sS'model'
p37
g2
sS'ot'
p38
Ns.