c__builtin__
set
p0
((lp1
S'Datatype'
p2
aS'x'
p3
aS'zcr'
p4
aS'rule'
p5
atp6
Rp7
.(dp0
S'this.x.graphics'
p1
S'object'
p2
sS'arg1'
p3
g2
sS'graphics'
p4
g2
sS'it'
p5
S'string'
p6
sS'this.x.model'
p7
NsS'model.out'
p8
S'double'
p9
sS'out'
p10
S'vector'
p11
sS'graphics.style'
p12
g11
sS'model.in1'
p13
S'matrix'
p14
sS'exprs'
p15
g14
sS'typ'
p16
g11
sS'label'
p17
g6
sS'this.zcr'
p18
g9
sS'this.x'
p19
g9
sS'model.sim'
p20
g11
sS'model.nmode'
p21
NsS'in1'
p22
g14
sS'graphics.exprs'
p23
g14
sS'model.ipar'
p24
g11
sS'model.nzcross'
p25
NsS'[model,graphics,ok]'
p26
g9
sS'ok'
p27
S'boolean'
p28
sS'model.blocktype'
p29
g6
sS'this.x.graphics.style'
p30
g11
sS'model.dep_ut'
p31
g11
sS'this.rule'
p32
g9
sS'gr_i'
p33
g11
sS'ipar'
p34
g11
sS'y'
p35
g11
sS'model'
p36
g2
sS'ot'
p37
Ns.