c__builtin__
set
p0
((lp1
S'Datatype'
p2
aS'rule'
p3
aS'zcr'
p4
aS'graphics'
p5
aS'x'
p6
aS'model'
p7
atp8
Rp9
.(dp0
S'graphics'
p1
S'object'
p2
sS'it'
p3
S'string'
p4
sS'x.model'
p5
NsS'model.dep_ut'
p6
S'vector_boolean'
p7
sS'zcr'
p8
S'double'
p9
sS'model.out'
p10
g9
sS'out'
p11
S'vector'
p12
sS'graphics.style'
p13
S'vector_string'
p14
sS'x.graphics'
p15
g2
sS'typ'
p16
g12
sS'label'
p17
g4
sS'model.sim'
p18
S'list'
p19
sS'model.nmode'
p20
g9
sS'in1'
p21
S'matrix'
p22
sS'model.in'
p23
g22
sS'graphics.exprs'
p24
g22
sS'x.graphics.style'
p25
g14
sS'model.ipar'
p26
g12
sS'model.nzcross'
p27
g9
sS'ok'
p28
S'boolean'
p29
sS'model.blocktype'
p30
g4
sS'rule'
p31
g9
sS'exprs'
p32
g22
sS'gr_i'
p33
g12
sS'ipar'
p34
g12
sS'y'
p35
g12
sS'x'
p36
g12
sS'model'
p37
g2
sS'ot'
p38
Ns.