c__builtin__
set
p0
((lp1
S'Datatype'
p2
aS'x'
p3
aS'zcr'
p4
aS'rule'
p5
atp6
Rp7
.(dp0
S'arg1'
p1
S'object'
p2
sS'graphics'
p3
g2
sS'it'
p4
S'string'
p5
sS'x.model'
p6
NsS'model.dep_ut'
p7
S'vector'
p8
sS'zcr'
p9
S'double'
p10
sS'model.out'
p11
g10
sS'out'
p12
g8
sS'graphics.style'
p13
g8
sS'model.in1'
p14
S'matrix'
p15
sS'x.graphics'
p16
g2
sS'typ'
p17
g8
sS'label'
p18
g5
sS'model.sim'
p19
g8
sS'model.nmode'
p20
g10
sS'in1'
p21
g15
sS'graphics.exprs'
p22
g15
sS'x.graphics.style'
p23
g8
sS'model.ipar'
p24
g8
sS'model.nzcross'
p25
g10
sS'[model,graphics,ok]'
p26
g10
sS'ok'
p27
S'boolean'
p28
sS'model.blocktype'
p29
g5
sS'rule'
p30
g10
sS'exprs'
p31
g15
sS'gr_i'
p32
g8
sS'ipar'
p33
g8
sS'y'
p34
g8
sS'x'
p35
g10
sS'model'
p36
g2
sS'ot'
p37
Ns.