c__builtin__
set
p0
((lp1
S'ci'
p2
aS'co'
p3
aS'i'
p4
aS'deptime'
p5
aS'auto0'
p6
aS'o'
p7
aS'rpar'
p8
aS'exprs'
p9
aS'xx'
p10
aS'gr_i'
p11
aS'lab'
p12
aS'graphics'
p13
aS'x'
p14
aS'model'
p15
aS'z'
p16
atp17
Rp18
.(dp0
S'exprs[1-1]'
p1
NsS'ci'
p2
S'double'
p3
sS'co'
p4
g3
sS'arg1'
p5
S'object'
p6
sS'graphics'
p7
g6
sS'rpar'
p8
S'vector'
p9
sS'xx'
p10
g9
sS'model.dep_ut'
p11
g9
sS'model.out'
p12
g3
sS'model.dstate'
p13
g9
sS'out'
p14
g3
sS'ni'
p15
g3
sS'model.ipar'
p16
g3
sS'clkin'
p17
g9
sS'dep_ut[2-1]'
p18
S'boolean'
p19
sS'no'
p20
g3
sS'z0'
p21
g9
sS'auto'
p22
g9
sS'model.evtin'
p23
g9
sS'exprs[2-1]'
p24
NsS'model.firing'
p25
g9
sS'model.sim'
p26
S'list'
p27
sS'model.evtout'
p28
g9
sS'clkout'
p29
g9
sS'exprs[1-1][9-1]'
p30
S'string'
p31
sS'in1'
p32
g3
sS'model.rpar'
p33
g9
sS'nci'
p34
g3
sS'model.state'
p35
g9
sS'model.in'
p36
g3
sS'nco'
p37
g3
sS'x0'
p38
g9
sS'nrp'
p39
g3
sS'typ'
p40
g31
sS'model.opar'
p41
g27
sS'needcompile'
p42
g3
sS'model.blocktype'
p43
g31
sS'i'
p44
g3
sS'x.graphics'
p45
g6
sS'x.model'
p46
g6
sS'o'
p47
g3
sS'exprs'
p48
g27
sS'gr_i'
p49
g9
sS'graphics.exprs'
p50
NsS'y'
p51
g9
sS'x'
p52
g3
sS'model'
p53
g6
sS'z'
p54
g9
s.