c__builtin__
set
p0
((lp1
S'ci'
p2
aS'co'
p3
aS'i'
p4
aS'deptime'
p5
aS'auto0'
p6
aS'o'
p7
aS'rpar'
p8
aS'xx'
p9
aS'lab'
p10
aS'graphics'
p11
aS'x'
p12
aS'model'
p13
aS'z'
p14
atp15
Rp16
.(dp0
S'exprs[1-1]'
p1
NsS'ci'
p2
S'double'
p3
sS'co'
p4
g3
sS'arg1'
p5
S'object'
p6
sS'graphics'
p7
g6
sS'it'
p8
g3
sS'rpar'
p9
S'vector'
p10
sS'xx'
p11
g10
sS'model.intyp'
p12
g3
sS'model.out'
p13
g3
sS'model.dstate'
p14
g10
sS'out'
p15
g3
sS'ni'
p16
g3
sS'model.in1'
p17
g3
sS'model.ipar'
p18
g3
sS'clkin'
p19
g10
sS'dep_ut[2-1]'
p20
S'boolean'
p21
sS'no'
p22
g3
sS'z0'
p23
g10
sS'model.evtin'
p24
g10
sS'exprs[2-1]'
p25
NsS'model.firing'
p26
g10
sS'model.sim'
p27
S'list'
p28
sS'model.evtout'
p29
g10
sS'clkout'
p30
g10
sS'model.in2'
p31
g3
sS'auto'
p32
g10
sS'model.out2'
p33
g3
sS'in1'
p34
g3
sS'model.rpar'
p35
g10
sS'nci'
p36
g3
sS'model.state'
p37
g10
sS'nco'
p38
g3
sS'model.outtyp'
p39
g3
sS'x0'
p40
g10
sS'nrp'
p41
g3
sS'typ'
p42
S'string'
p43
sS'model.opar'
p44
g28
sS'needcompile'
p45
g3
sS'z'
p46
g10
sS'model.blocktype'
p47
g43
sS'x.graphics'
p48
g6
sS'x.model'
p49
g6
sS'model.dep_ut'
p50
g10
sS'exprs'
p51
g28
sS'gr_i'
p52
g10
sS'graphics.exprs'
p53
NsS'y'
p54
g10
sS'x'
p55
g3
sS'model'
p56
g6
sS'ot'
p57
g3
s.