c__builtin__
set
p0
((lp1
S'ci'
p2
aS'co'
p3
aS'i'
p4
aS'deptime'
p5
aS'auto0'
p6
aS'o'
p7
aS'rpar'
p8
aS'xx'
p9
aS'lab'
p10
aS'x'
p11
aS'model'
p12
aS'z'
p13
atp14
Rp15
.(dp0
S'exprs[1-1]'
p1
NsS'ci'
p2
S'double'
p3
sS'co'
p4
g3
sS'arg1'
p5
S'object'
p6
sS'graphics'
p7
g6
sS'rpar'
p8
S'vector'
p9
sS'xx'
p10
g9
sS'model.dep_ut'
p11
g9
sS'model.out'
p12
g3
sS'model.dstate'
p13
g9
sS'out'
p14
g3
sS'ni'
p15
g3
sS'model.in1'
p16
g3
sS'model.ipar'
p17
g3
sS'clkin'
p18
g9
sS'dep_ut[2-1]'
p19
S'boolean'
p20
sS'no'
p21
g3
sS'z0'
p22
g9
sS'[ok,tt,dep_ut]'
p23
g3
sS'model.evtin'
p24
g9
sS'exprs[2-1]'
p25
NsS'model.firing'
p26
g9
sS'model.sim'
p27
S'list'
p28
sS'model.evtout'
p29
g9
sS'clkout'
p30
g9
sS'exprs[1-1][9-1]'
p31
S'string'
p32
sS'[this.model,graphics,ok]'
p33
g28
sS'in1'
p34
g3
sS'model.rpar'
p35
g9
sS'nci'
p36
g3
sS'model.state'
p37
g9
sS'nco'
p38
g3
sS'x0'
p39
g9
sS'nrp'
p40
g3
sS'typ'
p41
g32
sS'model.opar'
p42
g28
sS'needcompile'
p43
g3
sS'model.blocktype'
p44
g32
sS'auto'
p45
g9
sS'i'
p46
g3
sS'x.graphics'
p47
g6
sS'x.model'
p48
g6
sS'o'
p49
g3
sS'exprs'
p50
g28
sS'gr_i'
p51
g9
sS'graphics.exprs'
p52
NsS'y'
p53
g9
sS'x'
p54
g3
sS'model'
p55
g6
sS'z'
p56
g9
s.