c__builtin__
set
p0
((lp1
S'ci'
p2
aS'co'
p3
aS'i'
p4
aS'deptime'
p5
aS'auto0'
p6
aS'o'
p7
aS'rpar'
p8
aS'xx'
p9
aS'lab'
p10
aS'x'
p11
aS'z'
p12
atp13
Rp14
.(dp0
S'exprs[1-1]'
p1
NsS'model.dstate'
p2
S'vector'
p3
sS'arg1'
p4
S'object'
p5
sS'graphics'
p6
g5
sS'it'
p7
S'double'
p8
sS'model.intyp'
p9
g8
sS'z0'
p10
g3
sS'this.x.model'
p11
g5
sS'model.out'
p12
g8
sS'out'
p13
g8
sS'ni'
p14
g8
sS'model.in1'
p15
g8
sS'model.ipar'
p16
g8
sS'clkin'
p17
g3
sS'dep_ut[2-1]'
p18
S'boolean'
p19
sS'no'
p20
g8
sS'this.x.graphics'
p21
g5
sS'this.rpar'
p22
g3
sS'this.xx'
p23
g3
sS'[ok,tt,dep_ut]'
p24
g8
sS'model.evtin'
p25
g3
sS'this.ci'
p26
g8
sS'exprs[2-1]'
p27
NsS'model.firing'
p28
g3
sS'this.co'
p29
g8
sS'this.x'
p30
g8
sS'model.sim'
p31
g3
sS'this.z'
p32
g3
sS'clkout'
p33
g3
sS'model.in2'
p34
g8
sS'auto'
p35
g3
sS'model.out2'
p36
g8
sS'in1'
p37
g8
sS'model.rpar'
p38
NsS'nci'
p39
g8
sS'model.state'
p40
g3
sS'nco'
p41
g8
sS'model.outtyp'
p42
g8
sS'x0'
p43
g3
sS'nrp'
p44
g8
sS'typ'
p45
S'string'
p46
sS'model.opar'
p47
g3
sS'needcompile'
p48
g8
sS'[model,graphics,ok]'
p49
g8
sS'model.blocktype'
p50
g46
sS'model.dep_ut'
p51
g3
sS'exprs'
p52
g3
sS'gr_i'
p53
g3
sS'graphics.exprs'
p54
NsS'y'
p55
g3
sS'model'
p56
g8
sS'ot'
p57
g8
sS'model.evtout'
p58
g3
s.