c__builtin__
set
p0
((lp1
S'ci'
p2
aS'co'
p3
aS'i'
p4
aS'deptime'
p5
aS'auto0'
p6
aS'o'
p7
aS'rpar'
p8
aS'xx'
p9
aS'graphics'
p10
aS'x'
p11
aS'model'
p12
aS'z'
p13
atp14
Rp15
.(dp0
S'exprs[1-1]'
p1
NsS'ci'
p2
S'double'
p3
sS'co'
p4
g3
sS'arg1'
p5
S'object'
p6
sS'graphics'
p7
g6
sS'it'
p8
g3
sS'rpar'
p9
S'vector'
p10
sS'xx'
p11
g10
sS'model.out'
p12
g3
sS'model.dstate'
p13
g10
sS'out'
p14
g3
sS'ni'
p15
g3
sS'model.intyp'
p16
g3
sS'model.ipar'
p17
g3
sS'clkin'
p18
g10
sS'dep_ut[2-1]'
p19
S'boolean'
p20
sS'no'
p21
g3
sS'z0'
p22
g10
sS'model.evtin'
p23
g10
sS'exprs[2-1]'
p24
NsS'model.firing'
p25
g10
sS'model.sim'
p26
S'list'
p27
sS'model.evtout'
p28
g10
sS'clkout'
p29
g10
sS'model.in2'
p30
g3
sS'auto'
p31
g10
sS'model.out2'
p32
g3
sS'in1'
p33
g3
sS'model.rpar'
p34
g10
sS'nci'
p35
g3
sS'model.state'
p36
g10
sS'model.in'
p37
g3
sS'nco'
p38
g3
sS'model.outtyp'
p39
g3
sS'x0'
p40
g10
sS'nrp'
p41
g3
sS'typ'
p42
S'string'
p43
sS'model.opar'
p44
g27
sS'needcompile'
p45
g3
sS'z'
p46
g10
sS'model.blocktype'
p47
g43
sS'x.graphics'
p48
g6
sS'x.model'
p49
g6
sS'model.dep_ut'
p50
S'vector_boolean'
p51
sS'exprs'
p52
g27
sS'gr_i'
p53
g10
sS'graphics.exprs'
p54
NsS'y'
p55
g10
sS'x'
p56
NsS'model'
p57
g6
sS'ot'
p58
g3
s.