c__builtin__
set
p0
((lp1
S'ci'
p2
aS'co'
p3
aS'i'
p4
aS'deptime'
p5
aS'auto0'
p6
aS'o'
p7
aS'rpar'
p8
aS'exprs'
p9
aS'xx'
p10
aS'gr_i'
p11
aS'lab'
p12
aS'graphics'
p13
aS'x'
p14
aS'model'
p15
aS'z'
p16
atp17
Rp18
.(dp0
S'exprs[1-1]'
p1
NsS'ci'
p2
S'double'
p3
sS'co'
p4
g3
sS'arg1'
p5
S'object'
p6
sS'graphics'
p7
g6
sS'rpar'
p8
S'vector'
p9
sS'xx'
p10
g9
sS'model.dep_ut'
p11
S'vector_boolean'
p12
sS'model.out'
p13
g3
sS'model.dstate'
p14
g9
sS'out'
p15
g3
sS'ni'
p16
g3
sS'model.ipar'
p17
g3
sS'clkin'
p18
g9
sS'dep_ut[2-1]'
p19
S'boolean'
p20
sS'no'
p21
g3
sS'z0'
p22
g9
sS'auto'
p23
g9
sS'model.evtin'
p24
g9
sS'exprs[2-1]'
p25
NsS'model.firing'
p26
g9
sS'model.sim'
p27
S'list'
p28
sS'model.evtout'
p29
g9
sS'clkout'
p30
g9
sS'exprs[1-1][9-1]'
p31
S'string'
p32
sS'in1'
p33
g3
sS'model.rpar'
p34
g9
sS'nci'
p35
g3
sS'model.state'
p36
g9
sS'model.in'
p37
g3
sS'nco'
p38
g3
sS'x0'
p39
g9
sS'nrp'
p40
g3
sS'typ'
p41
g32
sS'model.opar'
p42
g28
sS'needcompile'
p43
g3
sS'model.blocktype'
p44
g32
sS'i'
p45
g3
sS'x.graphics'
p46
g6
sS'x.model'
p47
g6
sS'o'
p48
g3
sS'exprs'
p49
g28
sS'gr_i'
p50
g9
sS'graphics.exprs'
p51
NsS'y'
p52
g9
sS'x'
p53
NsS'model'
p54
g6
sS'z'
p55
g9
s.