c__builtin__
set
p0
((lp1
S'ci'
p2
aS'co'
p3
aS'i'
p4
aS'deptime'
p5
aS'auto0'
p6
aS'o'
p7
aS'rpar'
p8
aS'xx'
p9
aS'graphics'
p10
aS'x'
p11
aS'model'
p12
aS'z'
p13
atp14
Rp15
.(dp0
S'exprs[1-1]'
p1
NsS'ci'
p2
S'double'
p3
sS'co'
p4
g3
sS'graphics'
p5
S'object'
p6
sS'it'
p7
g3
sS'rpar'
p8
S'vector'
p9
sS'xx'
p10
g9
sS'model.out'
p11
g3
sS'model.dstate'
p12
g9
sS'out'
p13
g3
sS'ni'
p14
g3
sS'model.intyp'
p15
g3
sS'model.ipar'
p16
g3
sS'clkin'
p17
g9
sS'dep_ut[2-1]'
p18
S'boolean'
p19
sS'no'
p20
g3
sS'z0'
p21
g9
sS'model.evtin'
p22
g9
sS'exprs[2-1]'
p23
NsS'model.firing'
p24
g9
sS'model.sim'
p25
S'list'
p26
sS'model.evtout'
p27
g9
sS'clkout'
p28
g9
sS'model.in2'
p29
g3
sS'auto'
p30
g9
sS'model.out2'
p31
g3
sS'in1'
p32
g3
sS'model.rpar'
p33
g9
sS'nci'
p34
g3
sS'model.state'
p35
g9
sS'model.in'
p36
g3
sS'nco'
p37
g3
sS'model.outtyp'
p38
g3
sS'x0'
p39
g9
sS'nrp'
p40
g3
sS'typ'
p41
S'string'
p42
sS'model.opar'
p43
g26
sS'needcompile'
p44
g3
sS'z'
p45
g9
sS'model.blocktype'
p46
g42
sS'x.graphics'
p47
g6
sS'x.model'
p48
g6
sS'model.dep_ut'
p49
S'vector_boolean'
p50
sS'exprs'
p51
g26
sS'gr_i'
p52
g9
sS'graphics.exprs'
p53
NsS'y'
p54
g9
sS'x'
p55
g9
sS'model'
p56
g6
sS'ot'
p57
g3
s.