c__builtin__
set
p0
((lp1
S'ci'
p2
aS'co'
p3
aS'i'
p4
aS'deptime'
p5
aS'auto0'
p6
aS'o'
p7
aS'rpar'
p8
aS'xx'
p9
aS'lab'
p10
aS'x'
p11
aS'model'
p12
aS'z'
p13
atp14
Rp15
.(dp0
S'exprs[1-1]'
p1
NsS'ci'
p2
S'double'
p3
sS'co'
p4
g3
sS'arg1'
p5
S'object'
p6
sS'graphics'
p7
g6
sS'it'
p8
g3
sS'rpar'
p9
S'vector'
p10
sS'xx'
p11
g10
sS'model.intyp'
p12
g3
sS'model.out'
p13
g3
sS'model.dstate'
p14
g10
sS'out'
p15
g3
sS'ni'
p16
g3
sS'model.in1'
p17
g3
sS'model.ipar'
p18
g3
sS'clkin'
p19
g10
sS'dep_ut[2-1]'
p20
S'boolean'
p21
sS'no'
p22
g3
sS'z0'
p23
g10
sS'[ok,tt,dep_ut]'
p24
g3
sS'model.evtin'
p25
g10
sS'exprs[2-1]'
p26
NsS'model.firing'
p27
g10
sS'model.sim'
p28
S'list'
p29
sS'model.evtout'
p30
g10
sS'clkout'
p31
g10
sS'model.in2'
p32
g3
sS'auto'
p33
g10
sS'[this.model,graphics,ok]'
p34
g3
sS'model.out2'
p35
g3
sS'in1'
p36
g3
sS'model.rpar'
p37
g10
sS'nci'
p38
g3
sS'model.state'
p39
g10
sS'nco'
p40
g3
sS'model.outtyp'
p41
g3
sS'x0'
p42
g10
sS'nrp'
p43
g3
sS'typ'
p44
S'string'
p45
sS'model.opar'
p46
g29
sS'needcompile'
p47
g3
sS'z'
p48
g10
sS'model.blocktype'
p49
g45
sS'x.graphics'
p50
g6
sS'x.model'
p51
g6
sS'model.dep_ut'
p52
g10
sS'exprs'
p53
g29
sS'gr_i'
p54
g10
sS'graphics.exprs'
p55
NsS'y'
p56
g10
sS'x'
p57
g3
sS'model'
p58
g6
sS'ot'
p59
g3
s.