c__builtin__
set
p0
((lp1
S'ci'
p2
aS'co'
p3
aS'i'
p4
aS'deptime'
p5
aS'auto0'
p6
aS'o'
p7
aS'rpar'
p8
aS'xx'
p9
aS'lab'
p10
aS'graphics'
p11
aS'x'
p12
aS'model'
p13
aS'z'
p14
atp15
Rp16
.(dp0
S'exprs[1-1]'
p1
NsS'ci'
p2
S'double'
p3
sS'co'
p4
g3
sS'arg1'
p5
S'object'
p6
sS'graphics'
p7
g6
sS'rpar'
p8
S'vector'
p9
sS'xx'
p10
g9
sS'model.dep_ut'
p11
g9
sS'model.out'
p12
g3
sS'model.dstate'
p13
g9
sS'out'
p14
g3
sS'ni'
p15
g3
sS'model.in1'
p16
g3
sS'model.ipar'
p17
g3
sS'clkin'
p18
g9
sS'dep_ut[2-1]'
p19
S'boolean'
p20
sS'no'
p21
g3
sS'z0'
p22
g9
sS'auto'
p23
g9
sS'model.evtin'
p24
g9
sS'exprs[2-1]'
p25
NsS'model.firing'
p26
g9
sS'model.sim'
p27
S'list'
p28
sS'model.evtout'
p29
g9
sS'clkout'
p30
g9
sS'exprs[1-1][9-1]'
p31
S'string'
p32
sS'in1'
p33
g3
sS'model.rpar'
p34
g9
sS'nci'
p35
g3
sS'model.state'
p36
g9
sS'nco'
p37
g3
sS'x0'
p38
g9
sS'nrp'
p39
g3
sS'typ'
p40
g32
sS'model.opar'
p41
g28
sS'needcompile'
p42
g3
sS'model.blocktype'
p43
g32
sS'i'
p44
g3
sS'x.graphics'
p45
g6
sS'x.model'
p46
g6
sS'o'
p47
g3
sS'exprs'
p48
g28
sS'gr_i'
p49
g9
sS'graphics.exprs'
p50
NsS'y'
p51
g9
sS'x'
p52
g3
sS'model'
p53
g6
sS'z'
p54
g9
s.