c__builtin__
set
p0
((lp1
S'ci'
p2
aS'co'
p3
aS'i'
p4
aS'deptime'
p5
aS'auto0'
p6
aS'o'
p7
aS'rpar'
p8
aS'xx'
p9
aS'lab'
p10
aS'x'
p11
aS'z'
p12
atp13
Rp14
.(dp0
S'exprs[1-1]'
p1
NsS'model.dstate'
p2
S'vector'
p3
sS'arg1'
p4
S'object'
p5
sS'nco'
p6
S'double'
p7
sS'model.evtout'
p8
g3
sS'z0'
p9
g3
sS'this.x.model'
p10
g5
sS'model.out'
p11
g7
sS'out'
p12
g7
sS'ni'
p13
g7
sS'graphics'
p14
g5
sS'model.ipar'
p15
g7
sS'clkin'
p16
g3
sS'dep_ut[2-1]'
p17
S'boolean'
p18
sS'no'
p19
g7
sS'this.x.graphics'
p20
g5
sS'this.rpar'
p21
g3
sS'this.xx'
p22
g3
sS'[ok,tt,dep_ut]'
p23
g7
sS'model.evtin'
p24
g3
sS'this.ci'
p25
g7
sS'exprs[2-1]'
p26
NsS'model.firing'
p27
g3
sS'this.co'
p28
g7
sS'this.x'
p29
g7
sS'model.sim'
p30
g3
sS'this.z'
p31
g3
sS'clkout'
p32
g3
sS'exprs[1-1][9-1]'
p33
S'string'
p34
sS'in1'
p35
g7
sS'model.rpar'
p36
NsS'model.in1'
p37
g7
sS'this.i'
p38
g7
sS'model.state'
p39
g3
sS'this.o'
p40
g7
sS'x0'
p41
g3
sS'nrp'
p42
g7
sS'typ'
p43
g34
sS'model.opar'
p44
g3
sS'needcompile'
p45
g7
sS'[model,graphics,ok]'
p46
g7
sS'model.blocktype'
p47
g34
sS'auto'
p48
g3
sS'nci'
p49
g7
sS'model.dep_ut'
p50
g3
sS'exprs'
p51
g3
sS'gr_i'
p52
g3
sS'graphics.exprs'
p53
NsS'y'
p54
g3
sS'model'
p55
g7
s.