c__builtin__
set
p0
((lp1
S'ci'
p2
aS'co'
p3
aS'i'
p4
aS'deptime'
p5
aS'auto0'
p6
aS'o'
p7
aS'rpar'
p8
aS'xx'
p9
aS'lab'
p10
aS'x'
p11
aS'z'
p12
atp13
Rp14
.(dp0
S'exprs[1-1]'
p1
NsS'ci'
p2
S'double'
p3
sS'co'
p4
g3
sS'arg1'
p5
S'object'
p6
sS'graphics'
p7
g6
sS'it'
p8
g3
sS'rpar'
p9
S'vector'
p10
sS'xx'
p11
g10
sS'model.intyp'
p12
g3
sS'model.out'
p13
g3
sS'model.dstate'
p14
g10
sS'out'
p15
g3
sS'ni'
p16
g3
sS'model.in1'
p17
g3
sS'model.ipar'
p18
g3
sS'clkin'
p19
g10
sS'dep_ut[2-1]'
p20
S'boolean'
p21
sS'no'
p22
g3
sS'z0'
p23
g10
sS'[ok,tt,dep_ut]'
p24
g3
sS'model.evtin'
p25
g10
sS'exprs[2-1]'
p26
NsS'model.firing'
p27
g10
sS'model.sim'
p28
g10
sS'model.evtout'
p29
g10
sS'clkout'
p30
g10
sS'model.in2'
p31
g3
sS'auto'
p32
g10
sS'model.out2'
p33
g3
sS'in1'
p34
g3
sS'model.rpar'
p35
g10
sS'nci'
p36
g3
sS'model.state'
p37
g10
sS'nco'
p38
g3
sS'model.outtyp'
p39
g3
sS'x0'
p40
g10
sS'nrp'
p41
g3
sS'typ'
p42
S'string'
p43
sS'model.opar'
p44
g10
sS'needcompile'
p45
g3
sS'[model,graphics,ok]'
p46
g3
sS'z'
p47
g10
sS'model.blocktype'
p48
g43
sS'x.graphics'
p49
g6
sS'x.model'
p50
g6
sS'model.dep_ut'
p51
g10
sS'exprs'
p52
g10
sS'gr_i'
p53
g10
sS'graphics.exprs'
p54
NsS'y'
p55
g10
sS'x'
p56
g3
sS'model'
p57
g6
sS'ot'
p58
g3
s.