c__builtin__
set
p0
((lp1
S'x'
p2
atp3
Rp4
.(dp0
S'this.x'
p1
S'double'
p2
sS'model.sim'
p3
S'string'
p4
sS'model.in1'
p5
g2
sS'model.blocktype'
p6
g4
sS'model.dep_ut'
p7
S'vector'
p8
sS'model.out'
p9
S'matrix'
p10
sS'y'
p11
g8
sS'model'
p12
g2
sS'typ'
p13
g8
s.