c__builtin__
set
p0
((lp1
S'x'
p2
aS'model'
p3
aS'graphics'
p4
atp5
Rp6
.(dp0
S'model.sim'
p1
S'string'
p2
sS'model.blocktype'
p3
g2
sS'model.dep_ut'
p4
S'vector_boolean'
p5
sS'model.out'
p6
S'matrix'
p7
sS'model.in'
p8
S'double'
p9
sS'y'
p10
S'vector'
p11
sS'x'
p12
g11
sS'model'
p13
S'object'
p14
sS'typ'
p15
g11
s.