c__builtin__
set
p0
((lp1
S'x'
p2
aS'model'
p3
aS'gr_i'
p4
aS'exprs'
p5
aS'graphics'
p6
atp7
Rp8
.(dp0
S'model.sim'
p1
S'string'
p2
sS'model.blocktype'
p3
g2
sS'model.dep_ut'
p4
S'vector'
p5
sS'model.out'
p6
S'matrix'
p7
sS'model.in'
p8
S'double'
p9
sS'y'
p10
g5
sS'x'
p11
g9
sS'model'
p12
S'object'
p13
sS'typ'
p14
g5
s.