c__builtin__
set
p0
((lp1
S'x'
p2
aS'model'
p3
aS'gr_i'
p4
aS'exprs'
p5
aS'graphics'
p6
atp7
Rp8
.(dp0
S'scs.objs[2-1]'
p1
S'object'
p2
sS'arg1'
p3
g2
sS'scs.objs[1-1]'
p4
g2
sS'scs.props.title'
p5
S'string'
p6
sS'model.out'
p7
S'double'
p8
sS'scs'
p9
g8
sS'out'
p10
g2
sS'model.sim'
p11
g6
sS'in1'
p12
g2
sS'model.rpar'
p13
g8
sS'model.in'
p14
g8
sS'in1.graphics.orig'
p15
S'vector'
p16
sS'out.graphics.orig'
p17
g16
sS'typ'
p18
g16
sS'in1.graphics.sz'
p19
g16
sS'arg1.model'
p20
g2
sS'model.blocktype'
p21
g6
sS'model.dep_ut'
p22
S'vector_boolean'
p23
sS'out.graphics.sz'
p24
g16
sS'gr_i'
p25
g16
sS'y'
p26
g16
sS'x'
p27
g16
sS'model'
p28
g2
s.