c__builtin__
set
p0
((lp1
S'x'
p2
atp3
Rp4
.(dp0
S'arg1'
p1
S'object'
p2
sS'scs.objs[1-1]'
p3
g2
sS'scs.props.title'
p4
S'string'
p5
sS'model.out'
p6
S'double'
p7
sS'scs'
p8
g7
sS'out'
p9
g2
sS'model.in1'
p10
g7
sS'this.x'
p11
g7
sS'model.sim'
p12
g5
sS'in1'
p13
g2
sS'model.rpar'
p14
g7
sS'scs.objs[2-1]'
p15
g2
sS'in1.graphics.orig'
p16
S'vector'
p17
sS'out.graphics.orig'
p18
g17
sS'typ'
p19
g17
sS'in1.graphics.sz'
p20
g17
sS'arg1.model'
p21
g2
sS'model.blocktype'
p22
g5
sS'model.dep_ut'
p23
g17
sS'out.graphics.sz'
p24
g17
sS'gr_i'
p25
g17
sS'y'
p26
g17
sS'model'
p27
g2
s.