c__builtin__
set
p0
((lp1
S'x'
p2
aS'model'
p3
aS'graphics'
p4
atp5
Rp6
.(dp0
S'model.sim'
p1
S'string'
p2
sS'model.out'
p3
S'double'
p4
sS'out.graphics.orig'
p5
S'vector'
p6
sS'model.in'
p7
g4
sS'model.dep_ut'
p8
S'vector_boolean'
p9
sS'scs.objs[1-1]'
p10
S'object'
p11
sS'in1'
p12
g11
sS'scs.props.title'
p13
g2
sS'model.blocktype'
p14
g2
sS'out.graphics.sz'
p15
g6
sS'gr_i'
p16
g6
sS'model.rpar'
p17
g4
sS'scs.objs[2-1]'
p18
g11
sS'in1.graphics.orig'
p19
g6
sS'y'
p20
g6
sS'x'
p21
g6
sS'model'
p22
g11
sS'out'
p23
g11
sS'typ'
p24
g6
sS'scs'
p25
g4
sS'in1.graphics.sz'
p26
g6
s.