c__builtin__
set
p0
((lp1
S'x'
p2
aS'model'
p3
atp4
Rp5
.(dp0
S'arg1'
p1
S'object'
p2
sS'scs.objs[1-1]'
p3
g2
sS'scs.props.title'
p4
S'string'
p5
sS'model.out'
p6
S'double'
p7
sS'scs'
p8
g7
sS'out'
p9
g2
sS'model.in1'
p10
g7
sS'model.sim'
p11
g5
sS'in1'
p12
g2
sS'model.rpar'
p13
g7
sS'scs.objs[2-1]'
p14
g2
sS'in1.graphics.orig'
p15
S'vector'
p16
sS'out.graphics.orig'
p17
g16
sS'typ'
p18
g16
sS'in1.graphics.sz'
p19
g16
sS'arg1.model'
p20
g2
sS'model.blocktype'
p21
g5
sS'model.dep_ut'
p22
g16
sS'out.graphics.sz'
p23
g16
sS'gr_i'
p24
g16
sS'y'
p25
g16
sS'x'
p26
g7
sS'model'
p27
g2
s.