c__builtin__
set
p0
((lp1
S'font'
p2
aS'x'
p3
aS'txt'
p4
aS'siz'
p5
atp6
Rp7
.(dp0
S'arg1'
p1
S'object'
p2
sS'graphics'
p3
S'double'
p4
sS'this.x.model'
p5
NsS'this.siz'
p6
g4
sS'default_font_style'
p7
NsS'orig'
p8
NsS'graphics.orig'
p9
S'vector'
p10
sS'typ'
p11
g10
sS'gh_winpal'
p12
g2
sS'default_font_color'
p13
NsS'this.x'
p14
g4
sS'model.sim'
p15
S'string'
p16
sS'gh_winpal.font_style'
p17
NsS'model.rpar'
p18
g16
sS'graphics.sz'
p19
g10
sS'gh_winpal.font_size'
p20
NsS'graphics.exprs'
p21
S'matrix'
p22
sS'model.ipar'
p23
g22
sS'this.x.graphics'
p24
g2
sS'sz'
p25
g10
sS'default_font_size'
p26
NsS'ok'
p27
S'boolean'
p28
sS'this.font'
p29
g4
sS'exprs'
p30
g22
sS'r'
p31
g4
sS'ipar'
p32
g22
sS'y'
p33
g10
sS'model'
p34
g2
sS'gh_winpal.font_color'
p35
Ns.