c__builtin__
set
p0
((lp1
S'txt'
p2
aS'siz'
p3
aS'graphics'
p4
aS'x'
p5
aS'model'
p6
aS'font'
p7
atp8
Rp9
.(dp0
S'graphics'
p1
S'double'
p2
sS'x.model'
p3
NsS'font'
p4
g2
sS'default_font_style'
p5
NsS'orig'
p6
NsS'graphics.orig'
p7
S'vector'
p8
sS'x.graphics'
p9
S'object'
p10
sS'siz'
p11
g2
sS'gh_winpal'
p12
g10
sS'default_font_color'
p13
NsS'model.sim'
p14
S'string'
p15
sS'gh_winpal.font_style'
p16
NsS'model.rpar'
p17
g15
sS'graphics.sz'
p18
g8
sS'gh_winpal.font_size'
p19
NsS'graphics.exprs'
p20
S'matrix'
p21
sS'model.ipar'
p22
g21
sS'typ'
p23
g8
sS'sz'
p24
g8
sS'default_font_size'
p25
NsS'ok'
p26
S'boolean'
p27
sS'exprs'
p28
g21
sS'r'
p29
g2
sS'ipar'
p30
g21
sS'y'
p31
g8
sS'x'
p32
g2
sS'model'
p33
g10
sS'gh_winpal.font_color'
p34
Ns.