c__builtin__
set
p0
((lp1
S'font'
p2
aS'x'
p3
aS'model'
p4
aS'txt'
p5
aS'siz'
p6
atp7
Rp8
.(dp0
S'arg1'
p1
S'object'
p2
sS'graphics'
p3
S'double'
p4
sS'x.model'
p5
NsS'font'
p6
g4
sS'default_font_style'
p7
NsS'orig'
p8
NsS'graphics.orig'
p9
S'vector'
p10
sS'x.graphics'
p11
g2
sS'siz'
p12
g4
sS'gh_winpal'
p13
g2
sS'default_font_color'
p14
NsS'model.sim'
p15
S'string'
p16
sS'gh_winpal.font_style'
p17
NsS'model.rpar'
p18
g16
sS'graphics.sz'
p19
g10
sS'gh_winpal.font_size'
p20
NsS'graphics.exprs'
p21
S'matrix'
p22
sS'model.ipar'
p23
g22
sS'typ'
p24
g10
sS'sz'
p25
g10
sS'default_font_size'
p26
NsS'ok'
p27
S'boolean'
p28
sS'exprs'
p29
g22
sS'r'
p30
g4
sS'ipar'
p31
g22
sS'y'
p32
g10
sS'x'
p33
g4
sS'model'
p34
g2
sS'gh_winpal.font_color'
p35
Ns.