c__builtin__
set
p0
((lp1
S'exprs'
p2
aS'gr_i'
p3
aS'zcr'
p4
aS'graphics'
p5
aS'x'
p6
aS'model'
p7
atp8
Rp9
.(dp0
S'model.sim'
p1
S'list'
p2
sS'model.out'
p3
S'double'
p4
sS'model.blocktype'
p5
S'string'
p6
sS'x.graphics'
p7
S'object'
p8
sS'arg1'
p9
g8
sS'graphics.exprs'
p10
NsS'model.nmode'
p11
g4
sS'model.dep_ut'
p12
S'vector_boolean'
p13
sS'model.nzcross'
p14
g4
sS'exprs'
p15
S'vector_string'
p16
sS'x.model'
p17
NsS'gr_i'
p18
S'vector'
p19
sS'model.in'
p20
g4
sS'graphics'
p21
g8
sS'y'
p22
g19
sS'x'
p23
NsS'model'
p24
g8
sS'typ'
p25
g19
sS'nu'
p26
g4
s.