c__builtin__
set
p0
((lp1
S'x'
p2
aS'zcr'
p3
atp4
Rp5
.(dp0
S'this.x'
p1
S'double'
p2
sS'model.sim'
p3
S'vector'
p4
sS'model.in1'
p5
g2
sS'model.blocktype'
p6
S'string'
p7
sS'this.x.model'
p8
NsS'this.x.graphics'
p9
S'object'
p10
sS'arg1'
p11
g10
sS'graphics.exprs'
p12
NsS'model.nmode'
p13
g2
sS'model.out'
p14
g2
sS'model.nzcross'
p15
g2
sS'exprs'
p16
g4
sS'gr_i'
p17
g4
sS'model.dep_ut'
p18
g4
sS'graphics'
p19
g10
sS'y'
p20
g4
sS'model'
p21
g10
sS'typ'
p22
g4
sS'nu'
p23
g2
s.