c__builtin__
set
p0
((lp1
S'exprs'
p2
aS'gr_i'
p3
aS'zcr'
p4
aS'graphics'
p5
aS'x'
p6
aS'model'
p7
atp8
Rp9
.(dp0
S'model.sim'
p1
S'list'
p2
sS'model.out'
p3
S'double'
p4
sS'model.blocktype'
p5
S'string'
p6
sS'x.graphics'
p7
S'object'
p8
sS'arg1'
p9
g8
sS'graphics.exprs'
p10
NsS'model.nmode'
p11
g4
sS'model.dep_ut'
p12
S'vector_boolean'
p13
sS'model.nzcross'
p14
g4
sS'exprs'
p15
S'vector'
p16
sS'x.model'
p17
NsS'gr_i'
p18
g16
sS'model.in'
p19
g4
sS'graphics'
p20
g8
sS'y'
p21
g16
sS'x'
p22
NsS'model'
p23
g8
sS'typ'
p24
g16
sS'nu'
p25
g4
s.