c__builtin__
set
p0
((lp1
S'x'
p2
aS'model'
p3
aS'gr_i'
p4
aS'exprs'
p5
aS'graphics'
p6
atp7
Rp8
.(dp0
S'model.sim'
p1
S'list'
p2
sS'model.blocktype'
p3
S'string'
p4
sS'model.dep_ut'
p5
S'vector_boolean'
p6
sS'model.out'
p7
S'double'
p8
sS'gr_i'
p9
S'vector'
p10
sS'model.in'
p11
g8
sS'y'
p12
g10
sS'x'
p13
NsS'model'
p14
S'object'
p15
sS'typ'
p16
g10
s.