c__builtin__
set
p0
((lp1
S'x'
p2
aS'model'
p3
atp4
Rp5
.(dp0
S'model.sim'
p1
S'vector'
p2
sS'model.in1'
p3
S'double'
p4
sS'model.blocktype'
p5
S'string'
p6
sS'model.dep_ut'
p7
g2
sS'model.out'
p8
g4
sS'gr_i'
p9
g2
sS'y'
p10
g2
sS'x'
p11
g4
sS'model'
p12
S'object'
p13
sS'typ'
p14
g2
s.