c__builtin__
set
p0
((lp1
S'x'
p2
atp3
Rp4
.(dp0
S'this.x'
p1
S'double'
p2
sS'model.sim'
p3
S'string'
p4
sS'model.in1'
p5
g2
sS'model.blocktype'
p6
g4
sS'in1'
p7
g2
sS'model.dep_ut'
p8
S'vector'
p9
sS'model.out'
p10
g2
sS'gr_i'
p11
g9
sS'y'
p12
g9
sS'model'
p13
g2
sS'typ'
p14
g9
s.