c__builtin__
set
p0
((lp1
S'x'
p2
aS'model'
p3
aS'gr_i'
p4
aS'exprs'
p5
aS'graphics'
p6
atp7
Rp8
.(dp0
S'model.sim'
p1
S'string'
p2
sS'model.blocktype'
p3
g2
sS'in1'
p4
S'double'
p5
sS'model.dep_ut'
p6
S'vector'
p7
sS'model.out'
p8
g5
sS'gr_i'
p9
g7
sS'model.in'
p10
g5
sS'y'
p11
g7
sS'x'
p12
g5
sS'model'
p13
S'object'
p14
sS'typ'
p15
g7
s.