c__builtin__
set
p0
((lp1
S'last_y'
p2
aS'g'
p3
aS'last_u'
p4
aS'rd'
p5
aS'p'
p6
aS'graphics'
p7
aS'x'
p8
aS'model'
p9
aS'rn'
p10
atp11
Rp12
.(dp0
S'model.dstate'
p1
S'matrix'
p2
sS'arg1'
p3
S'object'
p4
sS'graphics'
p5
g4
sS'rpar'
p6
g2
sS'x.model'
p7
NsS'model.out'
p8
S'double'
p9
sS'model.in1'
p10
g2
sS'x.graphics'
p11
g4
sS'rd'
p12
g2
sS'model.evtin'
p13
g9
sS'rn'
p14
S'vector'
p15
sS'model.firing'
p16
g15
sS'model.sim'
p17
S'string'
p18
sS'last_y'
p19
g2
sS'exprs'
p20
g2
sS'model.rpar'
p21
g2
sS'last_u'
p22
g15
sS'graphics.exprs'
p23
NsS'model.ipar'
p24
g2
sS'typ'
p25
g15
sS'model.blocktype'
p26
g18
sS'g'
p27
g2
sS'm'
p28
g9
sS'model.dep_ut'
p29
g15
sS'p'
p30
g2
sS'gr_i'
p31
g15
sS'ipar'
p32
g2
sS'y'
p33
g15
sS'x'
p34
g9
sS'model'
p35
g4
s.