c__builtin__
set
p0
((lp1
S'last_y'
p2
aS'g'
p3
aS'last_u'
p4
aS'rd'
p5
aS'p'
p6
aS'x'
p7
aS'rn'
p8
atp9
Rp10
.(dp0
S'model.dstate'
p1
S'matrix'
p2
sS'this.rd'
p3
g2
sS'arg1'
p4
S'object'
p5
sS'graphics'
p6
g5
sS'this.rn'
p7
S'vector'
p8
sS'rpar'
p9
g2
sS'this.x.model'
p10
NsS'model.out'
p11
S'double'
p12
sS'model.in1'
p13
g2
sS'typ'
p14
g8
sS'model.evtin'
p15
g12
sS'model.firing'
p16
g8
sS'this.x'
p17
g12
sS'model.sim'
p18
S'string'
p19
sS'this.p'
p20
g2
sS'model.rpar'
p21
g2
sS'model.blocktype'
p22
g19
sS'graphics.exprs'
p23
NsS'model.ipar'
p24
g2
sS'this.x.graphics'
p25
g5
sS'this.g'
p26
g2
sS'this.last_y'
p27
g2
sS'[npt,n]'
p28
g12
sS'm'
p29
g12
sS'model.dep_ut'
p30
g8
sS'exprs'
p31
g2
sS'gr_i'
p32
g8
sS'ipar'
p33
g2
sS'this.last_u'
p34
g8
sS'y'
p35
g8
sS'model'
p36
g5
s.