c__builtin__
set
p0
((lp1
S'last_y'
p2
aS'g'
p3
aS'last_u'
p4
aS'rd'
p5
aS'p'
p6
aS'graphics'
p7
aS'x'
p8
aS'model'
p9
aS'rn'
p10
atp11
Rp12
.(dp0
S'model.dstate'
p1
S'matrix'
p2
sS'graphics'
p3
S'object'
p4
sS'rpar'
p5
g2
sS'x.model'
p6
NsS'model.out'
p7
S'double'
p8
sS'x.graphics'
p9
g4
sS'rd'
p10
g2
sS'model.evtin'
p11
g8
sS'rn'
p12
S'vector'
p13
sS'model.firing'
p14
g13
sS'model.sim'
p15
S'string'
p16
sS'last_y'
p17
g2
sS'exprs'
p18
g2
sS'model.rpar'
p19
g2
sS'last_u'
p20
g13
sS'model.in'
p21
g2
sS'graphics.exprs'
p22
NsS'model.ipar'
p23
g2
sS'typ'
p24
g13
sS'model.blocktype'
p25
g16
sS'g'
p26
g2
sS'm'
p27
g8
sS'model.dep_ut'
p28
S'vector_boolean'
p29
sS'p'
p30
g2
sS'gr_i'
p31
g13
sS'ipar'
p32
g2
sS'y'
p33
g13
sS'x'
p34
g13
sS'model'
p35
g4
s.