c__builtin__
set
p0
((lp1
S'last_y'
p2
aS'g'
p3
aS'p'
p4
aS'last_u'
p5
aS'rd'
p6
aS'exprs'
p7
aS'gr_i'
p8
aS'graphics'
p9
aS'x'
p10
aS'model'
p11
aS'rn'
p12
atp13
Rp14
.(dp0
S'model.dstate'
p1
S'matrix'
p2
sS'arg1'
p3
S'object'
p4
sS'graphics'
p5
g4
sS'rpar'
p6
g2
sS'x.model'
p7
NsS'model.out'
p8
S'double'
p9
sS'x.graphics'
p10
g4
sS'rd'
p11
g2
sS'model.evtin'
p12
g9
sS'rn'
p13
S'vector'
p14
sS'model.firing'
p15
g14
sS'model.sim'
p16
S'string'
p17
sS'last_y'
p18
g2
sS'exprs'
p19
g2
sS'model.rpar'
p20
g2
sS'last_u'
p21
g14
sS'model.in'
p22
g2
sS'graphics.exprs'
p23
NsS'model.ipar'
p24
g2
sS'typ'
p25
g14
sS'model.blocktype'
p26
g17
sS'g'
p27
g2
sS'm'
p28
g9
sS'model.dep_ut'
p29
S'vector_boolean'
p30
sS'p'
p31
g2
sS'gr_i'
p32
g14
sS'ipar'
p33
g2
sS'y'
p34
g14
sS'x'
p35
NsS'model'
p36
g4
s.