c__builtin__
set
p0
((lp1
S'a'
p2
aS'x'
p3
atp4
Rp5
.(dp0
S'this.x'
p1
S'double'
p2
sS'model.sim'
p3
S'string'
p4
sS'model.in1'
p5
g2
sS'model.blocktype'
p6
g4
sS'this.x.graphics'
p7
S'object'
p8
sS'arg1'
p9
g8
sS'graphics.exprs'
p10
g2
sS'in1'
p11
g2
sS'model.rpar'
p12
NsS'this.x.model'
p13
NsS'exprs'
p14
S'vector'
p15
sS'gr_i'
p16
g15
sS'model.dep_ut'
p17
g15
sS'graphics'
p18
g8
sS'y'
p19
g15
sS'this.a'
p20
g2
sS'model'
p21
g2
sS'typ'
p22
g15
sS'model.out'
p23
g2
s.