c__builtin__
set
p0
((lp1
S'a'
p2
aS'x'
p3
atp4
Rp5
.(dp0
S'arg1'
p1
S'object'
p2
sS'graphics'
p3
g2
sS'model.intyp'
p4
S'double'
p5
sS'this.x.model'
p6
NsS'model.out'
p7
g5
sS'model.in2'
p8
g5
sS'model.in1'
p9
g5
sS'typ'
p10
S'vector'
p11
sS'this.x'
p12
g5
sS'model.sim'
p13
g11
sS'model.out2'
p14
g5
sS'in1'
p15
g5
sS'model.rpar'
p16
NsS'model.outtyp'
p17
g5
sS'graphics.exprs'
p18
g5
sS'this.a'
p19
g5
sS'this.x.graphics'
p20
g2
sS'model.blocktype'
p21
S'string'
p22
sS'model.dep_ut'
p23
g11
sS'exprs'
p24
g11
sS'gr_i'
p25
g11
sS'y'
p26
g11
sS'model'
p27
g2
s.