c__builtin__
set
p0
((lp1
S'a'
p2
aS'x'
p3
aS'model'
p4
aS'graphics'
p5
atp6
Rp7
.(dp0
S'arg1'
p1
S'object'
p2
sS'graphics'
p3
g2
sS'x.model'
p4
NsS'model.out'
p5
S'double'
p6
sS'model.in2'
p7
g6
sS'model.intyp'
p8
g6
sS'x.graphics'
p9
g2
sS'model.sim'
p10
S'list'
p11
sS'model.out2'
p12
g6
sS'in1'
p13
g6
sS'model.rpar'
p14
g6
sS'y'
p15
S'vector'
p16
sS'model.in'
p17
g6
sS'graphics.exprs'
p18
g6
sS'typ'
p19
g16
sS'a'
p20
g6
sS'model.blocktype'
p21
S'string'
p22
sS'model.dep_ut'
p23
S'vector_boolean'
p24
sS'exprs'
p25
S'vector_string'
p26
sS'gr_i'
p27
g16
sS'model.outtyp'
p28
g6
sS'x'
p29
NsS'model'
p30
g2
s.