c__builtin__
set
p0
((lp1
S'a'
p2
aS'x'
p3
atp4
Rp5
.(dp0
S'arg1'
p1
S'object'
p2
sS'graphics'
p3
g2
sS'x.model'
p4
NsS'model.intyp'
p5
S'double'
p6
sS'model.out'
p7
g6
sS'model.in2'
p8
g6
sS'model.in1'
p9
g6
sS'x.graphics'
p10
g2
sS'model.sim'
p11
S'vector'
p12
sS'model.out2'
p13
g6
sS'in1'
p14
g6
sS'model.rpar'
p15
g6
sS'y'
p16
g12
sS'graphics.exprs'
p17
g6
sS'typ'
p18
g12
sS'a'
p19
g6
sS'model.blocktype'
p20
S'string'
p21
sS'model.dep_ut'
p22
g12
sS'exprs'
p23
g12
sS'gr_i'
p24
g12
sS'model.outtyp'
p25
g6
sS'x'
p26
g6
sS'model'
p27
g2
s.