c__builtin__
set
p0
((lp1
S'a'
p2
aS'x'
p3
aS'model'
p4
aS'graphics'
p5
atp6
Rp7
.(dp0
S'graphics.exprs'
p1
S'double'
p2
sS'x.model'
p3
NsS'model.out'
p4
g2
sS'model.in2'
p5
g2
sS'model.intyp'
p6
g2
sS'x.graphics'
p7
S'object'
p8
sS'model.sim'
p9
S'list'
p10
sS'model.out2'
p11
g2
sS'in1'
p12
g2
sS'model.rpar'
p13
g2
sS'y'
p14
S'vector'
p15
sS'model.in'
p16
g2
sS'graphics'
p17
g8
sS'typ'
p18
g15
sS'a'
p19
g2
sS'model.blocktype'
p20
S'string'
p21
sS'model.dep_ut'
p22
S'vector_boolean'
p23
sS'exprs'
p24
S'vector_string'
p25
sS'gr_i'
p26
g15
sS'model.outtyp'
p27
g2
sS'x'
p28
g15
sS'model'
p29
g8
s.