c__builtin__
set
p0
((lp1
S'a'
p2
aS'exprs'
p3
aS'gr_i'
p4
aS'graphics'
p5
aS'x'
p6
aS'model'
p7
atp8
Rp9
.(dp0
S'arg1'
p1
S'object'
p2
sS'graphics'
p3
g2
sS'x.model'
p4
NsS'model.out'
p5
S'double'
p6
sS'model.in2'
p7
g6
sS'model.intyp'
p8
g6
sS'x.graphics'
p9
g2
sS'model.sim'
p10
S'list'
p11
sS'model.out2'
p12
g6
sS'in1'
p13
g6
sS'model.rpar'
p14
g6
sS'y'
p15
S'vector'
p16
sS'model.in'
p17
g6
sS'graphics.exprs'
p18
g6
sS'typ'
p19
g16
sS'a'
p20
g6
sS'model.blocktype'
p21
S'string'
p22
sS'model.dep_ut'
p23
g16
sS'exprs'
p24
g16
sS'gr_i'
p25
g16
sS'model.outtyp'
p26
g6
sS'x'
p27
NsS'model'
p28
g2
s.