c__builtin__
set
p0
((lp1
S'a'
p2
aS'x'
p3
aS'model'
p4
aS'graphics'
p5
atp6
Rp7
.(dp0
S'a'
p1
S'double'
p2
sS'model.sim'
p3
S'string'
p4
sS'model.out'
p5
g2
sS'model.blocktype'
p6
g4
sS'x.graphics'
p7
S'object'
p8
sS'arg1'
p9
g8
sS'graphics.exprs'
p10
g2
sS'in1'
p11
g2
sS'model.rpar'
p12
g2
sS'exprs'
p13
S'vector_string'
p14
sS'x.model'
p15
NsS'gr_i'
p16
S'vector'
p17
sS'model.dep_ut'
p18
S'vector_boolean'
p19
sS'model.in'
p20
g2
sS'graphics'
p21
g8
sS'y'
p22
g17
sS'x'
p23
NsS'model'
p24
g8
sS'typ'
p25
g17
s.