c__builtin__
set
p0
((lp1
S'a'
p2
aS'exprs'
p3
aS'gr_i'
p4
aS'graphics'
p5
aS'x'
p6
aS'model'
p7
atp8
Rp9
.(dp0
S'arg1'
p1
S'object'
p2
sS'graphics'
p3
g2
sS'x.model'
p4
NsS'model.intyp'
p5
S'double'
p6
sS'model.out'
p7
g6
sS'model.in2'
p8
g6
sS'model.in1'
p9
g6
sS'x.graphics'
p10
g2
sS'model.sim'
p11
S'list'
p12
sS'model.out2'
p13
g6
sS'in1'
p14
g6
sS'model.rpar'
p15
g6
sS'y'
p16
S'vector'
p17
sS'graphics.exprs'
p18
g6
sS'typ'
p19
g17
sS'a'
p20
g6
sS'model.blocktype'
p21
S'string'
p22
sS'model.dep_ut'
p23
g17
sS'exprs'
p24
g17
sS'gr_i'
p25
g17
sS'model.outtyp'
p26
g6
sS'x'
p27
g6
sS'model'
p28
g2
s.