c__builtin__
set
p0
((lp1
S'x'
p2
aS'model'
p3
aS'gr_i'
p4
aS'exprs'
p5
aS'graphics'
p6
atp7
Rp8
.(dp0
S'model.sim'
p1
S'list'
p2
sS'model.blocktype'
p3
S'string'
p4
sS'exprs'
p5
g4
sS'in1'
p6
S'double'
p7
sS'model.dep_ut'
p8
S'vector'
p9
sS'model.out'
p10
g7
sS'gr_i'
p11
g9
sS'model.in'
p12
g7
sS'y'
p13
g9
sS'x'
p14
g7
sS'model'
p15
S'object'
p16
sS'typ'
p17
g9
s.