c__builtin__
set
p0
((lp1
S'x'
p2
atp3
Rp4
.(dp0
S'model.sim'
p1
S'vector'
p2
sS'model.in1'
p3
S'double'
p4
sS'model.blocktype'
p5
S'string'
p6
sS'exprs'
p7
g6
sS'in1'
p8
g4
sS'model.dep_ut'
p9
g2
sS'model.out'
p10
g4
sS'gr_i'
p11
g2
sS'y'
p12
g2
sS'x'
p13
g4
sS'model'
p14
S'object'
p15
sS'typ'
p16
g2
s.