c__builtin__
set
p0
((lp1
S'a'
p2
aS'c'
p3
aS'b'
p4
aS'graphics'
p5
aS'x'
p6
aS'model'
p7
atp8
Rp9
.(dp0
S'a'
p1
S'matrix'
p2
sS'model.sim'
p3
S'list'
p4
sS'c'
p5
g2
sS'b'
p6
g2
sS'model.blocktype'
p7
S'string'
p8
sS'x.graphics'
p9
S'object'
p10
sS'graphics'
p11
g10
sS'model.rpar'
p12
g2
sS'exprs'
p13
g2
sS'x.model'
p14
NsS'gr_i'
p15
S'vector'
p16
sS'model.dep_ut'
p17
S'vector_boolean'
p18
sS'model.in'
p19
g2
sS'graphics.exprs'
p20
NsS'y'
p21
g16
sS'x'
p22
g16
sS'model'
p23
g10
sS'model.ipar'
p24
g2
sS'typ'
p25
g16
sS'model.out'
p26
S'double'
p27
s.