c__builtin__
set
p0
((lp1
S'a'
p2
aS'x'
p3
aS'c'
p4
aS'b'
p5
atp6
Rp7
.(dp0
S'this.x'
p1
S'double'
p2
sS'model.sim'
p3
S'vector'
p4
sS'model.in1'
p5
S'matrix'
p6
sS'this.c'
p7
g6
sS'model.blocktype'
p8
S'string'
p9
sS'this.x.graphics'
p10
S'object'
p11
sS'arg1'
p12
g11
sS'graphics.exprs'
p13
NsS'model.rpar'
p14
g6
sS'this.x.model'
p15
NsS'exprs'
p16
g6
sS'gr_i'
p17
g4
sS'model.dep_ut'
p18
g4
sS'graphics'
p19
g11
sS'y'
p20
g4
sS'this.a'
p21
g6
sS'model'
p22
g2
sS'model.ipar'
p23
g6
sS'typ'
p24
g4
sS'this.b'
p25
g6
sS'model.out'
p26
g2
s.