c__builtin__
set
p0
((lp1
S'a'
p2
aS'x'
p3
aS'c'
p4
aS'b'
p5
atp6
Rp7
.(dp0
S'a'
p1
S'matrix'
p2
sS'model.sim'
p3
S'vector'
p4
sS'c'
p5
g2
sS'b'
p6
g2
sS'model.blocktype'
p7
S'string'
p8
sS'x.graphics'
p9
S'object'
p10
sS'arg1'
p11
g10
sS'graphics.exprs'
p12
NsS'model.in1'
p13
g2
sS'model.rpar'
p14
g2
sS'exprs'
p15
g2
sS'x.model'
p16
NsS'gr_i'
p17
g4
sS'model.dep_ut'
p18
g4
sS'graphics'
p19
g10
sS'y'
p20
g4
sS'x'
p21
S'double'
p22
sS'model'
p23
g10
sS'model.ipar'
p24
g2
sS'typ'
p25
g4
sS'model.out'
p26
g22
s.