c__builtin__
set
p0
((lp1
S'a'
p2
aS'x'
p3
aS'model'
p4
aS'b'
p5
aS'graphics'
p6
atp7
Rp8
.(dp0
S'a'
p1
S'matrix'
p2
sS'model.sim'
p3
S'string'
p4
sS'model.out'
p5
S'double'
p6
sS'b'
p7
g2
sS'model.blocktype'
p8
g4
sS'x.graphics'
p9
S'object'
p10
sS'graphics'
p11
g10
sS'model.rpar'
p12
g2
sS'exprs'
p13
g2
sS'x.model'
p14
NsS'gr_i'
p15
S'vector'
p16
sS'model.dep_ut'
p17
S'vector_boolean'
p18
sS'model.in'
p19
g6
sS'graphics.exprs'
p20
NsS'y'
p21
g16
sS'x'
p22
g16
sS'model'
p23
g10
sS'typ'
p24
g16
s.