c__builtin__
set
p0
((lp1
S'a'
p2
aS'c'
p3
aS'b'
p4
aS'graphics'
p5
aS'x'
p6
aS'model'
p7
atp8
Rp9
.(dp0
S'a'
p1
S'matrix'
p2
sS'model.sim'
p3
S'list'
p4
sS'c'
p5
g2
sS'b'
p6
g2
sS'model.blocktype'
p7
S'string'
p8
sS'x.graphics'
p9
S'object'
p10
sS'arg1'
p11
g10
sS'graphics.exprs'
p12
NsS'model.rpar'
p13
g2
sS'exprs'
p14
g2
sS'x.model'
p15
NsS'gr_i'
p16
S'vector'
p17
sS'model.dep_ut'
p18
S'vector_boolean'
p19
sS'model.in'
p20
g2
sS'graphics'
p21
g10
sS'y'
p22
g17
sS'x'
p23
NsS'model'
p24
g10
sS'model.ipar'
p25
g2
sS'typ'
p26
g17
sS'model.out'
p27
S'double'
p28
s.