c__builtin__
set
p0
((lp1
S'a'
p2
aS'x'
p3
aS'b'
p4
atp5
Rp6
.(dp0
S'this.x'
p1
S'double'
p2
sS'model.sim'
p3
S'string'
p4
sS'model.in1'
p5
g2
sS'model.blocktype'
p6
g4
sS'this.x.graphics'
p7
S'object'
p8
sS'arg1'
p9
g8
sS'graphics.exprs'
p10
NsS'model.rpar'
p11
S'matrix'
p12
sS'this.x.model'
p13
NsS'exprs'
p14
g12
sS'gr_i'
p15
S'vector'
p16
sS'model.dep_ut'
p17
g16
sS'graphics'
p18
g8
sS'y'
p19
g16
sS'this.a'
p20
g12
sS'model'
p21
g8
sS'typ'
p22
g16
sS'this.b'
p23
g12
sS'model.out'
p24
g2
s.