c__builtin__
set
p0
((lp1
S'a'
p2
aS'b'
p3
aS'exprs'
p4
aS'gr_i'
p5
aS'graphics'
p6
aS'x'
p7
aS'model'
p8
atp9
Rp10
.(dp0
S'a'
p1
S'matrix'
p2
sS'model.sim'
p3
S'string'
p4
sS'model.in1'
p5
S'double'
p6
sS'b'
p7
g2
sS'model.blocktype'
p8
g4
sS'x.graphics'
p9
S'object'
p10
sS'arg1'
p11
g10
sS'graphics.exprs'
p12
NsS'model.rpar'
p13
g2
sS'exprs'
p14
g2
sS'x.model'
p15
NsS'gr_i'
p16
S'vector'
p17
sS'model.dep_ut'
p18
g17
sS'graphics'
p19
g10
sS'y'
p20
g17
sS'x'
p21
g6
sS'model'
p22
g10
sS'typ'
p23
g17
sS'model.out'
p24
g6
s.