c__builtin__
set
p0
((lp1
S'a'
p2
aS'c'
p3
aS'b'
p4
aS'exprs'
p5
aS'gr_i'
p6
aS'graphics'
p7
aS'x'
p8
aS'model'
p9
atp10
Rp11
.(dp0
S'a'
p1
S'matrix'
p2
sS'model.sim'
p3
S'list'
p4
sS'c'
p5
g2
sS'b'
p6
g2
sS'model.blocktype'
p7
S'string'
p8
sS'x.graphics'
p9
S'object'
p10
sS'arg1'
p11
g10
sS'graphics.exprs'
p12
NsS'model.rpar'
p13
g2
sS'exprs'
p14
g2
sS'x.model'
p15
NsS'gr_i'
p16
S'vector'
p17
sS'model.dep_ut'
p18
g17
sS'model.in'
p19
g2
sS'graphics'
p20
g10
sS'y'
p21
g17
sS'x'
p22
S'double'
p23
sS'model'
p24
g10
sS'model.ipar'
p25
g2
sS'typ'
p26
g17
sS'model.out'
p27
g23
s.