c__builtin__
set
p0
((lp1
S'x'
p2
aS'model'
p3
aS'gr_i'
p4
aS'exprs'
p5
aS'graphics'
p6
atp7
Rp8
.(dp0
S'model.sim'
p1
S'list'
p2
sS'model.in1'
p3
S'double'
p4
sS'model.blocktype'
p5
S'string'
p6
sS'exprs'
p7
g6
sS'in1'
p8
g4
sS'model.dep_ut'
p9
S'vector'
p10
sS'model.out'
p11
g4
sS'gr_i'
p12
g10
sS'y'
p13
g10
sS'x'
p14
g4
sS'model'
p15
S'object'
p16
sS'typ'
p17
g10
s.