c__builtin__
set
p0
((lp1
S'x'
p2
aS'model'
p3
aS'graphics'
p4
atp5
Rp6
.(dp0
S'model.sim'
p1
S'list'
p2
sS'model.blocktype'
p3
S'string'
p4
sS'exprs'
p5
g4
sS'in1'
p6
S'double'
p7
sS'model.dep_ut'
p8
S'vector_boolean'
p9
sS'model.out'
p10
g7
sS'gr_i'
p11
S'vector'
p12
sS'model.in'
p13
g7
sS'y'
p14
g12
sS'x'
p15
g12
sS'model'
p16
S'object'
p17
sS'typ'
p18
g12
s.