c__builtin__
set
p0
((lp1
S'x'
p2
aS'model'
p3
aS'gr_i'
p4
aS'exprs'
p5
aS'graphics'
p6
atp7
Rp8
.(dp0
S'model.sim'
p1
S'string'
p2
sS'model.blocktype'
p3
g2
sS'exprs'
p4
g2
sS'in1'
p5
S'double'
p6
sS'model.dep_ut'
p7
S'vector'
p8
sS'model.out'
p9
g6
sS'gr_i'
p10
g8
sS'model.in'
p11
g6
sS'y'
p12
g8
sS'x'
p13
g6
sS'model'
p14
S'object'
p15
sS'typ'
p16
g8
s.