c__builtin__
set
p0
((lp1
S'x'
p2
atp3
Rp4
.(dp0
S'this.x'
p1
S'double'
p2
sS'model.sim'
p3
S'vector'
p4
sS'model.in1'
p5
g2
sS'model.blocktype'
p6
S'string'
p7
sS'exprs'
p8
g7
sS'in1'
p9
g2
sS'model.dep_ut'
p10
g4
sS'model.out'
p11
g2
sS'gr_i'
p12
g4
sS'y'
p13
g4
sS'model'
p14
g2
sS'typ'
p15
g4
s.