c__builtin__
set
p0
((lp1
S'rparin'
p2
aS'curwin'
p3
aS'extrapo'
p4
aS'yy'
p5
aS'xx'
p6
aS'ixy'
p7
aS'iparin'
p8
aS'argn'
p9
aS'xy'
p10
aS'x'
p11
aS'model'
p12
aS'Method'
p13
aS'graf'
p14
atp15
Rp16
.(dp0
S'mean4'
p1
S'vector'
p2
sS'Sin_exprs'
p3
S'list'
p4
sS'Ask_again'
p5
S'boolean'
p6
sS'Amp3'
p7
g2
sS'curwin'
p8
NsS'Standm'
p9
S'string'
p10
sS'gh'
p11
S'object'
p12
sS'xmn'
p13
S'double'
p14
sS'ymx'
p15
g14
sS'a.title.font_size'
p16
g14
sS'xmx'
p17
g14
sS'random_n_exprs'
p18
g4
sS'a.axes_visible'
p19
g10
sS'METHOD'
p20
g14
sS'PeriodicOption'
p21
g10
sS'ymn'
p22
g14
sS'NOrder'
p23
g14
sS'var4'
p24
g2
sS'a.title.foreground'
p25
g14
sS'model.rpar'
p26
S'matrix'
p27
sS'yy'
p28
g27
sS'Pulse_exprs'
p29
g4
sS'dx'
p30
g14
sS'dy'
p31
g14
sS'a.clip_state'
p32
g10
sS'model.blocktype'
p33
g10
sS'save_curwin'
p34
NsS'oipar'
p35
g27
sS'MENU'
p36
g2
sS'x.model'
p37
NsS'model.dep_ut'
p38
g2
sS'menu_s'
p39
g2
sS'Sawt1_exprs'
p40
g4
sS'sample4'
p41
g2
sS'sTp2'
p42
g2
sS'x'
p43
g14
sS'[ny,my]'
p44
g14
sS'exprs[1-1]'
p45
g10
sS'[nx,mx]'
p46
g14
sS'arg1'
p47
g12
sS'Pd3'
p48
g2
sS'sAmp'
p49
g2
sS'sample5'
p50
g2
sS'a.title.font_style'
p51
g14
sS'orpar'
p52
g27
sS'x.graphics'
p53
g12
sS'menu_d'
p54
g2
sS'menu_e'
p55
g2
sS'r'
p56
g10
sS'seed4'
p57
g2
sS'seed5'
p58
g2
sS'model.evtin'
p59
g2
sS'menu_t'
p60
g2
sS'menu_r'
p61
g2
sS'PO'
p62
g14
sS'DChange'
p63
g6
sS'[Xdummy,Ydummy,orpar]'
p64
g14
sS'model.out2'
p65
g14
sS'xy[N-1][2-1]'
p66
g14
sS'sTp'
p67
g2
sS'wp'
p68
g2
sS'New_methhod'
p69
g14
sS'PeridicOption'
p70
g14
sS'Graf'
p71
g10
sS'ok'
p72
g6
sS'w'
p73
g10
sS'model.outtyp'
p74
g14
sS'extrapo'
p75
g14
sS'offset'
p76
g2
sS'perop'
p77
g10
sS'xx'
p78
g27
sS'xy'
p79
g2
sS'SaveExit'
p80
g6
sS'xp'
p81
g14
sS'Method'
p82
g14
sS'[orpar,oipar,ok]'
p83
g14
sS'ixy'
p84
g2
sS'rect'
p85
g27
sS'Amp'
p86
g2
sS'exprs[2-1]'
p87
g14
sS'model.firing'
p88
g14
sS'xy2'
p89
g2
sS'N'
p90
g14
sS'random_u_exprs'
p91
g4
sS'Sawt2_exprs'
p92
g4
sS'graphics'
p93
g12
sS'Exitm'
p94
g10
sS'N2'
p95
g14
sS'model.ipar'
p96
g27
sS'Pw3'
p97
g2
sS'f'
p98
g14
sS'a.grid'
p99
g2
sS'[this.xy]'
p100
g14
sS'gr_i'
p101
g2
sS'ipar'
p102
NsS'mtd'
p103
g14
sS'scam'
p104
g10
sS'exprs[4-1]'
p105
g10
sS'model.evtout'
p106
g2
sS'rpar'
p107
NsS'np5'
p108
g2
sS'Bias3'
p109
g2
sS'Tp3'
p110
g2
sS'model.out'
p111
g14
sS'np4'
p112
g2
sS'np1'
p113
g2
sS'[xy]'
p114
g14
sS'model.in2'
p115
g14
sS'model.in1'
p116
g14
sS'sAmp2'
p117
g2
sS'menus'
p118
g4
sS'sdelay'
p119
g2
sS'[lhs,rhs]'
p120
g14
sS'Datam'
p121
g10
sS'model.sim'
p122
g4
sS'a.data_bounds'
p123
g27
sS'menu_o'
p124
g2
sS'exprs[5-1]'
p125
g10
sS'graphics.exprs'
p126
NsS'phase'
p127
g2
sS'typ'
p128
g2
sS'min5'
p129
g2
sS'a'
p130
g12
sS'Orderm'
p131
g10
sS'max5'
p132
g2
sS'exprs'
p133
g27
sS'exprs[3-1]'
p134
g14
sS'y'
p135
g2
sS'model'
p136
g12
s.