c__builtin__
set
p0
((lp1
S'order'
p2
aS'yy'
p3
aS'xx'
p4
aS'zz'
p5
aS'x'
p6
aS'Method'
p7
aS'graf'
p8
atp9
Rp10
.c__builtin__
set
p0
((lp1
tp2
Rp3
.c__builtin__
set
p0
((lp1
tp2
Rp3
.c__builtin__
set
p0
((lp1
tp2
Rp3
.c__builtin__
set
p0
((lp1
tp2
Rp3
.c__builtin__
set
p0
((lp1
tp2
Rp3
.