c__builtin__
set
p0
((lp1
S'order'
p2
aS'yy'
p3
aS'xx'
p4
aS'zz'
p5
aS'graphics'
p6
aS'x'
p7
aS'model'
p8
aS'Method'
p9
aS'graf'
p10
atp11
Rp12
.(dp0
S'exprs[4-1]'
p1
S'string'
p2
sS'arg1'
p3
S'object'
p4
sS'SaveExit'
p5
S'boolean'
p6
sS'Nx'
p7
S'double'
p8
sS'Ny'
p9
g8
sS'xx'
p10
S'vector'
p11
sS'zz'
p12
S'matrix'
p13
sS'Ask_again'
p14
g6
sS'model.out'
p15
g8
sS'curwin'
p16
NsS'Method'
p17
g8
sS'gh'
p18
g4
sS'gh2'
p19
g8
sS'gh.figure_id'
p20
NsS'METHOD'
p21
g2
sS'model.sim'
p22
S'list'
p23
sS'model.rpar'
p24
g13
sS'yy'
p25
g11
sS'exprs[5-1]'
p26
g2
sS'model.in'
p27
g13
sS'graphics'
p28
g4
sS'model.ipar'
p29
g13
sS'typ'
p30
g11
sS'Graf'
p31
g2
sS'model.blocktype'
p32
g2
sS'ok'
p33
g6
sS'save_curwin'
p34
NsS'x.graphics'
p35
g4
sS'x.model'
p36
NsS'model.dep_ut'
p37
S'vector_boolean'
p38
sS'exprs'
p39
g23
sS'gr_i'
p40
g11
sS'mtd'
p41
g8
sS'graphics.exprs'
p42
NsS'y'
p43
g11
sS'x'
p44
NsS'model'
p45
g4
sS'graf'
p46
g2
s.