c__builtin__
set
p0
((lp1
S'mean4'
p2
aS'ymn1'
p3
aS'inrpar'
p4
aS'extrapo'
p5
aS'wp'
p6
aS'Pd3'
p7
aS'Sawt1_exprs2'
p8
aS'random_n_exprs2'
p9
aS'xx'
p10
aS'xy'
p11
aS'Tp3'
p12
aS'iparin'
p13
aS'xmn1'
p14
aS'np4'
p15
aS'np5'
p16
aS'Amp3'
p17
aS'curwin'
p18
aS'sAmp'
p19
aS'np1'
p20
aS'Method'
p21
aS'xt'
p22
aS'sample5'
p23
aS'sTp2'
p24
aS'Pulse_exprs2'
p25
aS'Cx'
p26
aS'filen'
p27
aS'sample4'
p28
aS'xa'
p29
aS'random_u_exprs2'
p30
aS'sAmp2'
p31
aS'zok'
p32
aS'offset'
p33
aS'yt'
p34
aS'sdelay'
p35
aS'ixy'
p36
aS'seed4'
p37
aS'seed5'
p38
aS'Sawt2_exprs2'
p39
aS'Amp'
p40
aS'sok'
p41
aS'var4'
p42
aS'ymx1'
p43
aS'Cformat'
p44
aS'ya'
p45
aS'Bias3'
p46
aS'xls_open'
p47
aS'myans'
p48
aS'xmx1'
p49
aS'inipar'
p50
aS'xls_read'
p51
aS'sTp'
p52
aS'Sin_exprs2'
p53
aS'argn'
p54
aS'graphics'
p55
aS'phase'
p56
aS'iipar'
p57
aS'min5'
p58
aS'mok'
p59
aS'Pw3'
p60
aS'sheetN'
p61
aS'xgetmouse'
p62
aS'max5'
p63
aS'rparin'
p64
aS'exprs'
p65
aS'Cy'
p66
aS'gr_i'
p67
aS'yy'
p68
aS'x'
p69
aS'model'
p70
aS'ORDER2'
p71
aS'irpar'
p72
aS'graf'
p73
aS'xye'
p74
atp75
Rp76
.(dp0
S'mean4'
p1
S'vector'
p2
sS'dist'
p3
S'string'
p4
sS'Sin_exprs'
p5
NsS'xenR'
p6
S'double'
p7
sS'x2'
p8
g4
sS'Y[j-1]'
p9
g7
sS'Ask_again'
p10
S'boolean'
p11
sS'y1'
p12
g4
sS'Amp3'
p13
g2
sS'curwin'
p14
NsS'Standm'
p15
g4
sS'xenC'
p16
g4
sS'yenR'
p17
g7
sS'gh'
p18
S'object'
p19
sS'a.title.text'
p20
g2
sS'xmn'
p21
g7
sS'x1'
p22
g4
sS'lx21'
p23
g7
sS'xstC'
p24
g4
sS'ymx'
p25
g7
sS'Zt'
p26
S'matrix'
p27
sS'Bt'
p28
g27
sS'a.title.font_size'
p29
g7
sS'xmx'
p30
g7
sS'x1p'
p31
g7
sS'random_n_exprs'
p32
S'list'
p33
sS'a.axes_visible'
p34
g4
sS'METHOD'
p35
g7
sS'PeriodicOption'
p36
g4
sS'ymn'
p37
g7
sS'NOrder'
p38
g7
sS'var4'
p39
g2
sS'xa'
p40
g7
sS'yo'
p41
g7
sS'y22'
p42
g4
sS'ya'
p43
g7
sS'YMX'
p44
g7
sS'yc'
p45
g7
sS'a.title.foreground'
p46
g7
sS'model.rpar'
p47
g27
sS'yy'
p48
g27
sS'sok'
p49
g11
sS'Pulse_exprs'
p50
NsS'dx'
p51
g7
sS'dy'
p52
g7
sS'random_n_exprs2'
p53
g33
sS'a.clip_state'
p54
g4
sS'yt'
p55
g7
sS'model.blocktype'
p56
g4
sS'save_curwin'
p57
NsS'oipar'
p58
NsS'MENU'
p59
g2
sS't4'
p60
g4
sS't5'
p61
g4
sS't2'
p62
g4
sS'x.model'
p63
NsS'model.dep_ut'
p64
S'vector_boolean'
p65
sS'menu_s'
p66
g2
sS'Sawt1_exprs'
p67
NsS'sample4'
p68
g2
sS'sTp2'
p69
g2
sS'x'
p70
g7
sS'x12'
p71
g4
sS'exprs[1-1]'
p72
g4
sS'points.data'
p73
g2
sS'j'
p74
g4
sS'x11'
p75
g4
sS'arg1'
p76
g19
sS'Pd3'
p77
g2
sS't3'
p78
g4
sS'ey'
p79
g7
sS'ex'
p80
g7
sS'xmn1'
p81
g7
sS'sAmp'
p82
g2
sS'a.children[2-1]'
p83
g19
sS'sample5'
p84
g2
sS'a.title.font_style'
p85
g7
sS'y2'
p86
g4
sS'orpar'
p87
g2
sS'x.graphics'
p88
g19
sS'menu_d'
p89
g2
sS'menu_e'
p90
g2
sS'A[j+1-1][i+N-1]'
p91
g7
sS'a.children[1-1]'
p92
g19
sS'y1p'
p93
g7
sS'r'
p94
g4
sS'seed4'
p95
g2
sS'seed5'
p96
g2
sS'B[j+1-1]'
p97
g7
sS'model.evtin'
p98
g2
sS'y21'
p99
g4
sS'menu_t'
p100
g2
sS'menu_r'
p101
g2
sS'PO'
p102
g7
sS'x22'
p103
g4
sS'C'
p104
g2
sS'DChange'
p105
g11
sS'Cformat'
p106
g4
sS'Q[i+N-1][i-1]'
p107
g7
sS'rep'
p108
g7
sS'model.out2'
p109
g7
sS'xy[N-1][2-1]'
p110
g7
sS'sTp'
p111
g2
sS'wp'
p112
g2
sS'New_methhod'
p113
g7
sS'PeridicOption'
p114
g7
sS'Graf'
p115
g4
sS'Q'
p116
g7
sS'ok'
p117
g11
sS'ly11'
p118
g7
sS'xy[k-1].slice()'
p119
g2
sS'Z'
p120
g2
sS'Cmenu'
p121
g4
sS'periodicoption'
p122
g7
sS'w'
p123
g4
sS'random_u_exprs2'
p124
g33
sS'model.outtyp'
p125
g7
sS'A[j+1-1][i+2*N-1]'
p126
g7
sS'YMN'
p127
g7
sS'Q[i-1][i+N-1]'
p128
g7
sS'y11'
p129
g4
sS'x2p'
p130
g7
sS'y12'
p131
g4
sS'NC'
p132
g7
sS'xyt'
p133
g2
sS'xo'
p134
g27
sS'ipar[2-1]'
p135
g7
sS'xc'
p136
g7
sS'extrapo'
p137
g7
sS'offset'
p138
g2
sS'splines.data'
p139
g2
sS'perop'
p140
g4
sS'xe'
p141
g7
sS'Y'
p142
g27
sS'xx'
p143
g27
sS'xy'
p144
g2
sS'btn'
p145
g7
sS'xye'
p146
g2
sS'SaveExit'
p147
g11
sS'xp'
p148
g7
sS'Method'
p149
g7
sS'xt'
p150
g27
sS'xyo'
p151
g2
sS'Q[i-1][i-1]'
p152
g7
sS'ystR'
p153
g7
sS'A[j-1][i+2*N-1]'
p154
g7
sS'ipar[4-1]'
p155
g7
sS'px'
p156
g7
sS'py'
p157
g7
sS'splines'
p158
NsS'tok'
p159
g11
sS'ixy'
p160
g2
sS'rect'
p161
g27
sS'NP'
p162
g7
sS'Amp'
p163
g2
sS'exprs[2-1]'
p164
g7
sS'model.firing'
p165
g7
sS'xy2'
p166
g2
sS'B'
p167
g7
sS'A'
p168
g7
sS'yenC'
p169
g4
sS'N'
p170
g7
sS'random_u_exprs'
p171
g33
sS'Sawt2_exprs'
p172
NsS'XMX'
p173
g7
sS'a.x_ticks'
p174
g19
sS'model.in'
p175
g7
sS'graphics'
p176
g19
sS'Exitm'
p177
g4
sS'N2'
p178
g7
sS'model.ipar'
p179
g27
sS'Pw3'
p180
g2
sS'f'
p181
g7
sS'a.grid'
p182
g2
sS'y[N-1]'
p183
g7
sS'gr_i'
p184
g2
sS'ipar'
p185
g2
sS'ystC'
p186
g4
sS'mtd'
p187
g7
sS'PERIODIC'
p188
g4
sS'xmx1'
p189
g7
sS'scam'
p190
g4
sS'exprs[4-1]'
p191
g4
sS'ans0'
p192
g4
sS'ymn1'
p193
g7
sS't1'
p194
g4
sS'model.evtout'
p195
g2
sS'rpar'
p196
g2
sS'lx11'
p197
g7
sS'np5'
p198
g2
sS'Bias3'
p199
g2
sS'Tp3'
p200
g2
sS'model.out'
p201
g7
sS'np4'
p202
g2
sS'rectx'
p203
g7
sS'np1'
p204
g7
sS'Lx'
p205
g7
sS'x21'
p206
g4
sS'model.in2'
p207
g7
sS'x[k-1]'
p208
g2
sS'HIT'
p209
g11
sS'xstR'
p210
g7
sS'ymx1'
p211
g7
sS'A[j+1-1][i-1]'
p212
g7
sS'sAmp2'
p213
g2
sS'TN'
p214
g2
sS'menus'
p215
g33
sS'sdelay'
p216
g2
sS'points'
p217
NsS'Q[i+N-1][i+N-1]'
p218
g7
sS'TA'
p219
g27
sS'Datam'
p220
g4
sS'model.sim'
p221
g33
sS'XMN'
p222
g7
sS'A[j+2-1][i+N+1-1]'
p223
g7
sS'a.data_bounds'
p224
g7
sS'menu_o'
p225
g2
sS'd'
p226
g7
sS'ye'
p227
g7
sS'X'
p228
g27
sS'y2p'
p229
g7
sS'fd'
p230
g7
sS'exprs[5-1]'
p231
g4
sS'graphics.exprs'
p232
NsS'phase'
p233
g7
sS'typ'
p234
g2
sS'min5'
p235
g2
sS'a'
p236
g19
sS'mok'
p237
g11
sS'Orderm'
p238
g4
sS'A[j+2-1][i+N-1]'
p239
g7
sS'B[j-1]'
p240
g7
sS'ly21'
p241
g7
sS'A[j+2-1][i-1]'
p242
g7
sS'max5'
p243
g2
sS'exprs'
p244
g27
sS'exprs[3-1]'
p245
g7
sS'y[k-1]'
p246
g2
sS'At'
p247
g27
sS'y'
p248
g7
sS'model'
p249
g19
sS'order'
p250
g7
s.