c__builtin__
set
p0
((lp1
S'order'
p2
aS'yy'
p3
aS'xx'
p4
aS'zz'
p5
aS'x'
p6
aS'Method'
p7
aS'graf'
p8
atp9
Rp10
.(dp0
S'[ny,my]'
p1
S'double'
p2
sS'[nx,mx]'
p3
g2
sS'arg1'
p4
S'object'
p5
sS'SaveExit'
p6
S'boolean'
p7
sS'Nx'
p8
g2
sS'Ny'
p9
g2
sS'Ask_again'
p10
g7
sS'model.out'
p11
g2
sS'curwin'
p12
NsS'gh'
p13
g5
sS'[nz,mz]'
p14
g2
sS'exprs[4-1]'
p15
g2
sS'gh2'
p16
g2
sS'exprs'
p17
S'vector'
p18
sS'this.x.graphics'
p19
g5
sS'this.Method'
p20
g2
sS'this.xx'
p21
g18
sS'this.zz'
p22
S'matrix'
p23
sS'METHOD'
p24
S'string'
p25
sS'this.x'
p26
g2
sS'model.sim'
p27
g18
sS'model.in1'
p28
g23
sS'model.rpar'
p29
g23
sS'this.x.model'
p30
NsS'exprs[5-1]'
p31
g25
sS'graphics'
p32
g5
sS'model.ipar'
p33
g23
sS'typ'
p34
g18
sS'gh.figure_id'
p35
NsS'Graf'
p36
g25
sS'model.blocktype'
p37
g25
sS'ok'
p38
g7
sS'save_curwin'
p39
NsS'[ok]'
p40
g2
sS'this.yy'
p41
g18
sS'model.dep_ut'
p42
g18
sS'this.graf'
p43
g25
sS'gr_i'
p44
g18
sS'graphics.exprs'
p45
NsS'y'
p46
g18
sS'model'
p47
g5
sS'mtd'
p48
g2
s.