c__builtin__
set
p0
((lp1
S'x'
p2
aS'model'
p3
aS'graphics'
p4
atp5
Rp6
.(dp0
S'model.sim'
p1
S'string'
p2
sS'model.in1'
p3
S'double'
p4
sS'ok'
p5
S'boolean'
p6
sS'model.blocktype'
p7
g2
sS'x.graphics'
p8
S'object'
p9
sS'arg1'
p10
g9
sS'x.model'
p11
g9
sS'model.rpar'
p12
S'matrix'
p13
sS'rpar'
p14
NsS'yy'
p15
S'vector'
p16
sS'exprs'
p17
NsS'xx'
p18
g16
sS'gr_i'
p19
g16
sS'model.dep_ut'
p20
g16
sS'graphics'
p21
g9
sS'y'
p22
g16
sS'x'
p23
g4
sS'model'
p24
g9
sS'n'
p25
g4
sS'typ'
p26
g16
sS'model.out'
p27
g4
s.