c__builtin__
set
p0
((lp1
S'order'
p2
aS'yy'
p3
aS'xx'
p4
aS'zz'
p5
aS'x'
p6
aS'model'
p7
aS'Method'
p8
aS'graf'
p9
atp10
Rp11
.(dp0
S'[ny,my]'
p1
S'double'
p2
sS'[nx,mx]'
p3
g2
sS'arg1'
p4
S'object'
p5
sS'SaveExit'
p6
S'boolean'
p7
sS'Nx'
p8
g2
sS'Ny'
p9
g2
sS'xx'
p10
S'vector'
p11
sS'zz'
p12
S'matrix'
p13
sS'Ask_again'
p14
g7
sS'model.out'
p15
g2
sS'curwin'
p16
NsS'Method'
p17
g2
sS'gh'
p18
g5
sS'[nz,mz]'
p19
g2
sS'exprs[4-1]'
p20
S'string'
p21
sS'gh2'
p22
g2
sS'gh.figure_id'
p23
NsS'METHOD'
p24
g21
sS'model.sim'
p25
S'list'
p26
sS'model.in1'
p27
g13
sS'model.rpar'
p28
g13
sS'yy'
p29
g11
sS'exprs[5-1]'
p30
g21
sS'graphics'
p31
g5
sS'model.ipar'
p32
g13
sS'typ'
p33
g11
sS'Graf'
p34
g21
sS'model.blocktype'
p35
g21
sS'ok'
p36
g7
sS'save_curwin'
p37
NsS'[ok]'
p38
g2
sS'x.graphics'
p39
g5
sS'x.model'
p40
NsS'model.dep_ut'
p41
g11
sS'exprs'
p42
g26
sS'gr_i'
p43
g11
sS'mtd'
p44
g2
sS'graphics.exprs'
p45
NsS'y'
p46
g11
sS'x'
p47
g2
sS'model'
p48
g5
sS'graf'
p49
g21
s.