c__builtin__
set
p0
((lp1
S'rparin'
p2
aS'curwin'
p3
aS'extrapo'
p4
aS'yy'
p5
aS'xx'
p6
aS'ixy'
p7
aS'iparin'
p8
aS'argn'
p9
aS'xy'
p10
aS'x'
p11
aS'model'
p12
aS'Method'
p13
aS'graf'
p14
atp15
Rp16
.(dp0
S'mean4'
p1
S'vector'
p2
sS'Sin_exprs'
p3
g2
sS'Ask_again'
p4
S'boolean'
p5
sS'Amp3'
p6
g2
sS'curwin'
p7
NsS'Standm'
p8
S'string'
p9
sS'gh'
p10
S'object'
p11
sS'xmn'
p12
S'double'
p13
sS'ymx'
p14
g13
sS'a.title.font_size'
p15
g13
sS'xmx'
p16
g13
sS'random_n_exprs'
p17
g2
sS'a.axes_visible'
p18
g9
sS'METHOD'
p19
g13
sS'PeriodicOption'
p20
g9
sS'ymn'
p21
g13
sS'NOrder'
p22
g13
sS'var4'
p23
g2
sS'a.title.foreground'
p24
g13
sS'model.rpar'
p25
S'matrix'
p26
sS'yy'
p27
g26
sS'Pulse_exprs'
p28
g2
sS'dx'
p29
g13
sS'dy'
p30
g13
sS'a.clip_state'
p31
g9
sS'model.blocktype'
p32
g9
sS'save_curwin'
p33
NsS'oipar'
p34
g26
sS'MENU'
p35
g2
sS'x.model'
p36
NsS'model.dep_ut'
p37
g2
sS'menu_s'
p38
g2
sS'Sawt1_exprs'
p39
g2
sS'sample4'
p40
g2
sS'sTp2'
p41
g2
sS'x'
p42
g13
sS'[ny,my]'
p43
g13
sS'exprs[1-1]'
p44
g13
sS'[nx,mx]'
p45
g13
sS'arg1'
p46
g11
sS'Pd3'
p47
g2
sS'sAmp'
p48
g2
sS'sample5'
p49
g2
sS'a.title.font_style'
p50
g13
sS'orpar'
p51
g26
sS'x.graphics'
p52
g11
sS'menu_d'
p53
g2
sS'menu_e'
p54
g2
sS'r'
p55
g9
sS'seed4'
p56
g2
sS'seed5'
p57
g2
sS'model.evtin'
p58
g2
sS'menu_t'
p59
g2
sS'menu_r'
p60
g2
sS'PO'
p61
g13
sS'DChange'
p62
g5
sS'[Xdummy,Ydummy,orpar]'
p63
g13
sS'model.out2'
p64
g13
sS'xy[N-1][2-1]'
p65
g13
sS'sTp'
p66
g2
sS'wp'
p67
g2
sS'New_methhod'
p68
g13
sS'PeridicOption'
p69
g13
sS'Graf'
p70
g9
sS'ok'
p71
g5
sS'w'
p72
g9
sS'model.outtyp'
p73
g13
sS'extrapo'
p74
g13
sS'offset'
p75
g2
sS'perop'
p76
g9
sS'xx'
p77
g26
sS'xy'
p78
g2
sS'SaveExit'
p79
g5
sS'xp'
p80
g13
sS'Method'
p81
g13
sS'[orpar,oipar,ok]'
p82
g13
sS'ixy'
p83
g2
sS'rect'
p84
g26
sS'Amp'
p85
g2
sS'exprs[2-1]'
p86
g13
sS'model.firing'
p87
g13
sS'xy2'
p88
g2
sS'N'
p89
g13
sS'random_u_exprs'
p90
g2
sS'Sawt2_exprs'
p91
g2
sS'graphics'
p92
g11
sS'Exitm'
p93
g9
sS'N2'
p94
g13
sS'model.ipar'
p95
g26
sS'Pw3'
p96
g2
sS'f'
p97
g13
sS'a.grid'
p98
g2
sS'[this.xy]'
p99
g13
sS'gr_i'
p100
g2
sS'ipar'
p101
NsS'mtd'
p102
g13
sS'scam'
p103
g9
sS'exprs[4-1]'
p104
g13
sS'model.evtout'
p105
g2
sS'rpar'
p106
NsS'np5'
p107
g2
sS'Bias3'
p108
g2
sS'Tp3'
p109
g2
sS'model.out'
p110
g13
sS'np4'
p111
g2
sS'np1'
p112
g2
sS'[xy]'
p113
g13
sS'model.in2'
p114
g13
sS'model.in1'
p115
g13
sS'sAmp2'
p116
g2
sS'menus'
p117
g2
sS'sdelay'
p118
g2
sS'[lhs,rhs]'
p119
g13
sS'Datam'
p120
g9
sS'model.sim'
p121
g2
sS'a.data_bounds'
p122
g26
sS'menu_o'
p123
g2
sS'exprs[5-1]'
p124
g9
sS'graphics.exprs'
p125
NsS'phase'
p126
g2
sS'typ'
p127
g2
sS'min5'
p128
g2
sS'a'
p129
g11
sS'Orderm'
p130
g9
sS'max5'
p131
g2
sS'exprs'
p132
g26
sS'exprs[3-1]'
p133
g13
sS'y'
p134
g2
sS'model'
p135
g11
s.