c__builtin__
set
p0
((lp1
S'x'
p2
aS'model'
p3
aS'graphics'
p4
atp5
Rp6
.(dp0
S'model.sim'
p1
S'string'
p2
sS'model.out'
p3
S'double'
p4
sS'ok'
p5
S'boolean'
p6
sS'model.blocktype'
p7
g2
sS'x.graphics'
p8
S'object'
p9
sS'x.model'
p10
g9
sS'model.rpar'
p11
S'matrix'
p12
sS'rpar'
p13
NsS'yy'
p14
S'vector'
p15
sS'exprs'
p16
NsS'xx'
p17
g15
sS'gr_i'
p18
g15
sS'model.dep_ut'
p19
S'vector_boolean'
p20
sS'model.in'
p21
g4
sS'graphics'
p22
g9
sS'y'
p23
g15
sS'x'
p24
g15
sS'model'
p25
g9
sS'n'
p26
g4
sS'typ'
p27
g15
s.