c__builtin__
set
p0
((lp1
S'mean4'
p2
aS'ymn1'
p3
aS'inrpar'
p4
aS'extrapo'
p5
aS'graphics'
p6
aS'Pd3'
p7
aS'Sawt1_exprs2'
p8
aS'random_n_exprs2'
p9
aS'xx'
p10
aS'xy'
p11
aS'Tp3'
p12
aS'iparin'
p13
aS'xmn1'
p14
aS'np4'
p15
aS'np5'
p16
aS'Amp3'
p17
aS'curwin'
p18
aS'sAmp'
p19
aS'np1'
p20
aS'Method'
p21
aS'xt'
p22
aS'sample5'
p23
aS'Pulse_exprs2'
p24
aS'Cx'
p25
aS'filen'
p26
aS'xa'
p27
aS'random_u_exprs2'
p28
aS'sAmp2'
p29
aS'zok'
p30
aS'offset'
p31
aS'yt'
p32
aS'sdelay'
p33
aS'ixy'
p34
aS'seed4'
p35
aS'seed5'
p36
aS'Sawt2_exprs2'
p37
aS'Amp'
p38
aS'sok'
p39
aS'var4'
p40
aS'ymx1'
p41
aS'Cformat'
p42
aS'ya'
p43
aS'Bias3'
p44
aS'xls_open'
p45
aS'myans'
p46
aS'xmx1'
p47
aS'inipar'
p48
aS'xls_read'
p49
aS'sTp'
p50
aS'Sin_exprs2'
p51
aS'argn'
p52
aS'wp'
p53
aS'phase'
p54
aS'iipar'
p55
aS'min5'
p56
aS'mok'
p57
aS'Pw3'
p58
aS'sheetN'
p59
aS'xgetmouse'
p60
aS'max5'
p61
aS'rparin'
p62
aS'sample4'
p63
aS'Cy'
p64
aS'sTp2'
p65
aS'yy'
p66
aS'x'
p67
aS'model'
p68
aS'ORDER2'
p69
aS'irpar'
p70
aS'graf'
p71
aS'xye'
p72
atp73
Rp74
.(dp0
S'mean4'
p1
S'vector'
p2
sS'dist'
p3
S'string'
p4
sS'Sin_exprs'
p5
NsS'xenR'
p6
S'double'
p7
sS'x2'
p8
g4
sS'Y[j-1]'
p9
g7
sS'Ask_again'
p10
S'boolean'
p11
sS'y1'
p12
g4
sS'Amp3'
p13
g2
sS'curwin'
p14
NsS'Standm'
p15
g4
sS'xenC'
p16
g4
sS'yenR'
p17
g7
sS'gh'
p18
S'object'
p19
sS'a.title.text'
p20
g2
sS'xmn'
p21
g7
sS'x1'
p22
g4
sS'lx21'
p23
g7
sS'xstC'
p24
g4
sS'ymx'
p25
g7
sS'Zt'
p26
S'matrix'
p27
sS'Bt'
p28
g27
sS'a.title.font_size'
p29
g7
sS'xmx'
p30
g7
sS'x1p'
p31
g7
sS'random_n_exprs'
p32
S'list'
p33
sS'a.axes_visible'
p34
g4
sS'METHOD'
p35
g7
sS'PeriodicOption'
p36
g4
sS'ymn'
p37
g7
sS'NOrder'
p38
g7
sS'var4'
p39
g2
sS'xa'
p40
g7
sS'yo'
p41
g7
sS'y22'
p42
g4
sS'ya'
p43
g7
sS'YMX'
p44
g7
sS'yc'
p45
g7
sS'a.title.foreground'
p46
g7
sS'model.rpar'
p47
g27
sS'yy'
p48
g27
sS'sok'
p49
g11
sS'Pulse_exprs'
p50
NsS'dx'
p51
g7
sS'dy'
p52
g7
sS'random_n_exprs2'
p53
g33
sS'a.clip_state'
p54
g4
sS'yt'
p55
g7
sS'model.blocktype'
p56
g4
sS'save_curwin'
p57
NsS'oipar'
p58
NsS'MENU'
p59
g2
sS't4'
p60
g4
sS't5'
p61
g4
sS't2'
p62
g4
sS'x.model'
p63
NsS'model.dep_ut'
p64
g2
sS'menu_s'
p65
g2
sS'Sawt1_exprs'
p66
NsS'sample4'
p67
g2
sS'sTp2'
p68
g2
sS'x'
p69
g7
sS'x12'
p70
g4
sS'exprs[1-1]'
p71
g4
sS'points.data'
p72
g2
sS'j'
p73
g4
sS'x11'
p74
g4
sS'arg1'
p75
g19
sS'Pd3'
p76
g2
sS't3'
p77
g4
sS'ey'
p78
g7
sS'ex'
p79
g7
sS'xmn1'
p80
g7
sS'sAmp'
p81
g2
sS'a.children[2-1]'
p82
g19
sS'sample5'
p83
g2
sS'a.title.font_style'
p84
g7
sS'y2'
p85
g4
sS'orpar'
p86
g2
sS'x.graphics'
p87
g19
sS'menu_d'
p88
g2
sS'menu_e'
p89
g2
sS'A[j+1-1][i+N-1]'
p90
g7
sS'a.children[1-1]'
p91
g19
sS'y1p'
p92
g7
sS'r'
p93
g4
sS'seed4'
p94
g2
sS'seed5'
p95
g2
sS'B[j+1-1]'
p96
g7
sS'model.evtin'
p97
g2
sS'y21'
p98
g4
sS'menu_t'
p99
g2
sS'menu_r'
p100
g2
sS'PO'
p101
g7
sS'x22'
p102
g4
sS'C'
p103
g2
sS'DChange'
p104
g11
sS'Cformat'
p105
g4
sS'Q[i+N-1][i-1]'
p106
g7
sS'rep'
p107
g7
sS'model.out2'
p108
g7
sS'xy[N-1][2-1]'
p109
g7
sS'sTp'
p110
g2
sS'wp'
p111
g2
sS'New_methhod'
p112
g7
sS'PeridicOption'
p113
g7
sS'Graf'
p114
g4
sS'Q'
p115
g7
sS'ok'
p116
g11
sS'ly11'
p117
g7
sS'xy[k-1].slice()'
p118
g2
sS'Z'
p119
g2
sS'Cmenu'
p120
g4
sS'periodicoption'
p121
g7
sS'w'
p122
g4
sS'random_u_exprs2'
p123
g33
sS'model.outtyp'
p124
g7
sS'A[j+1-1][i+2*N-1]'
p125
g7
sS'YMN'
p126
g7
sS'Q[i-1][i+N-1]'
p127
g7
sS'y11'
p128
g4
sS'x2p'
p129
g7
sS'y12'
p130
g4
sS'NC'
p131
g7
sS'xyt'
p132
g2
sS'xo'
p133
g27
sS'ipar[2-1]'
p134
g7
sS'xc'
p135
g7
sS'extrapo'
p136
g7
sS'offset'
p137
g2
sS'splines.data'
p138
g2
sS'perop'
p139
g4
sS'xe'
p140
g7
sS'Y'
p141
g27
sS'xx'
p142
g27
sS'xy'
p143
g2
sS'btn'
p144
g7
sS'xye'
p145
g2
sS'SaveExit'
p146
g11
sS'xp'
p147
g7
sS'Method'
p148
g7
sS'xt'
p149
g27
sS'xyo'
p150
g2
sS'Q[i-1][i-1]'
p151
g7
sS'ystR'
p152
g7
sS'A[j-1][i+2*N-1]'
p153
g7
sS'ipar[4-1]'
p154
g7
sS'px'
p155
g7
sS'py'
p156
g7
sS'splines'
p157
NsS'tok'
p158
g11
sS'ixy'
p159
g2
sS'rect'
p160
g27
sS'NP'
p161
g7
sS'Amp'
p162
g2
sS'exprs[2-1]'
p163
g7
sS'model.firing'
p164
g7
sS'xy2'
p165
g2
sS'B'
p166
g7
sS'A'
p167
g7
sS'yenC'
p168
g4
sS'N'
p169
g7
sS'random_u_exprs'
p170
g33
sS'Sawt2_exprs'
p171
NsS'XMX'
p172
g7
sS'a.x_ticks'
p173
g19
sS'graphics'
p174
g19
sS'Exitm'
p175
g4
sS'N2'
p176
g7
sS'model.ipar'
p177
g27
sS'Pw3'
p178
g2
sS'f'
p179
g7
sS'a.grid'
p180
g2
sS'y[N-1]'
p181
g7
sS'gr_i'
p182
g2
sS'ipar'
p183
g2
sS'ystC'
p184
g4
sS'mtd'
p185
g7
sS'PERIODIC'
p186
g4
sS'xmx1'
p187
g7
sS'scam'
p188
g4
sS'exprs[4-1]'
p189
g4
sS'ans0'
p190
g4
sS'ymn1'
p191
g7
sS't1'
p192
g4
sS'model.evtout'
p193
g2
sS'rpar'
p194
g2
sS'lx11'
p195
g7
sS'np5'
p196
g2
sS'Bias3'
p197
g2
sS'Tp3'
p198
g2
sS'model.out'
p199
g7
sS'np4'
p200
g2
sS'rectx'
p201
g7
sS'np1'
p202
g7
sS'Lx'
p203
g7
sS'x21'
p204
g4
sS'model.in2'
p205
g7
sS'model.in1'
p206
g7
sS'x[k-1]'
p207
g2
sS'HIT'
p208
g11
sS'xstR'
p209
g7
sS'ymx1'
p210
g7
sS'A[j+1-1][i-1]'
p211
g7
sS'sAmp2'
p212
g2
sS'TN'
p213
g2
sS'menus'
p214
g33
sS'sdelay'
p215
g2
sS'points'
p216
NsS'Q[i+N-1][i+N-1]'
p217
g7
sS'TA'
p218
g27
sS'Datam'
p219
g4
sS'model.sim'
p220
g33
sS'XMN'
p221
g7
sS'A[j+2-1][i+N+1-1]'
p222
g7
sS'a.data_bounds'
p223
g7
sS'menu_o'
p224
g2
sS'd'
p225
g7
sS'ye'
p226
g7
sS'X'
p227
g27
sS'y2p'
p228
g7
sS'fd'
p229
g7
sS'exprs[5-1]'
p230
g4
sS'graphics.exprs'
p231
NsS'phase'
p232
g7
sS'typ'
p233
g2
sS'min5'
p234
g2
sS'a'
p235
g19
sS'mok'
p236
g11
sS'Orderm'
p237
g4
sS'A[j+2-1][i+N-1]'
p238
g7
sS'B[j-1]'
p239
g7
sS'ly21'
p240
g7
sS'A[j+2-1][i-1]'
p241
g7
sS'max5'
p242
g2
sS'exprs'
p243
g27
sS'exprs[3-1]'
p244
g7
sS'y[k-1]'
p245
g2
sS'At'
p246
g27
sS'y'
p247
g7
sS'model'
p248
g19
sS'order'
p249
g7
s.