c__builtin__
set
p0
((lp1
S'x'
p2
atp3
Rp4
.(dp0
S'arg1'
p1
S'object'
p2
sS'rpar'
p3
NsS'xx'
p4
S'vector'
p5
sS'this.x.model'
p6
g2
sS'model.out'
p7
S'double'
p8
sS'model.in1'
p9
g8
sS'typ'
p10
g5
sS'this.x'
p11
g8
sS'model.sim'
p12
S'string'
p13
sS'model.rpar'
p14
S'matrix'
p15
sS'yy'
p16
g5
sS'graphics'
p17
g2
sS'this.x.graphics'
p18
g2
sS'[xx,yy,ok,gc]'
p19
g8
sS'ok'
p20
S'boolean'
p21
sS'model.blocktype'
p22
g13
sS'model.dep_ut'
p23
g5
sS'n'
p24
g8
sS'exprs'
p25
NsS'gr_i'
p26
g5
sS'y'
p27
g5
sS'model'
p28
g8
s.