c__builtin__
set
p0
((lp1
S'order'
p2
aS'yy'
p3
aS'xx'
p4
aS'zz'
p5
aS'x'
p6
aS'Method'
p7
aS'graf'
p8
atp9
Rp10
.(dp0
S'[ny,my]'
p1
S'double'
p2
sS'[nx,mx]'
p3
g2
sS'arg1'
p4
S'object'
p5
sS'SaveExit'
p6
S'boolean'
p7
sS'Nx'
p8
g2
sS'Ny'
p9
g2
sS'xx'
p10
S'vector'
p11
sS'zz'
p12
S'matrix'
p13
sS'Ask_again'
p14
g7
sS'model.out'
p15
g2
sS'curwin'
p16
NsS'Method'
p17
g2
sS'gh'
p18
g5
sS'[nz,mz]'
p19
g2
sS'exprs[4-1]'
p20
g2
sS'gh2'
p21
g2
sS'gh.figure_id'
p22
NsS'METHOD'
p23
S'string'
p24
sS'model.sim'
p25
g11
sS'model.in1'
p26
g13
sS'model.rpar'
p27
g13
sS'yy'
p28
g11
sS'exprs[5-1]'
p29
g24
sS'graphics'
p30
g5
sS'model.ipar'
p31
g13
sS'typ'
p32
g11
sS'Graf'
p33
g24
sS'model.blocktype'
p34
g24
sS'ok'
p35
g7
sS'save_curwin'
p36
NsS'[ok]'
p37
g2
sS'x.graphics'
p38
g5
sS'x.model'
p39
NsS'model.dep_ut'
p40
g11
sS'exprs'
p41
g11
sS'gr_i'
p42
g11
sS'mtd'
p43
g2
sS'graphics.exprs'
p44
NsS'y'
p45
g11
sS'x'
p46
g2
sS'model'
p47
g5
sS'graf'
p48
g24
s.