c__builtin__
set
p0
((lp1
S'mean4'
p2
aS'ymn1'
p3
aS'extrapo'
p4
aS'offset'
p5
aS'Pd3'
p6
aS'inrpar'
p7
aS'xx'
p8
aS'xy'
p9
aS'Tp3'
p10
aS'iparin'
p11
aS'xmn1'
p12
aS'np4'
p13
aS'np5'
p14
aS'Amp3'
p15
aS'curwin'
p16
aS'sAmp'
p17
aS'np1'
p18
aS'Method'
p19
aS'xt'
p20
aS'sample5'
p21
aS'graphics'
p22
aS'xa'
p23
aS'sAmp2'
p24
aS'Cx'
p25
aS'iipar'
p26
aS'filen'
p27
aS'sdelay'
p28
aS'ixy'
p29
aS'seed4'
p30
aS'seed5'
p31
aS'Amp'
p32
aS'var4'
p33
aS'Bias3'
p34
aS'Cformat'
p35
aS'xls_open'
p36
aS'xmx1'
p37
aS'inipar'
p38
aS'xls_read'
p39
aS'sTp'
p40
aS'argn'
p41
aS'wp'
p42
aS'phase'
p43
aS'min5'
p44
aS'yy'
p45
aS'Pw3'
p46
aS'sheetN'
p47
aS'xgetmouse'
p48
aS'max5'
p49
aS'rparin'
p50
aS'sample4'
p51
aS'sTp2'
p52
aS'x'
p53
aS'model'
p54
aS'ORDER2'
p55
aS'irpar'
p56
aS'graf'
p57
aS'xye'
p58
atp59
Rp60
.(dp0
S'mean4'
p1
S'vector'
p2
sS'dist'
p3
S'string'
p4
sS'Sin_exprs'
p5
NsS'xenR'
p6
S'double'
p7
sS'x2'
p8
g4
sS'Y[j-1]'
p9
g7
sS'Ask_again'
p10
S'boolean'
p11
sS'y1'
p12
g4
sS'Amp3'
p13
g2
sS'curwin'
p14
NsS'Standm'
p15
g4
sS'xenC'
p16
g4
sS'yenR'
p17
g7
sS'gh'
p18
S'object'
p19
sS'a.title.text'
p20
S'vector_string'
p21
sS'xmn'
p22
g7
sS'x1'
p23
g4
sS'lx21'
p24
g7
sS'xstC'
p25
g4
sS'ymx'
p26
g7
sS'Zt'
p27
S'matrix'
p28
sS'Bt'
p29
g28
sS'a.title.font_size'
p30
g7
sS'xmx'
p31
g7
sS'x1p'
p32
g7
sS'random_n_exprs'
p33
S'list'
p34
sS'a.axes_visible'
p35
g4
sS'METHOD'
p36
g7
sS'PeriodicOption'
p37
g4
sS'ymn'
p38
g7
sS'NOrder'
p39
g7
sS'var4'
p40
g2
sS'xa'
p41
g7
sS'yo'
p42
g7
sS'y22'
p43
g4
sS'ya'
p44
g7
sS'YMX'
p45
g7
sS'yc'
p46
g7
sS'a.title.foreground'
p47
g7
sS'model.rpar'
p48
g28
sS'yy'
p49
g28
sS'sok'
p50
g11
sS'Pulse_exprs'
p51
NsS'dx'
p52
g7
sS'dy'
p53
g7
sS'random_n_exprs2'
p54
g34
sS'a.clip_state'
p55
g4
sS'yt'
p56
g7
sS'model.blocktype'
p57
g4
sS'save_curwin'
p58
NsS'oipar'
p59
NsS'MENU'
p60
g21
sS't4'
p61
g4
sS't5'
p62
g4
sS't2'
p63
g4
sS'x.model'
p64
NsS'model.dep_ut'
p65
S'vector_boolean'
p66
sS'menu_s'
p67
g2
sS'Sawt1_exprs'
p68
NsS'sample4'
p69
g2
sS'sTp2'
p70
g2
sS'x'
p71
g7
sS'x12'
p72
g4
sS'exprs[1-1]'
p73
g4
sS'points.data'
p74
g2
sS'j'
p75
g4
sS'x11'
p76
g4
sS'Pd3'
p77
g2
sS't3'
p78
g4
sS'ey'
p79
g7
sS'ex'
p80
g7
sS'xmn1'
p81
g7
sS'sAmp'
p82
g2
sS'a.children[2-1]'
p83
g19
sS'sample5'
p84
g2
sS'a.title.font_style'
p85
g7
sS'y2'
p86
g4
sS'orpar'
p87
g2
sS'x.graphics'
p88
g19
sS'menu_d'
p89
g21
sS'menu_e'
p90
g21
sS'A[j+1-1][i+N-1]'
p91
g7
sS'a.children[1-1]'
p92
g19
sS'y1p'
p93
g7
sS'r'
p94
g4
sS'seed4'
p95
g2
sS'seed5'
p96
g2
sS'B[j+1-1]'
p97
g7
sS'model.evtin'
p98
g2
sS'y21'
p99
g4
sS'menu_t'
p100
g21
sS'menu_r'
p101
g2
sS'PO'
p102
g7
sS'x22'
p103
g4
sS'C'
p104
g2
sS'DChange'
p105
g11
sS'Cformat'
p106
g4
sS'Q[i+N-1][i-1]'
p107
g7
sS'rep'
p108
g7
sS'model.out2'
p109
g7
sS'xy[N-1][2-1]'
p110
g7
sS'sTp'
p111
g2
sS'wp'
p112
g2
sS'New_methhod'
p113
g7
sS'PeridicOption'
p114
g7
sS'Graf'
p115
g4
sS'Q'
p116
g7
sS'ok'
p117
g11
sS'ly11'
p118
g7
sS'xy[k-1].slice()'
p119
g2
sS'Z'
p120
g2
sS'Cmenu'
p121
g4
sS'periodicoption'
p122
g7
sS'w'
p123
g4
sS'random_u_exprs2'
p124
g34
sS'model.outtyp'
p125
g7
sS'A[j+1-1][i+2*N-1]'
p126
g7
sS'YMN'
p127
g7
sS'Q[i-1][i+N-1]'
p128
g7
sS'y11'
p129
g4
sS'x2p'
p130
g7
sS'y12'
p131
g4
sS'NC'
p132
g7
sS'xyt'
p133
g2
sS'xo'
p134
g28
sS'ipar[2-1]'
p135
g7
sS'xc'
p136
g7
sS'extrapo'
p137
g7
sS'offset'
p138
g2
sS'splines.data'
p139
g2
sS'perop'
p140
g4
sS'xe'
p141
g7
sS'Y'
p142
g28
sS'xx'
p143
g28
sS'xy'
p144
g2
sS'btn'
p145
g7
sS'xye'
p146
g2
sS'SaveExit'
p147
g11
sS'xp'
p148
g7
sS'Method'
p149
g7
sS'xt'
p150
g28
sS'xyo'
p151
g2
sS'Q[i-1][i-1]'
p152
g7
sS'ystR'
p153
g7
sS'A[j-1][i+2*N-1]'
p154
g7
sS'ipar[4-1]'
p155
g7
sS'px'
p156
g7
sS'py'
p157
g7
sS'splines'
p158
NsS'tok'
p159
g11
sS'ixy'
p160
g2
sS'rect'
p161
g28
sS'NP'
p162
g7
sS'Amp'
p163
g2
sS'exprs[2-1]'
p164
g7
sS'model.firing'
p165
g7
sS'xy2'
p166
g2
sS'B'
p167
g7
sS'A'
p168
g7
sS'yenC'
p169
g4
sS'N'
p170
g7
sS'random_u_exprs'
p171
g34
sS'Sawt2_exprs'
p172
NsS'XMX'
p173
g7
sS'a.x_ticks'
p174
g19
sS'model.in'
p175
g7
sS'graphics'
p176
g19
sS'Exitm'
p177
g4
sS'N2'
p178
g7
sS'model.ipar'
p179
g28
sS'Pw3'
p180
g2
sS'f'
p181
g7
sS'a.grid'
p182
g2
sS'y[N-1]'
p183
g7
sS'gr_i'
p184
g2
sS'ipar'
p185
g2
sS'ystC'
p186
g4
sS'mtd'
p187
g7
sS'PERIODIC'
p188
g4
sS'xmx1'
p189
g7
sS'scam'
p190
g4
sS'exprs[4-1]'
p191
g4
sS'ans0'
p192
g4
sS'ymn1'
p193
g7
sS't1'
p194
g4
sS'model.evtout'
p195
g2
sS'rpar'
p196
g2
sS'lx11'
p197
g7
sS'np5'
p198
g2
sS'Bias3'
p199
g2
sS'Tp3'
p200
g2
sS'model.out'
p201
g7
sS'np4'
p202
g2
sS'rectx'
p203
g7
sS'np1'
p204
g7
sS'Lx'
p205
g7
sS'x21'
p206
g4
sS'model.in2'
p207
g7
sS'x[k-1]'
p208
g2
sS'HIT'
p209
g11
sS'xstR'
p210
g7
sS'ymx1'
p211
g7
sS'A[j+1-1][i-1]'
p212
g7
sS'sAmp2'
p213
g2
sS'TN'
p214
g21
sS'menus'
p215
g34
sS'sdelay'
p216
g2
sS'points'
p217
NsS'Q[i+N-1][i+N-1]'
p218
g7
sS'TA'
p219
g28
sS'Datam'
p220
g4
sS'model.sim'
p221
g34
sS'XMN'
p222
g7
sS'A[j+2-1][i+N+1-1]'
p223
g7
sS'a.data_bounds'
p224
g7
sS'menu_o'
p225
g21
sS'd'
p226
g7
sS'ye'
p227
g7
sS'X'
p228
g28
sS'y2p'
p229
g7
sS'fd'
p230
g7
sS'exprs[5-1]'
p231
g4
sS'graphics.exprs'
p232
NsS'phase'
p233
g7
sS'typ'
p234
g2
sS'min5'
p235
g2
sS'a'
p236
g19
sS'mok'
p237
g11
sS'Orderm'
p238
g4
sS'A[j+2-1][i+N-1]'
p239
g7
sS'B[j-1]'
p240
g7
sS'ly21'
p241
g7
sS'A[j+2-1][i-1]'
p242
g7
sS'max5'
p243
g2
sS'exprs'
p244
g28
sS'exprs[3-1]'
p245
g7
sS'y[k-1]'
p246
g2
sS'At'
p247
g28
sS'y'
p248
g7
sS'model'
p249
g19
sS'order'
p250
g7
s.