c__builtin__
set
p0
((lp1
S'x'
p2
aS'model'
p3
atp4
Rp5
.(dp0
S'arg1'
p1
S'object'
p2
sS'rpar'
p3
NsS'x.model'
p4
g2
sS'model.out'
p5
S'double'
p6
sS'model.in1'
p7
g6
sS'x.graphics'
p8
g2
sS'model.sim'
p9
S'string'
p10
sS'model.rpar'
p11
S'matrix'
p12
sS'yy'
p13
S'vector'
p14
sS'graphics'
p15
g2
sS'typ'
p16
g14
sS'[xx,yy,ok,gc]'
p17
g6
sS'ok'
p18
S'boolean'
p19
sS'model.blocktype'
p20
g10
sS'xx'
p21
g14
sS'model.dep_ut'
p22
g14
sS'n'
p23
g6
sS'exprs'
p24
NsS'gr_i'
p25
g14
sS'y'
p26
g14
sS'x'
p27
g6
sS'model'
p28
g2
s.