c__builtin__
set
p0
((lp1
S'x'
p2
aS'model'
p3
aS'graphics'
p4
atp5
Rp6
.(dp0
S'model.sim'
p1
S'string'
p2
sS'model.out'
p3
S'double'
p4
sS'ok'
p5
S'boolean'
p6
sS'model.blocktype'
p7
g2
sS'x.graphics'
p8
S'object'
p9
sS'arg1'
p10
g9
sS'x.model'
p11
g9
sS'model.rpar'
p12
S'matrix'
p13
sS'rpar'
p14
NsS'yy'
p15
S'vector'
p16
sS'exprs'
p17
NsS'xx'
p18
g16
sS'gr_i'
p19
g16
sS'model.dep_ut'
p20
S'vector_boolean'
p21
sS'model.in'
p22
g4
sS'graphics'
p23
g9
sS'y'
p24
g16
sS'x'
p25
NsS'model'
p26
g9
sS'n'
p27
g4
sS'typ'
p28
g16
s.