c__builtin__
set
p0
((lp1
S'mean4'
p2
aS'ymn1'
p3
aS'inrpar'
p4
aS'extrapo'
p5
aS'offset'
p6
aS'Pd3'
p7
aS'Sawt1_exprs2'
p8
aS'random_n_exprs2'
p9
aS'xx'
p10
aS'xy'
p11
aS'Tp3'
p12
aS'iparin'
p13
aS'xmn1'
p14
aS'np4'
p15
aS'np5'
p16
aS'Amp3'
p17
aS'curwin'
p18
aS'sAmp'
p19
aS'np1'
p20
aS'Method'
p21
aS'xt'
p22
aS'sample5'
p23
aS'Pulse_exprs2'
p24
aS'Cx'
p25
aS'filen'
p26
aS'xa'
p27
aS'random_u_exprs2'
p28
aS'sAmp2'
p29
aS'zok'
p30
aS'iipar'
p31
aS'yt'
p32
aS'sdelay'
p33
aS'ixy'
p34
aS'seed4'
p35
aS'seed5'
p36
aS'Sawt2_exprs2'
p37
aS'Amp'
p38
aS'sok'
p39
aS'var4'
p40
aS'ymx1'
p41
aS'Cformat'
p42
aS'ya'
p43
aS'Bias3'
p44
aS'xls_open'
p45
aS'myans'
p46
aS'xmx1'
p47
aS'inipar'
p48
aS'xls_read'
p49
aS'sTp'
p50
aS'Sin_exprs2'
p51
aS'argn'
p52
aS'wp'
p53
aS'phase'
p54
aS'min5'
p55
aS'mok'
p56
aS'Pw3'
p57
aS'sheetN'
p58
aS'xgetmouse'
p59
aS'max5'
p60
aS'rparin'
p61
aS'sample4'
p62
aS'Cy'
p63
aS'sTp2'
p64
aS'yy'
p65
aS'x'
p66
aS'model'
p67
aS'ORDER2'
p68
aS'irpar'
p69
aS'graf'
p70
aS'xye'
p71
atp72
Rp73
.(dp0
S'mean4'
p1
S'vector'
p2
sS'dist'
p3
S'string'
p4
sS'Sin_exprs'
p5
NsS'ya'
p6
S'double'
p7
sS'xenR'
p8
g7
sS'[orpar,oipar]'
p9
g7
sS'Y[j-1]'
p10
g7
sS'NC'
p11
g7
sS'Ask_again'
p12
S'boolean'
p13
sS'y1'
p14
g4
sS'Amp3'
p15
g2
sS'curwin'
p16
NsS'Standm'
p17
g4
sS'xenC'
p18
g4
sS'yenR'
p19
g7
sS'gh'
p20
S'object'
p21
sS'a.title.text'
p22
g2
sS'xmn'
p23
g7
sS'x1'
p24
g4
sS'y2p'
p25
g7
sS'lx21'
p26
g7
sS'xstC'
p27
g4
sS'ymx'
p28
g7
sS'Zt'
p29
S'matrix'
p30
sS'[this.xy,rpar,ipar]'
p31
g7
sS'[xtt,k2]'
p32
g7
sS'Bt'
p33
g30
sS'a.title.font_size'
p34
g7
sS'xmx'
p35
g7
sS'x1p'
p36
g7
sS'random_n_exprs'
p37
S'list'
p38
sS'a.axes_visible'
p39
g4
sS'METHOD'
p40
g7
sS'PeriodicOption'
p41
g4
sS'ymn'
p42
g7
sS'NOrder'
p43
g7
sS'var4'
p44
g2
sS'xa'
p45
g7
sS'yo'
p46
g7
sS'y22'
p47
g4
sS'[sok]'
p48
g7
sS'YMX'
p49
g7
sS'yc'
p50
g7
sS'a.title.foreground'
p51
g7
sS'model.rpar'
p52
g30
sS'yy'
p53
g30
sS'sok'
p54
g13
sS'Pulse_exprs'
p55
NsS'dx'
p56
g7
sS'dy'
p57
g7
sS'random_n_exprs2'
p58
g38
sS'a.clip_state'
p59
g4
sS'yt'
p60
g7
sS'model.blocktype'
p61
g4
sS'x21'
p62
g4
sS'save_curwin'
p63
NsS'oipar'
p64
NsS'MENU'
p65
g2
sS't4'
p66
g4
sS't5'
p67
g4
sS't2'
p68
g4
sS'x.model'
p69
NsS'model.dep_ut'
p70
g2
sS'menu_s'
p71
g2
sS'Sawt1_exprs'
p72
NsS'sample4'
p73
g2
sS'sTp2'
p74
g2
sS'x'
p75
g7
sS'x12'
p76
g4
sS'[ny,my]'
p77
g7
sS'exprs[1-1]'
p78
g4
sS'points.data'
p79
g2
sS'j'
p80
g4
sS'[nx,mx]'
p81
g7
sS'x11'
p82
g4
sS'arg1'
p83
g21
sS'Pd3'
p84
g2
sS't3'
p85
g4
sS'ey'
p86
g7
sS'ex'
p87
g7
sS'xmn1'
p88
g7
sS'sAmp'
p89
g2
sS'a.children[2-1]'
p90
g21
sS'sample5'
p91
g2
sS'a.title.font_style'
p92
g7
sS'y2'
p93
g4
sS'orpar'
p94
g2
sS'x.graphics'
p95
g21
sS'A[j+2-1][i+N+1-1]'
p96
g7
sS'menu_d'
p97
g2
sS'menu_e'
p98
g2
sS'A[j+1-1][i+N-1]'
p99
g7
sS'a.children[1-1]'
p100
g21
sS'y1p'
p101
g7
sS'r'
p102
g4
sS'seed4'
p103
g2
sS'seed5'
p104
g2
sS'B[j+1-1]'
p105
g7
sS'model.evtin'
p106
g2
sS'y21'
p107
g4
sS'menu_t'
p108
g2
sS'menu_r'
p109
g2
sS'PO'
p110
g7
sS'x22'
p111
g4
sS'C'
p112
g2
sS'DChange'
p113
g13
sS'Cformat'
p114
g4
sS'[Xdummy,Ydummy,orpar]'
p115
g7
sS'rep'
p116
g7
sS'model.out2'
p117
g7
sS'xy[N-1][2-1]'
p118
g7
sS'sTp'
p119
g2
sS'wp'
p120
g2
sS'ystC'
p121
g4
sS'New_methhod'
p122
g7
sS'PeridicOption'
p123
g7
sS'Graf'
p124
g4
sS'Q'
p125
g7
sS'ok'
p126
g13
sS'ly11'
p127
g7
sS'xy[k-1].slice()'
p128
g2
sS'Z'
p129
g2
sS'Cmenu'
p130
g4
sS'[xo,k2]'
p131
g7
sS'periodicoption'
p132
g7
sS'w'
p133
g4
sS'random_u_exprs2'
p134
g38
sS'model.outtyp'
p135
g7
sS'A[j+1-1][i+2*N-1]'
p136
g7
sS'YMN'
p137
g7
sS'Q[i-1][i+N-1]'
p138
g7
sS'y11'
p139
g4
sS'x2p'
p140
g7
sS'y12'
p141
g4
sS'Lx'
p142
g7
sS'py'
p143
g7
sS'xyt'
p144
g2
sS'xo'
p145
g30
sS'ipar[2-1]'
p146
g7
sS'[mv,nv]'
p147
g7
sS'xc'
p148
g7
sS'extrapo'
p149
g7
sS'offset'
p150
g2
sS'splines.data'
p151
g2
sS'perop'
p152
g4
sS'xe'
p153
g7
sS'Y'
p154
g30
sS'xx'
p155
g30
sS'xy'
p156
g2
sS'btn'
p157
g7
sS'xye'
p158
g2
sS'SaveExit'
p159
g13
sS'xp'
p160
g7
sS'Method'
p161
g7
sS'xt'
p162
g30
sS'xyo'
p163
g2
sS'Q[i-1][i-1]'
p164
g7
sS'ystR'
p165
g7
sS'A[j-1][i+2*N-1]'
p166
g7
sS'ipar[4-1]'
p167
g7
sS'px'
p168
g7
sS'[orpar,oipar,ok]'
p169
g7
sS'splines'
p170
NsS'tok'
p171
g13
sS'ixy'
p172
g2
sS'rect'
p173
g30
sS'NP'
p174
g7
sS'Amp'
p175
g2
sS'x2'
p176
g4
sS'exprs[2-1]'
p177
g7
sS'model.firing'
p178
g7
sS'xy2'
p179
g2
sS'B'
p180
g7
sS'A'
p181
g7
sS'[Value,TextInd]'
p182
g7
sS'yenC'
p183
g4
sS'N'
p184
g7
sS'[this.xye]'
p185
g7
sS'random_u_exprs'
p186
g38
sS'Sawt2_exprs'
p187
NsS'[btn,xc,yc,win,Cmenu]'
p188
g7
sS'a.x_ticks'
p189
g21
sS'graphics'
p190
g21
sS'Exitm'
p191
g4
sS'N2'
p192
g7
sS'model.ipar'
p193
g30
sS'[xyo]'
p194
g7
sS'Pw3'
p195
g2
sS'f'
p196
g7
sS'a.grid'
p197
g2
sS'y[N-1]'
p198
g7
sS'[dca,k]'
p199
g7
sS'[this.xt,k2]'
p200
g7
sS'[this.xy]'
p201
g7
sS'gr_i'
p202
g2
sS'ipar'
p203
g2
sS'[rpar,ipar]'
p204
g7
sS'mtd'
p205
g7
sS'PERIODIC'
p206
g4
sS'xmx1'
p207
g7
sS'scam'
p208
g4
sS'exprs[4-1]'
p209
g4
sS'ans0'
p210
g4
sS'ymn1'
p211
g7
sS't1'
p212
g4
sS'model.evtout'
p213
g2
sS'rpar'
p214
g2
sS'lx11'
p215
g7
sS'np5'
p216
g2
sS'Bias3'
p217
g2
sS'Tp3'
p218
g2
sS'model.out'
p219
g7
sS'np4'
p220
g2
sS'rectx'
p221
g7
sS'np1'
p222
g7
sS'[X,Y,orpar]'
p223
g7
sS'[xy]'
p224
g7
sS'model.in2'
p225
g7
sS'model.in1'
p226
g7
sS'x[k-1]'
p227
g2
sS'HIT'
p228
g13
sS'xstR'
p229
g7
sS'ymx1'
p230
g7
sS'A[j+1-1][i-1]'
p231
g7
sS'sAmp2'
p232
g2
sS'TN'
p233
g2
sS'menus'
p234
g38
sS'sdelay'
p235
g2
sS'points'
p236
NsS'[lhs,rhs]'
p237
g7
sS'Q[i+N-1][i+N-1]'
p238
g7
sS'TA'
p239
g30
sS'Datam'
p240
g4
sS'model.sim'
p241
g38
sS'XMN'
p242
g7
sS'[tok,xytt]'
p243
g7
sS'a.data_bounds'
p244
g7
sS'menu_o'
p245
g2
sS'd'
p246
g7
sS'ye'
p247
g7
sS'X'
p248
g30
sS'[fd,SST,Sheetnames,Sheetpos]'
p249
g7
sS'fd'
p250
g7
sS'exprs[5-1]'
p251
g4
sS'graphics.exprs'
p252
NsS'phase'
p253
g7
sS'typ'
p254
g2
sS'min5'
p255
g2
sS'[nD,mD]'
p256
g7
sS'a'
p257
g21
sS'mok'
p258
g13
sS'Orderm'
p259
g4
sS'A[j+2-1][i+N-1]'
p260
g7
sS'B[j-1]'
p261
g7
sS'ly21'
p262
g7
sS'A[j+2-1][i-1]'
p263
g7
sS'max5'
p264
g2
sS'exprs'
p265
g30
sS'exprs[3-1]'
p266
g7
sS'y[k-1]'
p267
g2
sS'At'
p268
g30
sS'y'
p269
g7
sS'XMX'
p270
g7
sS'model'
p271
g21
sS'order'
p272
g7
sS'Q[i+N-1][i-1]'
p273
g7
s.