c__builtin__
set
p0
((lp1
S'rparin'
p2
aS'extrapo'
p3
aS'yy'
p4
aS'xx'
p5
aS'ixy'
p6
aS'iparin'
p7
aS'argn'
p8
aS'xy'
p9
aS'x'
p10
aS'curwin'
p11
aS'Method'
p12
aS'graf'
p13
atp14
Rp15
.(dp0
S'mean4'
p1
S'vector'
p2
sS'Sin_exprs'
p3
g2
sS'Ask_again'
p4
S'boolean'
p5
sS'Amp3'
p6
g2
sS'curwin'
p7
NsS'Standm'
p8
S'string'
p9
sS'gh'
p10
S'object'
p11
sS'xmn'
p12
S'double'
p13
sS'ymx'
p14
g13
sS'a.title.font_size'
p15
g13
sS'xmx'
p16
g13
sS'random_n_exprs'
p17
g2
sS'a.axes_visible'
p18
g9
sS'METHOD'
p19
g13
sS'PeriodicOption'
p20
g9
sS'ymn'
p21
g13
sS'NOrder'
p22
g13
sS'var4'
p23
g2
sS'a.title.foreground'
p24
g13
sS'model.rpar'
p25
S'matrix'
p26
sS'Pulse_exprs'
p27
g2
sS'dx'
p28
g13
sS'dy'
p29
g13
sS'a.clip_state'
p30
g9
sS'model.blocktype'
p31
g9
sS'save_curwin'
p32
NsS'oipar'
p33
g26
sS'MENU'
p34
g2
sS'this.yy'
p35
g26
sS'model.dep_ut'
p36
g2
sS'menu_s'
p37
g2
sS'Sawt1_exprs'
p38
g2
sS'sample4'
p39
g2
sS'sTp2'
p40
g2
sS'[ny,my]'
p41
g13
sS'exprs[1-1]'
p42
g13
sS'[nx,mx]'
p43
g13
sS'arg1'
p44
g11
sS'this.x.model'
p45
NsS'Pd3'
p46
g2
sS'sAmp'
p47
g2
sS'sample5'
p48
g2
sS'a.title.font_style'
p49
g13
sS'orpar'
p50
g26
sS'menu_d'
p51
g2
sS'menu_e'
p52
g2
sS'r'
p53
g9
sS'seed4'
p54
g2
sS'seed5'
p55
g2
sS'model.evtin'
p56
g2
sS'menu_t'
p57
g2
sS'menu_r'
p58
g2
sS'PO'
p59
g13
sS'this.x'
p60
g13
sS'DChange'
p61
g5
sS'[Xdummy,Ydummy,orpar]'
p62
g13
sS'model.out2'
p63
g13
sS'xy[N-1][2-1]'
p64
g13
sS'sTp'
p65
g2
sS'wp'
p66
g2
sS'New_methhod'
p67
g13
sS'PeridicOption'
p68
g13
sS'Graf'
p69
g9
sS'ok'
p70
g5
sS'w'
p71
g9
sS'model.outtyp'
p72
g13
sS'offset'
p73
g2
sS'perop'
p74
g9
sS'xy'
p75
g2
sS'SaveExit'
p76
g5
sS'xp'
p77
g13
sS'this.ixy'
p78
g2
sS'this.Method'
p79
g13
sS'[orpar,oipar,ok]'
p80
g13
sS'rect'
p81
g26
sS'Amp'
p82
g2
sS'exprs[2-1]'
p83
g13
sS'model.firing'
p84
g13
sS'xy2'
p85
g2
sS'N'
p86
g13
sS'random_u_exprs'
p87
g2
sS'Sawt2_exprs'
p88
g2
sS'graphics'
p89
g11
sS'Exitm'
p90
g9
sS'N2'
p91
g13
sS'model.ipar'
p92
g26
sS'this.x.graphics'
p93
g11
sS'Pw3'
p94
g2
sS'f'
p95
g13
sS'a.grid'
p96
g2
sS'[this.xy]'
p97
g13
sS'gr_i'
p98
g2
sS'ipar'
p99
NsS'mtd'
p100
g13
sS'scam'
p101
g9
sS'exprs[4-1]'
p102
g13
sS'model.evtout'
p103
g2
sS'rpar'
p104
NsS'np5'
p105
g2
sS'Bias3'
p106
g2
sS'Tp3'
p107
g2
sS'model.out'
p108
g13
sS'np4'
p109
g2
sS'np1'
p110
g2
sS'[xy]'
p111
g13
sS'model.in2'
p112
g13
sS'model.in1'
p113
g13
sS'sAmp2'
p114
g2
sS'this.xx'
p115
g26
sS'this.extrapo'
p116
g13
sS'menus'
p117
g2
sS'sdelay'
p118
g2
sS'[lhs,rhs]'
p119
g13
sS'Datam'
p120
g9
sS'model.sim'
p121
g2
sS'a.data_bounds'
p122
g26
sS'menu_o'
p123
g2
sS'exprs[5-1]'
p124
g9
sS'graphics.exprs'
p125
NsS'phase'
p126
g2
sS'typ'
p127
g2
sS'min5'
p128
g2
sS'a'
p129
g11
sS'Orderm'
p130
g9
sS'max5'
p131
g2
sS'exprs'
p132
g26
sS'exprs[3-1]'
p133
g13
sS'y'
p134
g2
sS'model'
p135
g13
s.