c__builtin__
set
p0
((lp1
S'order'
p2
aS'yy'
p3
aS'xx'
p4
aS'zz'
p5
aS'graphics'
p6
aS'x'
p7
aS'model'
p8
aS'Method'
p9
aS'graf'
p10
atp11
Rp12
.(dp0
S'exprs[4-1]'
p1
S'string'
p2
sS'SaveExit'
p3
S'boolean'
p4
sS'Nx'
p5
S'double'
p6
sS'Ny'
p7
g6
sS'xx'
p8
S'vector'
p9
sS'zz'
p10
S'matrix'
p11
sS'Ask_again'
p12
g4
sS'model.out'
p13
g6
sS'curwin'
p14
NsS'Method'
p15
g6
sS'gh'
p16
S'object'
p17
sS'gh2'
p18
g6
sS'gh.figure_id'
p19
NsS'METHOD'
p20
g2
sS'model.sim'
p21
S'list'
p22
sS'model.rpar'
p23
g11
sS'yy'
p24
g9
sS'exprs[5-1]'
p25
g2
sS'model.in'
p26
g11
sS'graphics'
p27
g17
sS'model.ipar'
p28
g11
sS'typ'
p29
g9
sS'Graf'
p30
g2
sS'model.blocktype'
p31
g2
sS'ok'
p32
g4
sS'save_curwin'
p33
NsS'x.graphics'
p34
g17
sS'x.model'
p35
NsS'model.dep_ut'
p36
S'vector_boolean'
p37
sS'exprs'
p38
g22
sS'gr_i'
p39
g9
sS'mtd'
p40
g6
sS'graphics.exprs'
p41
NsS'y'
p42
g9
sS'x'
p43
g9
sS'model'
p44
g17
sS'graf'
p45
g2
s.