c__builtin__
set
p0
((lp1
S'mean4'
p2
aS'ymn1'
p3
aS'inrpar'
p4
aS'extrapo'
p5
aS'wp'
p6
aS'Pd3'
p7
aS'Sawt1_exprs2'
p8
aS'random_n_exprs2'
p9
aS'xx'
p10
aS'xy'
p11
aS'Tp3'
p12
aS'iparin'
p13
aS'xmn1'
p14
aS'np4'
p15
aS'np5'
p16
aS'Amp3'
p17
aS'curwin'
p18
aS'sAmp'
p19
aS'np1'
p20
aS'Method'
p21
aS'xt'
p22
aS'sample5'
p23
aS'sTp2'
p24
aS'Pulse_exprs2'
p25
aS'Cx'
p26
aS'filen'
p27
aS'sample4'
p28
aS'xa'
p29
aS'random_u_exprs2'
p30
aS'sAmp2'
p31
aS'zok'
p32
aS'offset'
p33
aS'yt'
p34
aS'sdelay'
p35
aS'ixy'
p36
aS'seed4'
p37
aS'seed5'
p38
aS'Sawt2_exprs2'
p39
aS'Amp'
p40
aS'sok'
p41
aS'var4'
p42
aS'ymx1'
p43
aS'Cformat'
p44
aS'ya'
p45
aS'Bias3'
p46
aS'xls_open'
p47
aS'myans'
p48
aS'xmx1'
p49
aS'inipar'
p50
aS'xls_read'
p51
aS'sTp'
p52
aS'Sin_exprs2'
p53
aS'argn'
p54
aS'graphics'
p55
aS'phase'
p56
aS'iipar'
p57
aS'min5'
p58
aS'mok'
p59
aS'Pw3'
p60
aS'sheetN'
p61
aS'xgetmouse'
p62
aS'max5'
p63
aS'rparin'
p64
aS'exprs'
p65
aS'Cy'
p66
aS'gr_i'
p67
aS'yy'
p68
aS'x'
p69
aS'model'
p70
aS'ORDER2'
p71
aS'irpar'
p72
aS'graf'
p73
aS'xye'
p74
atp75
Rp76
.(dp0
S'mean4'
p1
S'vector'
p2
sS'dist'
p3
S'string'
p4
sS'Sin_exprs'
p5
NsS'xenR'
p6
S'double'
p7
sS'x2'
p8
g4
sS'Y[j-1]'
p9
g7
sS'Ask_again'
p10
S'boolean'
p11
sS'y1'
p12
g4
sS'Amp3'
p13
g2
sS'curwin'
p14
NsS'Standm'
p15
g4
sS'xenC'
p16
g4
sS'yenR'
p17
g7
sS'gh'
p18
S'object'
p19
sS'a.title.text'
p20
S'vector_string'
p21
sS'xmn'
p22
g7
sS'x1'
p23
g4
sS'lx21'
p24
g7
sS'xstC'
p25
g4
sS'ymx'
p26
g7
sS'Zt'
p27
S'matrix'
p28
sS'Bt'
p29
g28
sS'a.title.font_size'
p30
g7
sS'xmx'
p31
g7
sS'x1p'
p32
g7
sS'random_n_exprs'
p33
S'list'
p34
sS'a.axes_visible'
p35
g4
sS'METHOD'
p36
g7
sS'PeriodicOption'
p37
g4
sS'ymn'
p38
g7
sS'NOrder'
p39
g7
sS'var4'
p40
g2
sS'xa'
p41
g7
sS'yo'
p42
g7
sS'y22'
p43
g4
sS'ya'
p44
g7
sS'YMX'
p45
g7
sS'yc'
p46
g7
sS'a.title.foreground'
p47
g7
sS'model.rpar'
p48
g28
sS'yy'
p49
g28
sS'sok'
p50
g11
sS'Pulse_exprs'
p51
NsS'dx'
p52
g7
sS'dy'
p53
g7
sS'random_n_exprs2'
p54
g34
sS'a.clip_state'
p55
g4
sS'yt'
p56
g7
sS'model.blocktype'
p57
g4
sS'save_curwin'
p58
NsS'oipar'
p59
NsS'MENU'
p60
g21
sS't4'
p61
g4
sS't5'
p62
g4
sS't2'
p63
g4
sS'x.model'
p64
NsS'model.dep_ut'
p65
S'vector_boolean'
p66
sS'menu_s'
p67
g2
sS'Sawt1_exprs'
p68
NsS'sample4'
p69
g2
sS'sTp2'
p70
g2
sS'x'
p71
g7
sS'x12'
p72
g4
sS'exprs[1-1]'
p73
g4
sS'points.data'
p74
g2
sS'j'
p75
g4
sS'x11'
p76
g4
sS'arg1'
p77
g19
sS'Pd3'
p78
g2
sS't3'
p79
g4
sS'ey'
p80
g7
sS'ex'
p81
g7
sS'xmn1'
p82
g7
sS'sAmp'
p83
g2
sS'a.children[2-1]'
p84
g19
sS'sample5'
p85
g2
sS'a.title.font_style'
p86
g7
sS'y2'
p87
g4
sS'orpar'
p88
g2
sS'x.graphics'
p89
g19
sS'menu_d'
p90
g21
sS'menu_e'
p91
g21
sS'A[j+1-1][i+N-1]'
p92
g7
sS'a.children[1-1]'
p93
g19
sS'y1p'
p94
g7
sS'r'
p95
g4
sS'seed4'
p96
g2
sS'seed5'
p97
g2
sS'B[j+1-1]'
p98
g7
sS'model.evtin'
p99
g2
sS'y21'
p100
g4
sS'menu_t'
p101
g21
sS'menu_r'
p102
g2
sS'PO'
p103
g7
sS'x22'
p104
g4
sS'C'
p105
g2
sS'DChange'
p106
g11
sS'Cformat'
p107
g4
sS'Q[i+N-1][i-1]'
p108
g7
sS'rep'
p109
g7
sS'model.out2'
p110
g7
sS'xy[N-1][2-1]'
p111
g7
sS'sTp'
p112
g2
sS'wp'
p113
g2
sS'New_methhod'
p114
g7
sS'PeridicOption'
p115
g7
sS'Graf'
p116
g4
sS'Q'
p117
g7
sS'ok'
p118
g11
sS'ly11'
p119
g7
sS'xy[k-1].slice()'
p120
g2
sS'Z'
p121
g2
sS'Cmenu'
p122
g4
sS'periodicoption'
p123
g7
sS'w'
p124
g4
sS'random_u_exprs2'
p125
g34
sS'model.outtyp'
p126
g7
sS'A[j+1-1][i+2*N-1]'
p127
g7
sS'YMN'
p128
g7
sS'Q[i-1][i+N-1]'
p129
g7
sS'y11'
p130
g4
sS'x2p'
p131
g7
sS'y12'
p132
g4
sS'NC'
p133
g7
sS'xyt'
p134
g2
sS'xo'
p135
g28
sS'ipar[2-1]'
p136
g7
sS'xc'
p137
g7
sS'extrapo'
p138
g7
sS'offset'
p139
g2
sS'splines.data'
p140
g2
sS'perop'
p141
g4
sS'xe'
p142
g7
sS'Y'
p143
g28
sS'xx'
p144
g28
sS'xy'
p145
g2
sS'btn'
p146
g7
sS'xye'
p147
g2
sS'SaveExit'
p148
g11
sS'xp'
p149
g7
sS'Method'
p150
g7
sS'xt'
p151
g28
sS'xyo'
p152
g2
sS'Q[i-1][i-1]'
p153
g7
sS'ystR'
p154
g7
sS'A[j-1][i+2*N-1]'
p155
g7
sS'ipar[4-1]'
p156
g7
sS'px'
p157
g7
sS'py'
p158
g7
sS'splines'
p159
NsS'tok'
p160
g11
sS'ixy'
p161
g2
sS'rect'
p162
g28
sS'NP'
p163
g7
sS'Amp'
p164
g2
sS'exprs[2-1]'
p165
g7
sS'model.firing'
p166
g7
sS'xy2'
p167
g2
sS'B'
p168
g7
sS'A'
p169
g7
sS'yenC'
p170
g4
sS'N'
p171
g7
sS'random_u_exprs'
p172
g34
sS'Sawt2_exprs'
p173
NsS'XMX'
p174
g7
sS'a.x_ticks'
p175
g19
sS'model.in'
p176
g7
sS'graphics'
p177
g19
sS'Exitm'
p178
g4
sS'N2'
p179
g7
sS'model.ipar'
p180
g28
sS'Pw3'
p181
g2
sS'f'
p182
g7
sS'a.grid'
p183
g2
sS'y[N-1]'
p184
g7
sS'gr_i'
p185
g2
sS'ipar'
p186
g2
sS'ystC'
p187
g4
sS'mtd'
p188
g7
sS'PERIODIC'
p189
g4
sS'xmx1'
p190
g7
sS'scam'
p191
g4
sS'exprs[4-1]'
p192
g4
sS'ans0'
p193
g4
sS'ymn1'
p194
g7
sS't1'
p195
g4
sS'model.evtout'
p196
g2
sS'rpar'
p197
g2
sS'lx11'
p198
g7
sS'np5'
p199
g2
sS'Bias3'
p200
g2
sS'Tp3'
p201
g2
sS'model.out'
p202
g7
sS'np4'
p203
g2
sS'rectx'
p204
g7
sS'np1'
p205
g7
sS'Lx'
p206
g7
sS'x21'
p207
g4
sS'model.in2'
p208
g7
sS'x[k-1]'
p209
g2
sS'HIT'
p210
g11
sS'xstR'
p211
g7
sS'ymx1'
p212
g7
sS'A[j+1-1][i-1]'
p213
g7
sS'sAmp2'
p214
g2
sS'TN'
p215
g21
sS'menus'
p216
g34
sS'sdelay'
p217
g2
sS'points'
p218
NsS'Q[i+N-1][i+N-1]'
p219
g7
sS'TA'
p220
g28
sS'Datam'
p221
g4
sS'model.sim'
p222
g34
sS'XMN'
p223
g7
sS'A[j+2-1][i+N+1-1]'
p224
g7
sS'a.data_bounds'
p225
g7
sS'menu_o'
p226
g21
sS'd'
p227
g7
sS'ye'
p228
g7
sS'X'
p229
g28
sS'y2p'
p230
g7
sS'fd'
p231
g7
sS'exprs[5-1]'
p232
g4
sS'graphics.exprs'
p233
NsS'phase'
p234
g7
sS'typ'
p235
g2
sS'min5'
p236
g2
sS'a'
p237
g19
sS'mok'
p238
g11
sS'Orderm'
p239
g4
sS'A[j+2-1][i+N-1]'
p240
g7
sS'B[j-1]'
p241
g7
sS'ly21'
p242
g7
sS'A[j+2-1][i-1]'
p243
g7
sS'max5'
p244
g2
sS'exprs'
p245
g28
sS'exprs[3-1]'
p246
g7
sS'y[k-1]'
p247
g2
sS'At'
p248
g28
sS'y'
p249
g7
sS'model'
p250
g19
sS'order'
p251
g7
s.