c__builtin__
set
p0
((lp1
S'x'
p2
aS'model'
p3
aS'gr_i'
p4
aS'exprs'
p5
aS'graphics'
p6
atp7
Rp8
.(dp0
S'model.sim'
p1
S'string'
p2
sS'model.dstate'
p3
S'matrix'
p4
sS'model.blocktype'
p5
g2
sS'exprs'
p6
g2
sS'in1'
p7
S'double'
p8
sS'model.dep_ut'
p9
S'vector'
p10
sS'model.out'
p11
g8
sS'gr_i'
p12
g10
sS'model.in'
p13
g8
sS'y'
p14
g10
sS'x'
p15
g8
sS'model'
p16
S'object'
p17
sS'typ'
p18
g10
s.