c__builtin__
set
p0
((lp1
S'x'
p2
aS'model'
p3
aS'graphics'
p4
atp5
Rp6
.(dp0
S'model.sim'
p1
S'string'
p2
sS'model.dstate'
p3
S'matrix'
p4
sS'model.blocktype'
p5
g2
sS'exprs'
p6
g2
sS'in1'
p7
S'double'
p8
sS'model.dep_ut'
p9
S'vector_boolean'
p10
sS'model.out'
p11
g8
sS'gr_i'
p12
S'vector'
p13
sS'model.in'
p14
g8
sS'y'
p15
g13
sS'x'
p16
g13
sS'model'
p17
S'object'
p18
sS'typ'
p19
g13
s.