c__builtin__
set
p0
((lp1
S'nin'
p2
aS'mm'
p3
aS'exprs'
p4
aS'gr_i'
p5
aS'zcr'
p6
aS'graphics'
p7
aS'x'
p8
aS'model'
p9
atp10
Rp11
.(dp0
S'arg1'
p1
S'object'
p2
sS'graphics'
p3
g2
sS'x.model'
p4
NsS'zcr'
p5
S'double'
p6
sS'model.out'
p7
g6
sS'graphics.style'
p8
S'string'
p9
sS'x.graphics'
p10
g2
sS'typ'
p11
S'vector'
p12
sS'label'
p13
g9
sS'model.sim'
p14
S'list'
p15
sS'model.nmode'
p16
g6
sS'model.in'
p17
g6
sS'graphics.exprs'
p18
NsS'x.graphics.style'
p19
g9
sS'model.ipar'
p20
g6
sS'model.nzcross'
p21
g6
sS'ok'
p22
S'boolean'
p23
sS'model.blocktype'
p24
g9
sS'mm'
p25
g6
sS'model.dep_ut'
p26
S'vector_boolean'
p27
sS'exprs'
p28
g12
sS'gr_i'
p29
g12
sS'y'
p30
g12
sS'x'
p31
NsS'model'
p32
g2
s.