c__builtin__
set
p0
((lp1
S'mm'
p2
aS'x'
p3
aS'nin'
p4
aS'zcr'
p5
atp6
Rp7
.(dp0
S'arg1'
p1
S'object'
p2
sS'graphics'
p3
g2
sS'this.x.model'
p4
NsS'model.out'
p5
S'double'
p6
sS'graphics.style'
p7
S'string'
p8
sS'model.in1'
p9
g6
sS'model.nzcross'
p10
NsS'label'
p11
g8
sS'this.zcr'
p12
g6
sS'this.x'
p13
g6
sS'model.sim'
p14
S'vector'
p15
sS'model.nmode'
p16
NsS'this.mm'
p17
g6
sS'graphics.exprs'
p18
NsS'model.ipar'
p19
g6
sS'this.x.graphics'
p20
g2
sS'[model,graphics,ok]'
p21
g6
sS'ok'
p22
S'boolean'
p23
sS'model.blocktype'
p24
g8
sS'this.x.graphics.style'
p25
g8
sS'typ'
p26
g15
sS'model.dep_ut'
p27
g15
sS'exprs'
p28
g15
sS'gr_i'
p29
g15
sS'y'
p30
g15
sS'model'
p31
g6
s.