c__builtin__
set
p0
((lp1
S'nin'
p2
aS'mm'
p3
aS'zcr'
p4
aS'graphics'
p5
aS'x'
p6
aS'model'
p7
atp8
Rp9
.(dp0
S'arg1'
p1
S'object'
p2
sS'graphics'
p3
g2
sS'x.model'
p4
NsS'zcr'
p5
S'double'
p6
sS'model.out'
p7
g6
sS'graphics.style'
p8
S'string'
p9
sS'model.in1'
p10
g6
sS'x.graphics'
p11
g2
sS'typ'
p12
S'vector'
p13
sS'label'
p14
g9
sS'model.sim'
p15
S'list'
p16
sS'model.nmode'
p17
g6
sS'graphics.exprs'
p18
NsS'x.graphics.style'
p19
g9
sS'model.ipar'
p20
g6
sS'model.nzcross'
p21
g6
sS'ok'
p22
S'boolean'
p23
sS'model.blocktype'
p24
g9
sS'mm'
p25
g6
sS'model.dep_ut'
p26
g13
sS'exprs'
p27
g13
sS'gr_i'
p28
g13
sS'y'
p29
g13
sS'x'
p30
g6
sS'model'
p31
g2
s.