c__builtin__
set
p0
((lp1
S'nin'
p2
aS'mm'
p3
aS'zcr'
p4
aS'graphics'
p5
aS'x'
p6
aS'model'
p7
atp8
Rp9
.(dp0
S'graphics'
p1
S'object'
p2
sS'x.model'
p3
NsS'zcr'
p4
S'double'
p5
sS'model.out'
p6
g5
sS'graphics.style'
p7
S'string'
p8
sS'x.graphics'
p9
g2
sS'typ'
p10
S'vector'
p11
sS'label'
p12
g8
sS'model.sim'
p13
S'list'
p14
sS'model.nmode'
p15
g5
sS'model.in'
p16
g5
sS'graphics.exprs'
p17
NsS'x.graphics.style'
p18
g8
sS'model.ipar'
p19
g5
sS'model.nzcross'
p20
g5
sS'ok'
p21
S'boolean'
p22
sS'model.blocktype'
p23
g8
sS'mm'
p24
g5
sS'model.dep_ut'
p25
S'vector_boolean'
p26
sS'exprs'
p27
S'vector_string'
p28
sS'gr_i'
p29
g11
sS'y'
p30
g11
sS'x'
p31
g11
sS'model'
p32
g2
s.