c__builtin__
set
p0
((lp1
S'mm'
p2
aS'x'
p3
aS'model'
p4
aS'nin'
p5
aS'zcr'
p6
atp7
Rp8
.(dp0
S'arg1'
p1
S'object'
p2
sS'graphics'
p3
g2
sS'x.model'
p4
NsS'zcr'
p5
S'double'
p6
sS'model.out'
p7
g6
sS'graphics.style'
p8
S'string'
p9
sS'model.in1'
p10
g6
sS'x.graphics'
p11
g2
sS'typ'
p12
S'vector'
p13
sS'label'
p14
g9
sS'model.sim'
p15
S'list'
p16
sS'model.nmode'
p17
g6
sS'graphics.exprs'
p18
NsS'x.graphics.style'
p19
g9
sS'model.ipar'
p20
g6
sS'model.nzcross'
p21
g6
sS'[model,graphics,ok]'
p22
g6
sS'ok'
p23
S'boolean'
p24
sS'model.blocktype'
p25
g9
sS'mm'
p26
g6
sS'model.dep_ut'
p27
g13
sS'exprs'
p28
g13
sS'gr_i'
p29
g13
sS'y'
p30
g13
sS'x'
p31
g6
sS'model'
p32
g2
s.