c__builtin__
set
p0
((lp1
S'x'
p2
aS'model'
p3
atp4
Rp5
.(dp0
S'model.sim'
p1
S'string'
p2
sS'model.in1'
p3
S'double'
p4
sS'model.dstate'
p5
S'matrix'
p6
sS'model.blocktype'
p7
g2
sS'exprs'
p8
g4
sS'in1'
p9
g4
sS'model.dep_ut'
p10
S'vector'
p11
sS'model.out'
p12
g4
sS'gr_i'
p13
g11
sS'y'
p14
g11
sS'x'
p15
g4
sS'model'
p16
S'object'
p17
sS'typ'
p18
g11
s.