c__builtin__
set
p0
((lp1
S'x'
p2
atp3
Rp4
.(dp0
S'this.x'
p1
S'double'
p2
sS'model.sim'
p3
S'string'
p4
sS'model.in1'
p5
g2
sS'model.dstate'
p6
S'matrix'
p7
sS'model.blocktype'
p8
g4
sS'exprs'
p9
g2
sS'in1'
p10
g2
sS'model.dep_ut'
p11
S'vector'
p12
sS'model.out'
p13
g2
sS'gr_i'
p14
g12
sS'y'
p15
g12
sS'model'
p16
S'object'
p17
sS'typ'
p18
g12
s.