c__builtin__
set
p0
((lp1
S'a'
p2
aS'x'
p3
aS'model'
p4
aS'graphics'
p5
atp6
Rp7
.(dp0
S'a'
p1
S'double'
p2
sS'model.sim'
p3
S'string'
p4
sS'model.out'
p5
g2
sS'model.blocktype'
p6
g4
sS'x.graphics'
p7
S'object'
p8
sS'arg1'
p9
g8
sS'graphics.exprs'
p10
g2
sS'in1'
p11
g2
sS'model.rpar'
p12
g2
sS'exprs'
p13
g4
sS'x.model'
p14
NsS'gr_i'
p15
S'vector'
p16
sS'model.dep_ut'
p17
S'vector_boolean'
p18
sS'model.in'
p19
g2
sS'graphics'
p20
g8
sS'y'
p21
g16
sS'x'
p22
NsS'model'
p23
g8
sS'model.ipar'
p24
g16
sS'typ'
p25
g16
sS'model.firing'
p26
g16
s.