c__builtin__
set
p0
((lp1
S'a'
p2
aS'x'
p3
aS'model'
p4
aS'graphics'
p5
atp6
Rp7
.(dp0
S'a'
p1
S'double'
p2
sS'model.sim'
p3
S'string'
p4
sS'model.out'
p5
g2
sS'model.blocktype'
p6
g4
sS'x.graphics'
p7
S'object'
p8
sS'graphics'
p9
g8
sS'in1'
p10
g2
sS'model.rpar'
p11
g2
sS'exprs'
p12
g4
sS'x.model'
p13
NsS'gr_i'
p14
S'vector'
p15
sS'model.dep_ut'
p16
S'vector_boolean'
p17
sS'model.in'
p18
g2
sS'graphics.exprs'
p19
g2
sS'y'
p20
g15
sS'x'
p21
g15
sS'model'
p22
g8
sS'model.ipar'
p23
g15
sS'typ'
p24
g15
sS'model.firing'
p25
g15
s.