c__builtin__
set
p0
((lp1
S'x'
p2
aS'model'
p3
aS'sgn'
p4
aS'graphics'
p5
atp6
Rp7
.(dp0
S'model.sim'
p1
S'list'
p2
sS'model.out'
p3
S'double'
p4
sS'ok'
p5
S'boolean'
p6
sS'model.in'
p7
S'matrix'
p8
sS'x.graphics'
p9
S'object'
p10
sS'graphics'
p11
g10
sS'in1'
p12
g4
sS'model.dep_ut'
p13
S'vector_boolean'
p14
sS'exprs'
p15
S'string'
p16
sS'x.model'
p17
NsS'gr_i'
p18
S'vector'
p19
sS'graphics.exprs'
p20
NsS'sgn'
p21
g8
sS'y'
p22
g19
sS'x'
p23
g19
sS'model'
p24
g10
sS'model.ipar'
p25
g8
sS'typ'
p26
g19
sS'nout'
p27
g4
sS'model.blocktype'
p28
g16
s.