c__builtin__
set
p0
((lp1
S'x'
p2
aS'sgn'
p3
atp4
Rp5
.(dp0
S'arg1'
p1
S'object'
p2
sS'graphics'
p3
g2
sS'this.x.model'
p4
NsS'model.out'
p5
S'double'
p6
sS'model.in1'
p7
S'matrix'
p8
sS'this.sgn'
p9
g8
sS'typ'
p10
S'vector'
p11
sS'this.x'
p12
g6
sS'model.sim'
p13
g11
sS'in1'
p14
g6
sS'graphics.exprs'
p15
NsS'model.ipar'
p16
NsS'this.x.graphics'
p17
g2
sS'[model,graphics,ok]'
p18
g6
sS'ok'
p19
S'boolean'
p20
sS'model.blocktype'
p21
S'string'
p22
sS'model.dep_ut'
p23
g11
sS'exprs'
p24
g6
sS'gr_i'
p25
g11
sS'y'
p26
g11
sS'model'
p27
g2
sS'nout'
p28
g6
s.