c__builtin__
set
p0
((lp1
S'x'
p2
aS'model'
p3
aS'sgn'
p4
aS'graphics'
p5
atp6
Rp7
.(dp0
S'model.sim'
p1
S'list'
p2
sS'model.in1'
p3
S'matrix'
p4
sS'ok'
p5
S'boolean'
p6
sS'model.blocktype'
p7
S'string'
p8
sS'x.graphics'
p9
S'object'
p10
sS'arg1'
p11
g10
sS'sgn'
p12
g4
sS'in1'
p13
S'double'
p14
sS'model.out'
p15
g14
sS'exprs'
p16
g8
sS'x.model'
p17
NsS'gr_i'
p18
S'vector'
p19
sS'model.dep_ut'
p20
g19
sS'graphics.exprs'
p21
NsS'graphics'
p22
g10
sS'y'
p23
g19
sS'x'
p24
g14
sS'model'
p25
g10
sS'model.ipar'
p26
g4
sS'typ'
p27
g19
sS'nout'
p28
g14
s.