c__builtin__
set
p0
((lp1
S'x'
p2
atp3
Rp4
.(dp0
S'this.x'
p1
S'double'
p2
sS'model.sim'
p3
S'vector'
p4
sS'model.in1'
p5
S'matrix'
p6
sS'model.blocktype'
p7
S'string'
p8
sS'model.out'
p9
g2
sS'p'
p10
g2
sS'model.dep_ut'
p11
g4
sS'y'
p12
g4
sS'model'
p13
g2
sS'typ'
p14
g4
s.