c__builtin__
set
p0
((lp1
S'x'
p2
aS'model'
p3
aS'gr_i'
p4
aS'exprs'
p5
aS'graphics'
p6
atp7
Rp8
.(dp0
S'model.sim'
p1
S'list'
p2
sS'model.out'
p3
S'double'
p4
sS'model.blocktype'
p5
S'string'
p6
sS'model.dep_ut'
p7
S'vector_boolean'
p8
sS'p'
p9
g4
sS'model.in'
p10
S'matrix'
p11
sS'y'
p12
S'vector'
p13
sS'x'
p14
NsS'model'
p15
S'object'
p16
sS'typ'
p17
g13
s.