c__builtin__
set
p0
((lp1
S'x'
p2
aS'model'
p3
aS'sgn'
p4
atp5
Rp6
.(dp0
S'arg1'
p1
S'object'
p2
sS'graphics'
p3
g2
sS'x.model'
p4
NsS'sgn'
p5
S'matrix'
p6
sS'model.out'
p7
S'double'
p8
sS'model.in1'
p9
g6
sS'x.graphics'
p10
g2
sS'model.sim'
p11
S'vector'
p12
sS'in1'
p13
g8
sS'graphics.exprs'
p14
NsS'model.ipar'
p15
g6
sS'typ'
p16
g12
sS'[model,graphics,ok]'
p17
g8
sS'ok'
p18
S'boolean'
p19
sS'model.blocktype'
p20
S'string'
p21
sS'model.dep_ut'
p22
g12
sS'exprs'
p23
g8
sS'gr_i'
p24
g12
sS'y'
p25
g12
sS'x'
p26
g8
sS'model'
p27
g2
sS'nout'
p28
g8
s.