c__builtin__
set
p0
((lp1
S'graphics'
p2
aS'exprs'
p3
aS'gr_i'
p4
aS'sgn'
p5
aS'x'
p6
aS'model'
p7
atp8
Rp9
.(dp0
S'model.sim'
p1
S'list'
p2
sS'model.out'
p3
S'double'
p4
sS'ok'
p5
S'boolean'
p6
sS'model.in'
p7
S'matrix'
p8
sS'x.graphics'
p9
S'object'
p10
sS'arg1'
p11
g10
sS'sgn'
p12
g8
sS'in1'
p13
g4
sS'model.dep_ut'
p14
S'vector_boolean'
p15
sS'exprs'
p16
S'string'
p17
sS'x.model'
p18
NsS'gr_i'
p19
S'vector'
p20
sS'graphics.exprs'
p21
NsS'graphics'
p22
g10
sS'y'
p23
g20
sS'x'
p24
NsS'model'
p25
g10
sS'model.ipar'
p26
g8
sS'typ'
p27
g20
sS'nout'
p28
g4
sS'model.blocktype'
p29
g17
s.