c__builtin__
set
p0
((lp1
S'x'
p2
aS'model'
p3
atp4
Rp5
.(dp0
S'model.sim'
p1
S'vector'
p2
sS'model.in1'
p3
S'matrix'
p4
sS'model.blocktype'
p5
S'string'
p6
sS'model.out'
p7
S'double'
p8
sS'p'
p9
g8
sS'model.dep_ut'
p10
g2
sS'y'
p11
g2
sS'x'
p12
g8
sS'model'
p13
S'object'
p14
sS'typ'
p15
g2
s.