c__builtin__
set
p0
((lp1
S'x'
p2
aS'model'
p3
aS'sgn'
p4
atp5
Rp6
.(dp0
S'arg1'
p1
S'object'
p2
sS'graphics'
p3
g2
sS'x.model'
p4
NsS'sgn'
p5
S'matrix'
p6
sS'model.out'
p7
S'double'
p8
sS'model.in1'
p9
g6
sS'x.graphics'
p10
g2
sS'model.sim'
p11
S'list'
p12
sS'in1'
p13
g8
sS'graphics.exprs'
p14
NsS'model.ipar'
p15
g6
sS'typ'
p16
S'vector'
p17
sS'[model,graphics,ok]'
p18
g8
sS'ok'
p19
S'boolean'
p20
sS'model.blocktype'
p21
S'string'
p22
sS'model.dep_ut'
p23
g17
sS'exprs'
p24
g8
sS'gr_i'
p25
g17
sS'y'
p26
g17
sS'x'
p27
g8
sS'model'
p28
g2
sS'nout'
p29
g8
s.