c__builtin__
set
p0
((lp1
S'x'
p2
aS'model'
p3
aS'gr_i'
p4
aS'exprs'
p5
aS'graphics'
p6
atp7
Rp8
.(dp0
S'model.sim'
p1
S'list'
p2
sS'model.in1'
p3
S'matrix'
p4
sS'model.blocktype'
p5
S'string'
p6
sS'model.out'
p7
S'double'
p8
sS'p'
p9
g8
sS'model.dep_ut'
p10
S'vector'
p11
sS'y'
p12
g11
sS'x'
p13
g8
sS'model'
p14
S'object'
p15
sS'typ'
p16
g11
s.