c__builtin__
set
p0
((lp1
S'x'
p2
aS'model'
p3
aS'pas'
p4
aS'meth'
p5
aS'graphics'
p6
atp7
Rp8
.(dp0
S'model.sim'
p1
S'string'
p2
sS'model.out'
p3
S'double'
p4
sS'pas'
p5
g4
sS'model.blocktype'
p6
g2
sS'x.graphics'
p7
S'object'
p8
sS'graphics.exprs'
p9
NsS'model.rpar'
p10
g4
sS'rpar'
p11
NsS'exprs'
p12
S'matrix'
p13
sS'x.model'
p14
NsS'gr_i'
p15
S'vector'
p16
sS'model.dep_ut'
p17
S'vector_boolean'
p18
sS'model.in'
p19
g4
sS'graphics'
p20
g8
sS'y'
p21
g16
sS'x'
p22
g16
sS'meth'
p23
g4
sS'model.ipar'
p24
g4
sS'typ'
p25
g16
sS'model'
p26
g8
s.