c__builtin__
set
p0
((lp1
S'x'
p2
aS'meth'
p3
aS'pas'
p4
atp5
Rp6
.(dp0
S'model.sim'
p1
S'string'
p2
sS'model.in1'
p3
S'double'
p4
sS'pas'
p5
g4
sS'model.blocktype'
p6
g2
sS'x.graphics'
p7
S'object'
p8
sS'arg1'
p9
g8
sS'graphics.exprs'
p10
NsS'model.rpar'
p11
g4
sS'rpar'
p12
NsS'exprs'
p13
S'matrix'
p14
sS'x.model'
p15
NsS'gr_i'
p16
S'vector'
p17
sS'model.dep_ut'
p18
g17
sS'graphics'
p19
g8
sS'y'
p20
g17
sS'x'
p21
g4
sS'model'
p22
g8
sS'model.ipar'
p23
g4
sS'typ'
p24
g17
sS'meth'
p25
g4
sS'model.out'
p26
g4
s.