c__builtin__
set
p0
((lp1
S'x'
p2
aS'meth'
p3
aS'pas'
p4
atp5
Rp6
.(dp0
S'this.x'
p1
S'double'
p2
sS'model.sim'
p3
S'string'
p4
sS'model.in1'
p5
g2
sS'model.blocktype'
p6
g4
sS'this.meth'
p7
g2
sS'this.x.graphics'
p8
S'object'
p9
sS'arg1'
p10
g9
sS'graphics.exprs'
p11
NsS'model.rpar'
p12
NsS'rpar'
p13
NsS'this.x.model'
p14
NsS'exprs'
p15
S'matrix'
p16
sS'gr_i'
p17
S'vector'
p18
sS'model.dep_ut'
p19
g18
sS'graphics'
p20
g9
sS'y'
p21
g18
sS'model'
p22
g2
sS'model.ipar'
p23
NsS'typ'
p24
g18
sS'this.pas'
p25
g2
sS'model.out'
p26
g2
s.