c__builtin__
set
p0
((lp1
S'pas'
p2
aS'exprs'
p3
aS'gr_i'
p4
aS'graphics'
p5
aS'x'
p6
aS'model'
p7
aS'meth'
p8
atp9
Rp10
.(dp0
S'model.sim'
p1
S'string'
p2
sS'model.out'
p3
S'double'
p4
sS'pas'
p5
g4
sS'model.blocktype'
p6
g2
sS'x.graphics'
p7
S'object'
p8
sS'arg1'
p9
g8
sS'graphics.exprs'
p10
NsS'model.rpar'
p11
g4
sS'rpar'
p12
NsS'exprs'
p13
S'matrix'
p14
sS'x.model'
p15
NsS'gr_i'
p16
S'vector'
p17
sS'model.dep_ut'
p18
S'vector_boolean'
p19
sS'model.in'
p20
g4
sS'graphics'
p21
g8
sS'y'
p22
g17
sS'x'
p23
NsS'model'
p24
g8
sS'model.ipar'
p25
g4
sS'typ'
p26
g17
sS'meth'
p27
g4
s.