c__builtin__
set
p0
((lp1
S'x'
p2
aS'meth'
p3
aS'pas'
p4
atp5
Rp6
.c__builtin__
set
p0
((lp1
tp2
Rp3
.c__builtin__
set
p0
((lp1
tp2
Rp3
.c__builtin__
set
p0
((lp1
tp2
Rp3
.c__builtin__
set
p0
((lp1
tp2
Rp3
.c__builtin__
set
p0
((lp1
tp2
Rp3
.