c__builtin__
set
p0
((lp1
S'pas'
p2
aS'exprs'
p3
aS'gr_i'
p4
aS'graphics'
p5
aS'x'
p6
aS'model'
p7
aS'meth'
p8
atp9
Rp10
.(dp0
S'model.sim'
p1
S'string'
p2
sS'model.out'
p3
S'double'
p4
sS'pas'
p5
g4
sS'model.blocktype'
p6
g2
sS'x.graphics'
p7
S'object'
p8
sS'arg1'
p9
g8
sS'graphics.exprs'
p10
NsS'model.rpar'
p11
g4
sS'rpar'
p12
NsS'exprs'
p13
S'matrix'
p14
sS'x.model'
p15
NsS'gr_i'
p16
S'vector'
p17
sS'model.dep_ut'
p18
g17
sS'model.in'
p19
g4
sS'graphics'
p20
g8
sS'y'
p21
g17
sS'x'
p22
NsS'model'
p23
g8
sS'model.ipar'
p24
g4
sS'typ'
p25
g17
sS'meth'
p26
g4
s.