c__builtin__
set
p0
((lp1
S'minp'
p2
aS'x'
p3
aS'maxp'
p4
aS'pente'
p5
atp6
Rp7
.(dp0
S'slope'
p1
S'double'
p2
sS'arg1'
p3
S'object'
p4
sS'graphics'
p5
g4
sS'rpar'
p6
S'matrix'
p7
sS'model.nzcross'
p8
g2
sS'this.x.model'
p9
NsS'model.out'
p10
g2
sS'model.in1'
p11
g2
sS'this.minp'
p12
g2
sS'this.maxp'
p13
g2
sS'model.firing'
p14
S'vector'
p15
sS'this.x'
p16
g2
sS'model.sim'
p17
g15
sS'model.rpar'
p18
g7
sS'graphics.exprs'
p19
NsS'this.x.graphics'
p20
g4
sS'model.blocktype'
p21
S'string'
p22
sS'typ'
p23
g15
sS'model.dep_ut'
p24
g15
sS'exprs'
p25
g7
sS'gr_i'
p26
g15
sS'y'
p27
g15
sS'model'
p28
g2
s.