c__builtin__
set
p0
((lp1
S'maxp'
p2
aS'pente'
p3
aS'graphics'
p4
aS'minp'
p5
aS'x'
p6
aS'model'
p7
atp8
Rp9
.(dp0
S'slope'
p1
S'double'
p2
sS'graphics'
p3
S'object'
p4
sS'rpar'
p5
S'matrix'
p6
sS'minp'
p7
g2
sS'x.model'
p8
NsS'model.out'
p9
g2
sS'x.graphics'
p10
g4
sS'typ'
p11
S'vector'
p12
sS'maxp'
p13
g2
sS'model.firing'
p14
g12
sS'model.sim'
p15
S'list'
p16
sS'model.rpar'
p17
g6
sS'model.in'
p18
g2
sS'graphics.exprs'
p19
NsS'model.nzcross'
p20
g2
sS'model.blocktype'
p21
S'string'
p22
sS'model.dep_ut'
p23
S'vector_boolean'
p24
sS'exprs'
p25
g6
sS'gr_i'
p26
g12
sS'y'
p27
g12
sS'x'
p28
g12
sS'model'
p29
g4
s.