c__builtin__
set
p0
((lp1
S'maxp'
p2
aS'exprs'
p3
aS'gr_i'
p4
aS'pente'
p5
aS'graphics'
p6
aS'minp'
p7
aS'x'
p8
aS'model'
p9
atp10
Rp11
.(dp0
S'slope'
p1
S'double'
p2
sS'arg1'
p3
S'object'
p4
sS'graphics'
p5
g4
sS'rpar'
p6
S'matrix'
p7
sS'minp'
p8
g2
sS'x.model'
p9
NsS'model.out'
p10
g2
sS'x.graphics'
p11
g4
sS'typ'
p12
S'vector'
p13
sS'maxp'
p14
g2
sS'model.firing'
p15
g13
sS'model.sim'
p16
S'list'
p17
sS'model.rpar'
p18
g7
sS'model.in'
p19
g2
sS'graphics.exprs'
p20
NsS'model.nzcross'
p21
g2
sS'model.blocktype'
p22
S'string'
p23
sS'model.dep_ut'
p24
g13
sS'exprs'
p25
g7
sS'gr_i'
p26
g13
sS'y'
p27
g13
sS'x'
p28
NsS'model'
p29
g4
s.