c__builtin__
set
p0
((lp1
S'minp'
p2
aS'x'
p3
aS'maxp'
p4
aS'pente'
p5
atp6
Rp7
.(dp0
S'slope'
p1
S'double'
p2
sS'arg1'
p3
S'object'
p4
sS'graphics'
p5
g4
sS'rpar'
p6
S'matrix'
p7
sS'model.out'
p8
g2
sS'x.model'
p9
NsS'minp'
p10
g2
sS'model.in1'
p11
g2
sS'x.graphics'
p12
g4
sS'typ'
p13
S'vector'
p14
sS'maxp'
p15
g2
sS'model.firing'
p16
g14
sS'model.sim'
p17
g14
sS'model.rpar'
p18
g7
sS'graphics.exprs'
p19
NsS'model.nzcross'
p20
g2
sS'model.blocktype'
p21
S'string'
p22
sS'model.dep_ut'
p23
g14
sS'exprs'
p24
g7
sS'gr_i'
p25
g14
sS'y'
p26
g14
sS'x'
p27
g2
sS'model'
p28
g4
s.