c__builtin__
set
p0
((lp1
S'maxp'
p2
aS'pente'
p3
aS'graphics'
p4
aS'minp'
p5
aS'x'
p6
aS'model'
p7
atp8
Rp9
.(dp0
S'slope'
p1
S'double'
p2
sS'arg1'
p3
S'object'
p4
sS'graphics'
p5
g4
sS'rpar'
p6
S'matrix'
p7
sS'model.out'
p8
g2
sS'x.model'
p9
NsS'minp'
p10
g2
sS'model.in1'
p11
g2
sS'x.graphics'
p12
g4
sS'typ'
p13
S'vector'
p14
sS'maxp'
p15
g2
sS'model.firing'
p16
g14
sS'model.sim'
p17
S'list'
p18
sS'model.rpar'
p19
g7
sS'graphics.exprs'
p20
NsS'model.nzcross'
p21
g2
sS'model.blocktype'
p22
S'string'
p23
sS'model.dep_ut'
p24
g14
sS'exprs'
p25
g7
sS'gr_i'
p26
g14
sS'y'
p27
g14
sS'x'
p28
g2
sS'model'
p29
g4
s.