c__builtin__
set
p0
((lp1
S'minp'
p2
aS'x'
p3
aS'model'
p4
aS'zeroc'
p5
aS'maxp'
p6
atp7
Rp8
.(dp0
S'arg1'
p1
S'object'
p2
sS'graphics'
p3
g2
sS'rpar'
p4
S'matrix'
p5
sS'model.out'
p6
S'double'
p7
sS'x.model'
p8
NsS'minp'
p9
g7
sS'model.in1'
p10
g7
sS'x.graphics'
p11
g2
sS'typ'
p12
S'vector'
p13
sS'maxp'
p14
g7
sS'model.sim'
p15
S'list'
p16
sS'model.nmode'
p17
g7
sS'model.rpar'
p18
g5
sS'graphics.exprs'
p19
NsS'model.nzcross'
p20
g7
sS'model.blocktype'
p21
S'string'
p22
sS'model.dep_ut'
p23
g13
sS'exprs'
p24
g5
sS'gr_i'
p25
g13
sS'y'
p26
g13
sS'x'
p27
g7
sS'model'
p28
g2
s.