c__builtin__
set
p0
((lp1
S'zeroc'
p2
aS'maxp'
p3
aS'exprs'
p4
aS'gr_i'
p5
aS'graphics'
p6
aS'minp'
p7
aS'x'
p8
aS'model'
p9
atp10
Rp11
.(dp0
S'arg1'
p1
S'object'
p2
sS'graphics'
p3
g2
sS'rpar'
p4
S'matrix'
p5
sS'minp'
p6
S'double'
p7
sS'x.model'
p8
NsS'model.out'
p9
g7
sS'x.graphics'
p10
g2
sS'typ'
p11
S'vector'
p12
sS'maxp'
p13
g7
sS'model.sim'
p14
S'list'
p15
sS'model.nmode'
p16
g7
sS'model.rpar'
p17
g5
sS'model.in'
p18
g7
sS'graphics.exprs'
p19
NsS'model.nzcross'
p20
g7
sS'model.blocktype'
p21
S'string'
p22
sS'model.dep_ut'
p23
S'vector_boolean'
p24
sS'exprs'
p25
g5
sS'gr_i'
p26
g12
sS'y'
p27
g12
sS'x'
p28
NsS'model'
p29
g2
s.