c__builtin__
set
p0
((lp1
S'x'
p2
aS'model'
p3
aS'zcr'
p4
aS'graphics'
p5
atp6
Rp7
.(dp0
S'model.sim'
p1
S'list'
p2
sS'model.out'
p3
S'double'
p4
sS'model.blocktype'
p5
S'string'
p6
sS'x.graphics'
p7
S'object'
p8
sS'model.nzcross'
p9
g4
sS'graphics'
p10
g8
sS'model.nmode'
p11
g4
sS'model.dep_ut'
p12
S'vector_boolean'
p13
sS'exprs'
p14
S'vector_string'
p15
sS'x.model'
p16
NsS'gr_i'
p17
S'vector'
p18
sS'model.in'
p19
g4
sS'graphics.exprs'
p20
NsS'y'
p21
g18
sS'x'
p22
g18
sS'model'
p23
g8
sS'typ'
p24
g18
sS'nu'
p25
g4
s.