c__builtin__
set
p0
((lp1
S'exprs'
p2
aS'gr_i'
p3
aS'zcr'
p4
aS'graphics'
p5
aS'x'
p6
aS'model'
p7
atp8
Rp9
.(dp0
S'model.sim'
p1
S'list'
p2
sS'model.in1'
p3
S'double'
p4
sS'model.blocktype'
p5
S'string'
p6
sS'x.graphics'
p7
S'object'
p8
sS'arg1'
p9
g8
sS'graphics.exprs'
p10
NsS'model.nmode'
p11
g4
sS'model.out'
p12
g4
sS'model.nzcross'
p13
g4
sS'exprs'
p14
S'vector'
p15
sS'x.model'
p16
NsS'gr_i'
p17
g15
sS'model.dep_ut'
p18
g15
sS'graphics'
p19
g8
sS'y'
p20
g15
sS'x'
p21
g4
sS'model'
p22
g8
sS'typ'
p23
g15
sS'nu'
p24
g4
s.