c__builtin__
set
p0
((lp1
S'x'
p2
aS'model'
p3
aS'gr_i'
p4
aS'exprs'
p5
aS'graphics'
p6
atp7
Rp8
.(dp0
S'model.sim'
p1
S'string'
p2
sS'model.blocktype'
p3
g2
sS'exprs'
p4
g2
sS'model.dep_ut'
p5
S'vector'
p6
sS'model.out'
p7
S'double'
p8
sS'gr_i'
p9
g6
sS'model.in'
p10
g8
sS'y'
p11
g6
sS'x'
p12
NsS'model'
p13
S'object'
p14
sS'typ'
p15
g6
s.