c__builtin__
set
p0
((lp1
S'x'
p2
aS'model'
p3
atp4
Rp5
.(dp0
S'model.sim'
p1
S'string'
p2
sS'model.in1'
p3
S'double'
p4
sS'model.blocktype'
p5
g2
sS'exprs'
p6
g2
sS'model.dep_ut'
p7
S'vector'
p8
sS'model.out'
p9
g4
sS'gr_i'
p10
g8
sS'y'
p11
g8
sS'x'
p12
g4
sS'model'
p13
S'object'
p14
sS'typ'
p15
g8
s.