c__builtin__
set
p0
((lp1
S'x'
p2
atp3
Rp4
.(dp0
S'model.sim'
p1
S'string'
p2
sS'model.in1'
p3
S'double'
p4
sS'model.blocktype'
p5
g2
sS'x.model.firing'
p6
S'vector'
p7
sS'exprs'
p8
g4
sS'in1'
p9
g4
sS'model.dep_ut'
p10
g7
sS'model.out'
p11
g4
sS'gr_i'
p12
g7
sS'y'
p13
g7
sS'x'
p14
g4
sS'model'
p15
S'object'
p16
sS'typ'
p17
g7
s.