c__builtin__
set
p0
((lp1
S'x'
p2
atp3
Rp4
.(dp0
S'this.x'
p1
S'double'
p2
sS'model.sim'
p3
S'string'
p4
sS'model.in1'
p5
g2
sS'this.x.model.firing'
p6
S'vector'
p7
sS'exprs'
p8
g2
sS'in1'
p9
g2
sS'model.dep_ut'
p10
g7
sS'model.out'
p11
g2
sS'gr_i'
p12
g7
sS'y'
p13
g7
sS'model'
p14
S'object'
p15
sS'typ'
p16
g7
sS'model.blocktype'
p17
g4
s.