c__builtin__
set
p0
((lp1
S'x'
p2
aS'model'
p3
aS'gr_i'
p4
aS'exprs'
p5
aS'graphics'
p6
atp7
Rp8
.(dp0
S'model.sim'
p1
S'string'
p2
sS'model.blocktype'
p3
g2
sS'x.model.firing'
p4
S'vector'
p5
sS'exprs'
p6
g2
sS'in1'
p7
S'double'
p8
sS'model.dep_ut'
p9
g5
sS'model.out'
p10
g8
sS'gr_i'
p11
g5
sS'model.in'
p12
g8
sS'y'
p13
g5
sS'x'
p14
NsS'model'
p15
S'object'
p16
sS'typ'
p17
g5
s.