c__builtin__
set
p0
((lp1
S'exprs'
p2
aS'gr_i'
p3
aS'graphics'
p4
aS'fun'
p5
aS'x'
p6
aS'model'
p7
atp8
Rp9
.(dp0
S'model.sim'
p1
S'list'
p2
sS'model.out'
p3
S'double'
p4
sS'model.blocktype'
p5
S'string'
p6
sS'x.graphics'
p7
S'object'
p8
sS'arg1'
p9
g8
sS'graphics.exprs'
p10
NsS'PREVAR_FF'
p11
S'matrix'
p12
sS'PREVAR_GG'
p13
g12
sS'exprs'
p14
g6
sS'x.model'
p15
NsS'gr_i'
p16
S'vector'
p17
sS'model.dep_ut'
p18
g17
sS'model.in'
p19
g4
sS'graphics'
p20
g8
sS'y'
p21
g17
sS'x'
p22
NsS'model'
p23
g8
sS'typ'
p24
g17
s.