c__builtin__
set
p0
((lp1
S'fun'
p2
aS'x'
p3
aS'model'
p4
aS'PREVAR_GG'
p5
aS'graphics'
p6
atp7
Rp8
.(dp0
S'model.sim'
p1
S'list'
p2
sS'model.out'
p3
S'double'
p4
sS'model.blocktype'
p5
S'string'
p6
sS'x.graphics'
p7
S'object'
p8
sS'graphics.exprs'
p9
NsS'PREVAR_FF'
p10
S'matrix'
p11
sS'PREVAR_GG'
p12
g11
sS'exprs'
p13
g6
sS'x.model'
p14
NsS'gr_i'
p15
S'vector'
p16
sS'model.dep_ut'
p17
S'vector_boolean'
p18
sS'model.in'
p19
g4
sS'graphics'
p20
g8
sS'y'
p21
g16
sS'x'
p22
g16
sS'model'
p23
g8
sS'typ'
p24
g16
s.