c__builtin__
set
p0
((lp1
S'fun'
p2
aS'x'
p3
atp4
Rp5
.(dp0
S'model.sim'
p1
S'vector'
p2
sS'model.in1'
p3
S'double'
p4
sS'model.blocktype'
p5
S'string'
p6
sS'x.graphics'
p7
S'object'
p8
sS'arg1'
p9
g8
sS'graphics.exprs'
p10
NsS'PREVAR_FF'
p11
S'matrix'
p12
sS'PREVAR_GG'
p13
g12
sS'exprs'
p14
g6
sS'x.model'
p15
NsS'gr_i'
p16
g2
sS'model.dep_ut'
p17
g2
sS'graphics'
p18
g8
sS'y'
p19
g2
sS'x'
p20
g4
sS'model'
p21
g8
sS'typ'
p22
g2
sS'model.out'
p23
g4
s.