c__builtin__
set
p0
((lp1
S'fun'
p2
aS'x'
p3
aS'model'
p4
aS'PREVAR_GG'
p5
aS'graphics'
p6
atp7
Rp8
.(dp0
S'model.sim'
p1
S'list'
p2
sS'model.out'
p3
S'double'
p4
sS'model.blocktype'
p5
S'string'
p6
sS'x.graphics'
p7
S'object'
p8
sS'arg1'
p9
g8
sS'graphics.exprs'
p10
NsS'PREVAR_FF'
p11
S'matrix'
p12
sS'PREVAR_GG'
p13
g12
sS'exprs'
p14
g6
sS'x.model'
p15
NsS'gr_i'
p16
S'vector'
p17
sS'model.dep_ut'
p18
S'vector_boolean'
p19
sS'model.in'
p20
g4
sS'graphics'
p21
g8
sS'y'
p22
g17
sS'x'
p23
NsS'model'
p24
g8
sS'typ'
p25
g17
s.