c__builtin__
set
p0
((lp1
S'fun'
p2
aS'x'
p3
atp4
Rp5
.(dp0
S'this.x'
p1
S'double'
p2
sS'model.sim'
p3
S'vector'
p4
sS'model.in1'
p5
g2
sS'model.blocktype'
p6
S'string'
p7
sS'this.x.graphics'
p8
S'object'
p9
sS'arg1'
p10
g9
sS'graphics.exprs'
p11
NsS'PREVAR_FF'
p12
S'matrix'
p13
sS'PREVAR_GG'
p14
g13
sS'this.x.model'
p15
NsS'exprs'
p16
g7
sS'gr_i'
p17
g4
sS'model.dep_ut'
p18
g4
sS'graphics'
p19
g9
sS'y'
p20
g4
sS'model'
p21
g9
sS'typ'
p22
g4
sS'model.out'
p23
g2
s.