c__builtin__
set
p0
((lp1
S'fun'
p2
aS'x'
p3
aS'model'
p4
atp5
Rp6
.(dp0
S'model.sim'
p1
S'list'
p2
sS'model.in1'
p3
S'double'
p4
sS'model.blocktype'
p5
S'string'
p6
sS'x.graphics'
p7
S'object'
p8
sS'arg1'
p9
g8
sS'graphics.exprs'
p10
NsS'PREVAR_FF'
p11
S'matrix'
p12
sS'PREVAR_GG'
p13
g12
sS'exprs'
p14
g6
sS'x.model'
p15
NsS'gr_i'
p16
S'vector'
p17
sS'model.dep_ut'
p18
g17
sS'graphics'
p19
g8
sS'y'
p20
g17
sS'x'
p21
g4
sS'model'
p22
g8
sS'typ'
p23
g17
sS'model.out'
p24
g4
s.