c__builtin__
set
p0
((lp1
S'x'
p2
aS'model'
p3
aS'tag'
p4
aS'graphics'
p5
atp6
Rp7
.(dp0
S'needcompile'
p1
S'double'
p2
sS'model.sim'
p3
S'string'
p4
sS'model.evtout'
p5
g2
sS'model.blocktype'
p6
g4
sS'x.graphics'
p7
S'object'
p8
sS'graphics.exprs'
p9
NsS'model.dep_ut'
p10
S'vector_boolean'
p11
sS'exprs'
p12
g4
sS'x.model'
p13
g8
sS'graphics'
p14
g8
sS'y'
p15
g2
sS'x'
p16
S'vector'
p17
sS'model'
p18
g8
sS'typ'
p19
g17
sS'model.opar'
p20
S'list'
p21
sS'model.firing'
p22
g2
sS'x.graphics.id'
p23
g4
s.