c__builtin__
set
p0
((lp1
S'x'
p2
aS'tag'
p3
atp4
Rp5
.(dp0
S'this.x'
p1
S'double'
p2
sS'needcompile'
p3
g2
sS'model.evtout'
p4
g2
sS'model.blocktype'
p5
S'string'
p6
sS'model.sim'
p7
g6
sS'this.x.graphics'
p8
S'object'
p9
sS'arg1'
p10
g9
sS'graphics.exprs'
p11
NsS'model.dep_ut'
p12
S'vector'
p13
sS'this.x.model'
p14
g9
sS'exprs'
p15
g6
sS'this.x.graphics.id'
p16
g6
sS'graphics'
p17
g9
sS'y'
p18
g2
sS'model'
p19
g9
sS'typ'
p20
g13
sS'model.opar'
p21
g13
sS'model.firing'
p22
g2
s.