c__builtin__
set
p0
((lp1
S'x'
p2
aS'model'
p3
aS'tag'
p4
atp5
Rp6
.(dp0
S'needcompile'
p1
S'double'
p2
sS'model.sim'
p3
S'string'
p4
sS'model.evtout'
p5
g2
sS'model.blocktype'
p6
g4
sS'x.graphics'
p7
S'object'
p8
sS'arg1'
p9
g8
sS'graphics.exprs'
p10
NsS'model.dep_ut'
p11
S'vector'
p12
sS'exprs'
p13
g4
sS'x.model'
p14
g8
sS'graphics'
p15
g8
sS'y'
p16
g2
sS'x'
p17
g2
sS'model'
p18
g8
sS'typ'
p19
g12
sS'model.opar'
p20
g12
sS'model.firing'
p21
g2
sS'x.graphics.id'
p22
g4
s.