c__builtin__
set
p0
((lp1
S'x'
p2
aS'model'
p3
aS'tag'
p4
aS'graphics'
p5
atp6
Rp7
.(dp0
S'needcompile'
p1
S'double'
p2
sS'model.sim'
p3
S'string'
p4
sS'model.evtout'
p5
g2
sS'model.blocktype'
p6
g4
sS'x.graphics'
p7
S'object'
p8
sS'arg1'
p9
g8
sS'graphics.exprs'
p10
NsS'model.dep_ut'
p11
S'vector_boolean'
p12
sS'exprs'
p13
g4
sS'x.model'
p14
g8
sS'graphics'
p15
g8
sS'y'
p16
g2
sS'x'
p17
NsS'model'
p18
g8
sS'typ'
p19
S'vector'
p20
sS'model.opar'
p21
S'list'
p22
sS'model.firing'
p23
g2
sS'x.graphics.id'
p24
g4
s.