c__builtin__
set
p0
((lp1
S'gr_i'
p2
aS'exprs'
p3
aS'tag'
p4
aS'graphics'
p5
aS'x'
p6
aS'model'
p7
atp8
Rp9
.(dp0
S'needcompile'
p1
S'double'
p2
sS'model.sim'
p3
S'string'
p4
sS'model.evtout'
p5
g2
sS'model.blocktype'
p6
g4
sS'x.graphics'
p7
S'object'
p8
sS'arg1'
p9
g8
sS'graphics.exprs'
p10
NsS'model.dep_ut'
p11
S'vector'
p12
sS'exprs'
p13
g4
sS'x.model'
p14
g8
sS'graphics'
p15
g8
sS'y'
p16
g2
sS'x'
p17
g2
sS'model'
p18
g8
sS'typ'
p19
g12
sS'model.opar'
p20
S'list'
p21
sS'model.firing'
p22
g2
sS'x.graphics.id'
p23
g4
s.