c__builtin__
set
p0
((lp1
S'x'
p2
aS'model'
p3
aS'tag'
p4
aS'graphics'
p5
atp6
Rp7
.(dp0
S'arg1'
p1
S'object'
p2
sS'graphics'
p3
g2
sS'x.model'
p4
g2
sS'model.out'
p5
S'vector'
p6
sS'model.in2'
p7
g6
sS'model.intyp'
p8
S'double'
p9
sS'x.graphics'
p10
g2
sS'model.evtin'
p11
g6
sS'model.firing'
p12
S'boolean'
p13
sS'model.sim'
p14
S'string'
p15
sS'model.out2'
p16
g6
sS'y'
p17
g9
sS'model.in'
p18
g6
sS'graphics.exprs'
p19
NsS'typ'
p20
g6
sS'model.opar'
p21
S'list'
p22
sS'needcompile'
p23
g9
sS'model.blocktype'
p24
g15
sS'model.dep_ut'
p25
S'vector_boolean'
p26
sS'exprs'
p27
g15
sS'gr_i'
p28
g6
sS'model.outtyp'
p29
g9
sS'x'
p30
NsS'model'
p31
g2
s.