c__builtin__
set
p0
((lp1
S'x'
p2
aS'tag'
p3
aS'tagvis'
p4
atp5
Rp6
.(dp0
S'this.x'
p1
S'double'
p2
sS'needcompile'
p3
g2
sS'model.ipar'
p4
g2
sS'ok'
p5
S'boolean'
p6
sS'model.blocktype'
p7
S'string'
p8
sS'model.sim'
p9
g8
sS'this.x.graphics'
p10
S'object'
p11
sS'arg1'
p12
g11
sS'model.evtin'
p13
g2
sS'model.dep_ut'
p14
S'vector'
p15
sS'this.x.model'
p16
g11
sS'exprs'
p17
S'matrix'
p18
sS'this.x.graphics.id'
p19
g8
sS'graphics.exprs'
p20
NsS'graphics'
p21
g11
sS'y'
p22
g2
sS'model'
p23
g11
sS'this.tagvis'
p24
g2
sS'typ'
p25
g15
sS'model.opar'
p26
g15
sS'model.firing'
p27
g2
s.