c__builtin__
set
p0
((lp1
S'x'
p2
aS'model'
p3
aS'tag'
p4
aS'tagvis'
p5
atp6
Rp7
.(dp0
S'needcompile'
p1
S'double'
p2
sS'model.sim'
p3
S'string'
p4
sS'ok'
p5
S'boolean'
p6
sS'model.evtin'
p7
g2
sS'x.graphics'
p8
S'object'
p9
sS'arg1'
p10
g9
sS'tagvis'
p11
g2
sS'x.graphics.id'
p12
g4
sS'model.dep_ut'
p13
S'vector'
p14
sS'exprs'
p15
S'matrix'
p16
sS'x.model'
p17
g9
sS'graphics.exprs'
p18
NsS'graphics'
p19
g9
sS'y'
p20
g2
sS'x'
p21
g2
sS'model'
p22
g9
sS'model.ipar'
p23
g2
sS'typ'
p24
g14
sS'model.opar'
p25
g14
sS'model.firing'
p26
g2
sS'model.blocktype'
p27
g4
s.