c__builtin__
set
p0
((lp1
S'x'
p2
aS'model'
p3
aS'tag'
p4
aS'tagvis'
p5
aS'graphics'
p6
atp7
Rp8
.(dp0
S'needcompile'
p1
S'double'
p2
sS'model.sim'
p3
S'string'
p4
sS'ok'
p5
S'boolean'
p6
sS'model.blocktype'
p7
g4
sS'x.graphics'
p8
S'object'
p9
sS'model.evtin'
p10
g2
sS'model.dep_ut'
p11
S'vector_boolean'
p12
sS'model.opar'
p13
S'list'
p14
sS'exprs'
p15
S'matrix'
p16
sS'x.model'
p17
g9
sS'graphics.exprs'
p18
NsS'graphics'
p19
g9
sS'y'
p20
g2
sS'x'
p21
S'vector'
p22
sS'tagvis'
p23
g2
sS'model.ipar'
p24
g2
sS'typ'
p25
g22
sS'model'
p26
g9
sS'model.firing'
p27
g2
sS'x.graphics.id'
p28
g4
s.