c__builtin__
set
p0
((lp1
S'x'
p2
aS'model'
p3
aS'out'
p4
atp5
Rp6
.(dp0
S'arg1'
p1
S'object'
p2
sS'graphics'
p3
g2
sS'x.model'
p4
NsS'model.out'
p5
S'vector'
p6
sS'out'
p7
S'double'
p8
sS'model.in1'
p9
g8
sS'x.graphics'
p10
g2
sS'model.firing'
p11
g6
sS'model.sim'
p12
S'list'
p13
sS'nin'
p14
g8
sS'[this.model,graphics,ok]'
p15
g13
sS'graphics.exprs'
p16
NsS'model.ipar'
p17
g8
sS'typ'
p18
g6
sS'ok'
p19
S'boolean'
p20
sS'model.blocktype'
p21
S'string'
p22
sS'model.dep_ut'
p23
g6
sS'exprs'
p24
g22
sS'gr_i'
p25
g6
sS'y'
p26
g6
sS'x'
p27
g8
sS'model'
p28
g2
s.