c__builtin__
set
p0
((lp1
S'x'
p2
aS'model'
p3
aS'out'
p4
aS'graphics'
p5
atp6
Rp7
.(dp0
S'model.sim'
p1
S'list'
p2
sS'model.out'
p3
S'vector'
p4
sS'ok'
p5
S'boolean'
p6
sS'model.blocktype'
p7
S'string'
p8
sS'x.graphics'
p9
S'object'
p10
sS'graphics.exprs'
p11
NsS'nin'
p12
S'double'
p13
sS'model.dep_ut'
p14
S'vector_boolean'
p15
sS'exprs'
p16
g8
sS'x.model'
p17
NsS'gr_i'
p18
g4
sS'model.in'
p19
g13
sS'graphics'
p20
g10
sS'y'
p21
g4
sS'x'
p22
g4
sS'model'
p23
g10
sS'model.ipar'
p24
g13
sS'typ'
p25
g4
sS'model.firing'
p26
g4
sS'out'
p27
g13
s.