c__builtin__
set
p0
((lp1
S'x'
p2
aS'model'
p3
aS'out'
p4
aS'graphics'
p5
atp6
Rp7
.(dp0
S'model.sim'
p1
S'list'
p2
sS'model.in1'
p3
S'double'
p4
sS'ok'
p5
S'boolean'
p6
sS'model.blocktype'
p7
S'string'
p8
sS'x.graphics'
p9
S'object'
p10
sS'arg1'
p11
g10
sS'graphics.exprs'
p12
NsS'nin'
p13
g4
sS'model.out'
p14
S'vector'
p15
sS'exprs'
p16
g8
sS'x.model'
p17
NsS'gr_i'
p18
g15
sS'model.dep_ut'
p19
g15
sS'graphics'
p20
g10
sS'y'
p21
g15
sS'x'
p22
g4
sS'model'
p23
g10
sS'model.ipar'
p24
g4
sS'typ'
p25
g15
sS'model.firing'
p26
g15
sS'out'
p27
g4
s.