c__builtin__
set
p0
((lp1
S'exprs'
p2
aS'gr_i'
p3
aS'graphics'
p4
aS'x'
p5
aS'model'
p6
aS'out'
p7
atp8
Rp9
.(dp0
S'model.sim'
p1
S'list'
p2
sS'model.out'
p3
S'vector'
p4
sS'ok'
p5
S'boolean'
p6
sS'model.blocktype'
p7
S'string'
p8
sS'x.graphics'
p9
S'object'
p10
sS'arg1'
p11
g10
sS'graphics.exprs'
p12
NsS'nin'
p13
S'double'
p14
sS'model.dep_ut'
p15
g4
sS'exprs'
p16
g8
sS'x.model'
p17
NsS'gr_i'
p18
g4
sS'model.in'
p19
g14
sS'graphics'
p20
g10
sS'y'
p21
g4
sS'x'
p22
g14
sS'model'
p23
g10
sS'model.ipar'
p24
g14
sS'typ'
p25
g4
sS'model.firing'
p26
g4
sS'out'
p27
g14
s.