c__builtin__
set
p0
((lp1
S'x'
p2
aS'out'
p3
atp4
Rp5
.(dp0
S'arg1'
p1
S'object'
p2
sS'graphics'
p3
g2
sS'x.model'
p4
NsS'model.out'
p5
S'vector'
p6
sS'out'
p7
S'double'
p8
sS'model.in1'
p9
g8
sS'x.graphics'
p10
g2
sS'model.firing'
p11
g6
sS'model.sim'
p12
g6
sS'nin'
p13
g8
sS'graphics.exprs'
p14
NsS'model.ipar'
p15
g8
sS'typ'
p16
g6
sS'[model,graphics,ok]'
p17
g8
sS'ok'
p18
S'boolean'
p19
sS'model.blocktype'
p20
S'string'
p21
sS'model.dep_ut'
p22
g6
sS'exprs'
p23
g21
sS'gr_i'
p24
g6
sS'y'
p25
g6
sS'x'
p26
g8
sS'model'
p27
g2
s.