c__builtin__
set
p0
((lp1
S'x'
p2
aS'out'
p3
atp4
Rp5
.(dp0
S'arg1'
p1
S'object'
p2
sS'graphics'
p3
g2
sS'this.x.model'
p4
NsS'model.out'
p5
S'vector'
p6
sS'model.in1'
p7
S'double'
p8
sS'typ'
p9
g6
sS'this.out'
p10
g8
sS'model.firing'
p11
g6
sS'this.x'
p12
g8
sS'model.sim'
p13
g6
sS'nin'
p14
g8
sS'graphics.exprs'
p15
NsS'model.ipar'
p16
NsS'this.x.graphics'
p17
g2
sS'[model,graphics,ok]'
p18
g8
sS'ok'
p19
S'boolean'
p20
sS'model.blocktype'
p21
S'string'
p22
sS'model.dep_ut'
p23
g6
sS'exprs'
p24
g22
sS'gr_i'
p25
g6
sS'y'
p26
g6
sS'model'
p27
g8
s.