c__builtin__
set
p0
((lp1
S'nmod'
p2
aS'inh'
p3
aS'graphics'
p4
aS'x'
p5
aS'model'
p6
aS'out'
p7
atp8
Rp9
.(dp0
S'arg1'
p1
S'object'
p2
sS'graphics'
p3
g2
sS'x.model'
p4
NsS'inh'
p5
S'double'
p6
sS'model.dep_ut'
p7
S'vector_boolean'
p8
sS'out'
p9
g6
sS'model.in2'
p10
g6
sS'model.intyp'
p11
g6
sS'x.graphics'
p12
g2
sS'typ'
p13
S'vector'
p14
sS'model.evtin'
p15
g6
sS'exprs[2-1]'
p16
S'string'
p17
sS'model.firing'
p18
g6
sS'model.sim'
p19
S'list'
p20
sS'model.evtout'
p21
g6
sS'model.nmode'
p22
g6
sS'exprs[3-1]'
p23
g17
sS'model.in'
p24
g6
sS'graphics.exprs'
p25
NsS'model.nzcross'
p26
g6
sS'model.blocktype'
p27
g17
sS'nmod'
p28
g6
sS'exprs'
p29
S'matrix'
p30
sS'gr_i'
p31
g14
sS'y'
p32
g14
sS'x'
p33
NsS'model'
p34
g2
s.