c__builtin__
set
p0
((lp1
S'x'
p2
aS'model'
p3
aS'inh'
p4
aS'nmod'
p5
aS'out'
p6
atp7
Rp8
.(dp0
S'arg1'
p1
S'object'
p2
sS'graphics'
p3
g2
sS'x.model'
p4
NsS'model.intyp'
p5
S'double'
p6
sS'inh'
p7
g6
sS'model.dep_ut'
p8
S'vector'
p9
sS'out'
p10
g6
sS'model.in2'
p11
g6
sS'model.in1'
p12
g6
sS'x.graphics'
p13
g2
sS'typ'
p14
g9
sS'model.evtin'
p15
g6
sS'exprs[2-1]'
p16
S'string'
p17
sS'model.firing'
p18
g6
sS'model.sim'
p19
g9
sS'model.evtout'
p20
g6
sS'model.nmode'
p21
g6
sS'exprs[3-1]'
p22
g17
sS'graphics.exprs'
p23
NsS'model.nzcross'
p24
g6
sS'[model,graphics,ok]'
p25
g6
sS'model.blocktype'
p26
g17
sS'nmod'
p27
g6
sS'exprs'
p28
S'matrix'
p29
sS'gr_i'
p30
g9
sS'y'
p31
g9
sS'x'
p32
g6
sS'model'
p33
g2
s.