c__builtin__
set
p0
((lp1
S'x'
p2
aS'model'
p3
aS'inh'
p4
aS'nmod'
p5
aS'out'
p6
atp7
Rp8
.(dp0
S'arg1'
p1
S'object'
p2
sS'graphics'
p3
g2
sS'x.model'
p4
NsS'model.intyp'
p5
S'double'
p6
sS'inh'
p7
g6
sS'model.dep_ut'
p8
S'vector'
p9
sS'out'
p10
g6
sS'model.in2'
p11
g6
sS'model.in1'
p12
g6
sS'x.graphics'
p13
g2
sS'typ'
p14
g9
sS'model.evtin'
p15
g6
sS'exprs[2-1]'
p16
S'string'
p17
sS'model.firing'
p18
g6
sS'model.sim'
p19
S'list'
p20
sS'model.evtout'
p21
g6
sS'[this.model,graphics,ok]'
p22
g20
sS'model.nmode'
p23
g6
sS'exprs[3-1]'
p24
g17
sS'graphics.exprs'
p25
NsS'model.nzcross'
p26
g6
sS'model.blocktype'
p27
g17
sS'nmod'
p28
g6
sS'exprs'
p29
S'matrix'
p30
sS'gr_i'
p31
g9
sS'y'
p32
g9
sS'x'
p33
g6
sS'model'
p34
g2
s.