c__builtin__
set
p0
((lp1
S'x'
p2
aS'inh'
p3
aS'nmod'
p4
aS'out'
p5
atp6
Rp7
.(dp0
S'this.nmod'
p1
S'double'
p2
sS'arg1'
p3
S'object'
p4
sS'graphics'
p5
g4
sS'model.intyp'
p6
g2
sS'this.x.model'
p7
NsS'this.inh'
p8
g2
sS'model.in1'
p9
g2
sS'model.nzcross'
p10
g2
sS'this.out'
p11
g2
sS'model.evtin'
p12
g2
sS'exprs[2-1]'
p13
S'string'
p14
sS'model.firing'
p15
g2
sS'this.x'
p16
g2
sS'model.sim'
p17
S'vector'
p18
sS'model.evtout'
p19
g2
sS'model.in2'
p20
g2
sS'model.nmode'
p21
g2
sS'exprs[3-1]'
p22
g14
sS'graphics.exprs'
p23
NsS'this.x.graphics'
p24
g4
sS'[model,graphics,ok]'
p25
g2
sS'model.blocktype'
p26
g14
sS'typ'
p27
g18
sS'model.dep_ut'
p28
g18
sS'exprs'
p29
S'matrix'
p30
sS'gr_i'
p31
g18
sS'y'
p32
g18
sS'model'
p33
g4
s.