c__builtin__
set
p0
((lp1
S'nmod'
p2
aS'inh'
p3
aS'graphics'
p4
aS'x'
p5
aS'model'
p6
aS'out'
p7
atp8
Rp9
.(dp0
S'graphics'
p1
S'object'
p2
sS'x.model'
p3
NsS'inh'
p4
S'double'
p5
sS'model.dep_ut'
p6
S'vector_boolean'
p7
sS'out'
p8
g5
sS'model.in2'
p9
g5
sS'model.intyp'
p10
g5
sS'x.graphics'
p11
g2
sS'typ'
p12
S'vector'
p13
sS'model.evtin'
p14
g5
sS'exprs[2-1]'
p15
S'string'
p16
sS'model.firing'
p17
g5
sS'model.sim'
p18
S'list'
p19
sS'model.evtout'
p20
g5
sS'model.nmode'
p21
g5
sS'exprs[3-1]'
p22
g16
sS'model.in'
p23
g5
sS'graphics.exprs'
p24
NsS'model.nzcross'
p25
g5
sS'model.blocktype'
p26
g16
sS'nmod'
p27
g5
sS'exprs'
p28
S'matrix'
p29
sS'gr_i'
p30
g13
sS'y'
p31
g13
sS'x'
p32
g13
sS'model'
p33
g2
s.