c__builtin__
set
p0
((lp1
S'nmod'
p2
aS'exprs'
p3
aS'gr_i'
p4
aS'inh'
p5
aS'graphics'
p6
aS'x'
p7
aS'model'
p8
aS'out'
p9
atp10
Rp11
.(dp0
S'arg1'
p1
S'object'
p2
sS'graphics'
p3
g2
sS'x.model'
p4
NsS'inh'
p5
S'double'
p6
sS'model.dep_ut'
p7
S'vector'
p8
sS'out'
p9
g6
sS'model.in2'
p10
g6
sS'model.intyp'
p11
g6
sS'x.graphics'
p12
g2
sS'typ'
p13
g8
sS'model.evtin'
p14
g6
sS'exprs[2-1]'
p15
S'string'
p16
sS'model.firing'
p17
g6
sS'model.sim'
p18
S'list'
p19
sS'model.evtout'
p20
g6
sS'model.nmode'
p21
g6
sS'exprs[3-1]'
p22
g16
sS'model.in'
p23
g6
sS'graphics.exprs'
p24
NsS'model.nzcross'
p25
g6
sS'model.blocktype'
p26
g16
sS'nmod'
p27
g6
sS'exprs'
p28
S'matrix'
p29
sS'gr_i'
p30
g8
sS'y'
p31
g8
sS'x'
p32
g6
sS'model'
p33
g2
s.