c__builtin__
set
p0
((lp1
S'ind'
p2
aS'x'
p3
aS'model'
p4
aS'graphics'
p5
atp6
Rp7
.(dp0
S'model.sim'
p1
S'list'
p2
sS'model.out'
p3
S'double'
p4
sS'model.blocktype'
p5
S'string'
p6
sS'x.graphics'
p7
S'object'
p8
sS'arg1'
p9
g8
sS'graphics.exprs'
p10
NsS'x.model'
p11
NsS'model.dep_ut'
p12
S'vector_boolean'
p13
sS'exprs'
p14
S'vector_string'
p15
sS'ind'
p16
g4
sS'gr_i'
p17
S'vector'
p18
sS'model.in'
p19
g4
sS'graphics'
p20
g8
sS'y'
p21
g18
sS'x'
p22
NsS'model'
p23
g8
sS'model.ipar'
p24
g4
sS'typ'
p25
g18
s.