c__builtin__
set
p0
((lp1
S'exprs'
p2
aS'gr_i'
p3
aS'graphics'
p4
aS'ind'
p5
aS'x'
p6
aS'model'
p7
atp8
Rp9
.(dp0
S'model.sim'
p1
S'list'
p2
sS'model.in1'
p3
S'double'
p4
sS'model.blocktype'
p5
S'string'
p6
sS'x.graphics'
p7
S'object'
p8
sS'arg1'
p9
g8
sS'graphics.exprs'
p10
NsS'x.model'
p11
NsS'model.out'
p12
g4
sS'exprs'
p13
S'vector'
p14
sS'ind'
p15
g4
sS'gr_i'
p16
g14
sS'model.dep_ut'
p17
g14
sS'graphics'
p18
g8
sS'y'
p19
g14
sS'x'
p20
g4
sS'model'
p21
g8
sS'model.ipar'
p22
g4
sS'typ'
p23
g14
s.