c__builtin__
set
p0
((lp1
S'ind'
p2
aS'x'
p3
aS'model'
p4
atp5
Rp6
.(dp0
S'[model,graphics,ok]'
p1
S'double'
p2
sS'model.in1'
p3
g2
sS'model.blocktype'
p4
S'string'
p5
sS'x.graphics'
p6
S'object'
p7
sS'arg1'
p8
g7
sS'graphics.exprs'
p9
NsS'x.model'
p10
NsS'model.out'
p11
g2
sS'exprs'
p12
S'vector'
p13
sS'ind'
p14
g2
sS'gr_i'
p15
g13
sS'model.dep_ut'
p16
g13
sS'graphics'
p17
g7
sS'y'
p18
g13
sS'x'
p19
g2
sS'model'
p20
g7
sS'model.ipar'
p21
g2
sS'typ'
p22
g13
sS'model.sim'
p23
g13
s.