c__builtin__
set
p0
((lp1
S'exprs'
p2
aS'gr_i'
p3
aS'graphics'
p4
aS'ind'
p5
aS'x'
p6
aS'model'
p7
atp8
Rp9
.(dp0
S'model.sim'
p1
S'list'
p2
sS'model.out'
p3
S'double'
p4
sS'model.blocktype'
p5
S'string'
p6
sS'x.graphics'
p7
S'object'
p8
sS'arg1'
p9
g8
sS'graphics.exprs'
p10
NsS'x.model'
p11
NsS'model.dep_ut'
p12
S'vector_boolean'
p13
sS'exprs'
p14
S'vector'
p15
sS'ind'
p16
g4
sS'gr_i'
p17
g15
sS'model.in'
p18
g4
sS'graphics'
p19
g8
sS'y'
p20
g15
sS'x'
p21
NsS'model'
p22
g8
sS'model.ipar'
p23
g4
sS'typ'
p24
g15
s.