c__builtin__
set
p0
((lp1
S'ind'
p2
aS'x'
p3
aS'model'
p4
atp5
Rp6
.(dp0
S'model.sim'
p1
S'list'
p2
sS'model.in1'
p3
S'double'
p4
sS'model.blocktype'
p5
S'string'
p6
sS'x.graphics'
p7
S'object'
p8
sS'arg1'
p9
g8
sS'[this.model,graphics,ok]'
p10
g4
sS'graphics.exprs'
p11
NsS'x.model'
p12
NsS'model.out'
p13
g4
sS'exprs'
p14
S'vector'
p15
sS'ind'
p16
g4
sS'gr_i'
p17
g15
sS'model.dep_ut'
p18
g15
sS'graphics'
p19
g8
sS'y'
p20
g15
sS'x'
p21
g4
sS'model'
p22
g8
sS'model.ipar'
p23
g4
sS'typ'
p24
g15
s.