c__builtin__
set
p0
((lp1
S'ind'
p2
aS'x'
p3
aS'model'
p4
aS'graphics'
p5
atp6
Rp7
.(dp0
S'model.sim'
p1
S'list'
p2
sS'model.out'
p3
S'double'
p4
sS'model.blocktype'
p5
S'string'
p6
sS'exprs'
p7
S'vector_string'
p8
sS'graphics.exprs'
p9
NsS'model.dep_ut'
p10
S'vector_boolean'
p11
sS'ind'
p12
g4
sS'x.model'
p13
NsS'gr_i'
p14
S'vector'
p15
sS'model.in'
p16
g4
sS'graphics'
p17
S'object'
p18
sS'y'
p19
g15
sS'x'
p20
g15
sS'model'
p21
g18
sS'model.ipar'
p22
g4
sS'typ'
p23
g15
sS'x.graphics'
p24
g18
s.