c__builtin__
set
p0
((lp1
S'x'
p2
aS'model'
p3
aS'tag'
p4
aS'graphics'
p5
atp6
Rp7
.(dp0
S'arg1'
p1
S'object'
p2
sS'graphics'
p3
g2
sS'mo.model'
p4
S'string'
p5
sS'x.model'
p6
g2
sS'model.out'
p7
S'double'
p8
sS'model.in2'
p9
S'vector'
p10
sS'model.intyp'
p11
g8
sS'x.graphics'
p12
g2
sS'model.sim'
p13
g5
sS'mo.outputs'
p14
g5
sS'model.out2'
p15
g8
sS'x.graphics.out_implicit'
p16
S'vector_string'
p17
sS'y'
p18
g8
sS'model.in'
p19
g10
sS'graphics.exprs'
p20
NsS'model.ipar'
p21
g10
sS'typ'
p22
g10
sS'model.opar'
p23
S'list'
p24
sS'needcompile'
p25
g8
sS'model.blocktype'
p26
g5
sS'mo'
p27
g8
sS'model.dep_ut'
p28
S'vector_boolean'
p29
sS'exprs'
p30
g17
sS'gr_i'
p31
g10
sS'model.outtyp'
p32
g8
sS'x'
p33
NsS'model'
p34
g2
s.