c__builtin__
set
p0
((lp1
S'x'
p2
aS'model'
p3
aS'tag'
p4
aS'graphics'
p5
atp6
Rp7
.(dp0
S'graphics'
p1
S'object'
p2
sS'x.model'
p3
g2
sS'model.out'
p4
S'double'
p5
sS'model.in2'
p6
S'vector'
p7
sS'model.intyp'
p8
g5
sS'x.graphics'
p9
g2
sS'model.sim'
p10
S'string'
p11
sS'model.out2'
p12
g5
sS'y'
p13
g5
sS'model.in'
p14
g7
sS'graphics.exprs'
p15
NsS'model.ipar'
p16
g7
sS'typ'
p17
g7
sS'model.opar'
p18
S'list'
p19
sS'x.graphics.id'
p20
g11
sS'needcompile'
p21
g5
sS'model.blocktype'
p22
g11
sS'model.dep_ut'
p23
S'vector_boolean'
p24
sS'exprs'
p25
S'vector_string'
p26
sS'gr_i'
p27
g7
sS'model.outtyp'
p28
g5
sS'x'
p29
g7
sS'model'
p30
g2
s.