c__builtin__
set
p0
((lp1
S'x'
p2
aS'tag'
p3
atp4
Rp5
.(dp0
S'arg1'
p1
S'object'
p2
sS'graphics'
p3
g2
sS'x.model'
p4
g2
sS'model.out'
p5
S'double'
p6
sS'model.in2'
p7
S'vector'
p8
sS'model.in1'
p9
g8
sS'x.graphics'
p10
g2
sS'model.sim'
p11
S'string'
p12
sS'model.out2'
p13
g6
sS'model.intyp'
p14
g6
sS'y'
p15
g6
sS'graphics.exprs'
p16
NsS'model.ipar'
p17
g8
sS'typ'
p18
g8
sS'model.opar'
p19
g8
sS'x.graphics.id'
p20
g12
sS'needcompile'
p21
g6
sS'model.blocktype'
p22
g12
sS'model.dep_ut'
p23
g8
sS'exprs'
p24
g8
sS'gr_i'
p25
g8
sS'model.outtyp'
p26
g6
sS'x'
p27
g6
sS'model'
p28
g2
s.