c__builtin__
set
p0
((lp1
S'x'
p2
aS'model'
p3
aS'tag'
p4
aS'graphics'
p5
atp6
Rp7
.(dp0
S'arg1'
p1
S'object'
p2
sS'graphics'
p3
g2
sS'x.model'
p4
g2
sS'model.out'
p5
S'double'
p6
sS'model.in2'
p7
S'vector'
p8
sS'model.intyp'
p9
g6
sS'x.graphics'
p10
g2
sS'model.sim'
p11
S'string'
p12
sS'model.out2'
p13
g6
sS'y'
p14
g6
sS'model.in'
p15
g8
sS'graphics.exprs'
p16
NsS'model.ipar'
p17
g8
sS'typ'
p18
g8
sS'model.opar'
p19
S'list'
p20
sS'x.graphics.id'
p21
g12
sS'needcompile'
p22
g6
sS'model.blocktype'
p23
g12
sS'model.dep_ut'
p24
S'vector_boolean'
p25
sS'exprs'
p26
S'vector_string'
p27
sS'gr_i'
p28
g8
sS'model.outtyp'
p29
g6
sS'x'
p30
NsS'model'
p31
g2
s.