c__builtin__
set
p0
((lp1
S'x'
p2
aS'tag'
p3
atp4
Rp5
.(dp0
S'arg1'
p1
S'object'
p2
sS'graphics'
p3
g2
sS'this.x.model'
p4
g2
sS'model.out'
p5
S'double'
p6
sS'model.in2'
p7
S'vector'
p8
sS'model.in1'
p9
g8
sS'typ'
p10
g8
sS'this.x.graphics.id'
p11
S'string'
p12
sS'this.x'
p13
g6
sS'model.sim'
p14
g12
sS'model.out2'
p15
g6
sS'model.intyp'
p16
g6
sS'y'
p17
g6
sS'graphics.exprs'
p18
NsS'model.ipar'
p19
g8
sS'this.x.graphics'
p20
g2
sS'model.opar'
p21
g8
sS'needcompile'
p22
g6
sS'model.blocktype'
p23
g12
sS'model.dep_ut'
p24
g8
sS'exprs'
p25
g8
sS'gr_i'
p26
g8
sS'model.outtyp'
p27
g6
sS'model'
p28
g6
s.