c__builtin__
set
p0
((lp1
S'x'
p2
aS'model'
p3
aS'tag'
p4
aS'graphics'
p5
atp6
Rp7
.(dp0
S'graphics'
p1
S'object'
p2
sS'mo.model'
p3
S'string'
p4
sS'x.model'
p5
g2
sS'model.out'
p6
S'double'
p7
sS'model.in2'
p8
S'vector'
p9
sS'model.intyp'
p10
g7
sS'x.graphics'
p11
g2
sS'model.sim'
p12
g4
sS'mo.outputs'
p13
g4
sS'model.out2'
p14
g7
sS'x.graphics.out_implicit'
p15
S'vector_string'
p16
sS'y'
p17
g7
sS'model.in'
p18
g9
sS'graphics.exprs'
p19
NsS'model.ipar'
p20
g9
sS'typ'
p21
g9
sS'model.opar'
p22
S'list'
p23
sS'needcompile'
p24
g7
sS'model.blocktype'
p25
g4
sS'mo'
p26
g7
sS'model.dep_ut'
p27
S'vector_boolean'
p28
sS'exprs'
p29
g16
sS'gr_i'
p30
g9
sS'model.outtyp'
p31
g7
sS'x'
p32
g9
sS'model'
p33
g2
s.