c__builtin__
set
p0
((lp1
S'x'
p2
aS'model'
p3
aS'tag'
p4
aS'graphics'
p5
atp6
Rp7
.(dp0
S'arg1'
p1
S'object'
p2
sS'graphics'
p3
g2
sS'mo.model'
p4
S'string'
p5
sS'x.model'
p6
g2
sS'model.out'
p7
S'double'
p8
sS'model.in2'
p9
S'vector'
p10
sS'model.in1'
p11
g10
sS'x.graphics'
p12
g2
sS'model.sim'
p13
g5
sS'mo.outputs'
p14
g5
sS'model.out2'
p15
g8
sS'x.graphics.out_implicit'
p16
g10
sS'model.intyp'
p17
g8
sS'y'
p18
g8
sS'graphics.exprs'
p19
NsS'model.ipar'
p20
g10
sS'typ'
p21
g10
sS'model.opar'
p22
S'list'
p23
sS'needcompile'
p24
g8
sS'model.blocktype'
p25
g5
sS'mo'
p26
g8
sS'model.dep_ut'
p27
g10
sS'exprs'
p28
g10
sS'gr_i'
p29
g10
sS'model.outtyp'
p30
g8
sS'x'
p31
g8
sS'model'
p32
g2
s.