c__builtin__
set
p0
((lp1
S'gr_i'
p2
aS'exprs'
p3
aS'tag'
p4
aS'graphics'
p5
aS'x'
p6
aS'model'
p7
atp8
Rp9
.(dp0
S'arg1'
p1
S'object'
p2
sS'graphics'
p3
g2
sS'x.model'
p4
g2
sS'model.out'
p5
S'vector'
p6
sS'model.in2'
p7
g6
sS'model.in1'
p8
g6
sS'x.graphics'
p9
g2
sS'model.evtin'
p10
g6
sS'model.firing'
p11
S'boolean'
p12
sS'model.sim'
p13
S'string'
p14
sS'model.out2'
p15
g6
sS'model.intyp'
p16
S'double'
p17
sS'y'
p18
g17
sS'graphics.exprs'
p19
NsS'typ'
p20
g6
sS'model.opar'
p21
S'list'
p22
sS'needcompile'
p23
g17
sS'model.blocktype'
p24
g14
sS'model.dep_ut'
p25
g6
sS'exprs'
p26
g14
sS'gr_i'
p27
g6
sS'model.outtyp'
p28
g17
sS'x'
p29
g17
sS'model'
p30
g2
s.