c__builtin__
set
p0
((lp1
S'tagvis'
p2
aS'gr_i'
p3
aS'exprs'
p4
aS'tag'
p5
aS'graphics'
p6
aS'x'
p7
aS'model'
p8
atp9
Rp10
.(dp0
S'tagvis'
p1
S'double'
p2
sS'arg1'
p3
NsS'graphics'
p4
S'object'
p5
sS'mo.model'
p6
S'string'
p7
sS'x.model'
p8
g5
sS'model.out'
p9
S'vector'
p10
sS'model.in2'
p11
g2
sS'model.intyp'
p12
g10
sS'x.graphics'
p13
g5
sS'mo.inputs'
p14
g7
sS'x.graphics.in_implicit'
p15
S'vector_string'
p16
sS'model.sim'
p17
g7
sS'model.out2'
p18
g10
sS'y'
p19
g2
sS'model.in'
p20
g2
sS'graphics.exprs'
p21
NsS'model.ipar'
p22
g2
sS'typ'
p23
g10
sS'model.opar'
p24
S'list'
p25
sS'needcompile'
p26
g2
sS'ok'
p27
S'boolean'
p28
sS'model.blocktype'
p29
g7
sS'mo'
p30
g2
sS'model.dep_ut'
p31
S'vector_boolean'
p32
sS'exprs'
p33
S'matrix'
p34
sS'gr_i'
p35
g10
sS'model.outtyp'
p36
g2
sS'x'
p37
NsS'model'
p38
g5
s.