c__builtin__
set
p0
((lp1
S'x'
p2
aS'tag'
p3
aS'tagvis'
p4
atp5
Rp6
.(dp0
S'arg1'
p1
NsS'graphics'
p2
S'object'
p3
sS'this.x.model'
p4
g3
sS'model.out'
p5
S'vector'
p6
sS'model.in2'
p7
S'double'
p8
sS'model.in1'
p9
g8
sS'typ'
p10
g6
sS'this.x.graphics.id'
p11
S'string'
p12
sS'this.x'
p13
g8
sS'model.sim'
p14
g12
sS'model.out2'
p15
g6
sS'model.intyp'
p16
g8
sS'y'
p17
g8
sS'graphics.exprs'
p18
NsS'model.ipar'
p19
g8
sS'this.x.graphics'
p20
g3
sS'model.opar'
p21
g6
sS'needcompile'
p22
g8
sS'ok'
p23
S'boolean'
p24
sS'model.blocktype'
p25
g12
sS'model.dep_ut'
p26
g6
sS'exprs'
p27
S'matrix'
p28
sS'gr_i'
p29
g6
sS'model.outtyp'
p30
g8
sS'model'
p31
g3
sS'this.tagvis'
p32
g8
s.