c__builtin__
set
p0
((lp1
S'x'
p2
aS'tag'
p3
atp4
Rp5
.(dp0
S'arg1'
p1
S'object'
p2
sS'graphics'
p3
g2
sS'this.x.model'
p4
g2
sS'model.out'
p5
S'vector'
p6
sS'model.in2'
p7
g6
sS'model.in1'
p8
g6
sS'typ'
p9
g6
sS'model.evtin'
p10
g6
sS'model.firing'
p11
S'boolean'
p12
sS'this.x'
p13
S'double'
p14
sS'model.sim'
p15
S'string'
p16
sS'model.out2'
p17
g6
sS'model.intyp'
p18
g14
sS'y'
p19
g14
sS'graphics.exprs'
p20
NsS'this.x.graphics'
p21
g2
sS'model.opar'
p22
g6
sS'needcompile'
p23
g14
sS'model.blocktype'
p24
g16
sS'model.dep_ut'
p25
g6
sS'exprs'
p26
g16
sS'gr_i'
p27
g6
sS'model.outtyp'
p28
g14
sS'model'
p29
g14
s.