c__builtin__
set
p0
((lp1
S'x'
p2
aS'tag'
p3
aS'tagvis'
p4
atp5
Rp6
.(dp0
S'arg1'
p1
NsS'graphics'
p2
S'object'
p3
sS'mo.model'
p4
S'string'
p5
sS'this.x.model'
p6
g3
sS'model.out'
p7
S'vector'
p8
sS'model.in2'
p9
S'double'
p10
sS'model.in1'
p11
g10
sS'typ'
p12
g8
sS'mo.inputs'
p13
g5
sS'this.x.graphics.in_implicit'
p14
g8
sS'this.x'
p15
g10
sS'model.sim'
p16
g5
sS'model.out2'
p17
g8
sS'model.intyp'
p18
g8
sS'y'
p19
g10
sS'graphics.exprs'
p20
NsS'model.ipar'
p21
g10
sS'this.x.graphics'
p22
g3
sS'model.opar'
p23
g8
sS'needcompile'
p24
g10
sS'ok'
p25
S'boolean'
p26
sS'model.blocktype'
p27
g5
sS'mo'
p28
g10
sS'model.dep_ut'
p29
g8
sS'exprs'
p30
S'matrix'
p31
sS'gr_i'
p32
g8
sS'model.outtyp'
p33
g10
sS'model'
p34
g10
sS'this.tagvis'
p35
g10
s.