c__builtin__
set
p0
((lp1
S'x'
p2
aS'model'
p3
aS'tag'
p4
aS'tagvis'
p5
aS'graphics'
p6
atp7
Rp8
.(dp0
S'tagvis'
p1
S'double'
p2
sS'graphics'
p3
S'object'
p4
sS'x.model'
p5
g4
sS'model.out'
p6
S'vector'
p7
sS'model.in2'
p8
g2
sS'model.intyp'
p9
g2
sS'x.graphics'
p10
g4
sS'model.sim'
p11
S'string'
p12
sS'model.out2'
p13
g7
sS'y'
p14
g2
sS'model.in'
p15
g2
sS'graphics.exprs'
p16
NsS'model.ipar'
p17
g2
sS'typ'
p18
g7
sS'model.opar'
p19
S'list'
p20
sS'x.graphics.id'
p21
g12
sS'needcompile'
p22
g2
sS'ok'
p23
S'boolean'
p24
sS'model.blocktype'
p25
g12
sS'model.dep_ut'
p26
S'vector_boolean'
p27
sS'exprs'
p28
S'matrix'
p29
sS'gr_i'
p30
g7
sS'model.outtyp'
p31
g2
sS'x'
p32
g7
sS'model'
p33
g4
s.