c__builtin__
set
p0
((lp1
S'x'
p2
aS'model'
p3
aS'tag'
p4
aS'tagvis'
p5
aS'graphics'
p6
atp7
Rp8
.(dp0
S'tagvis'
p1
S'double'
p2
sS'arg1'
p3
NsS'graphics'
p4
S'object'
p5
sS'mo.model'
p6
S'string'
p7
sS'x.model'
p8
g5
sS'model.out'
p9
S'vector'
p10
sS'model.in2'
p11
g2
sS'model.in1'
p12
g2
sS'x.graphics'
p13
g5
sS'mo.inputs'
p14
g7
sS'x.graphics.in_implicit'
p15
g10
sS'model.sim'
p16
g7
sS'model.out2'
p17
g10
sS'model.intyp'
p18
g10
sS'y'
p19
g2
sS'graphics.exprs'
p20
NsS'model.ipar'
p21
g2
sS'typ'
p22
g10
sS'model.opar'
p23
S'list'
p24
sS'needcompile'
p25
g2
sS'ok'
p26
S'boolean'
p27
sS'model.blocktype'
p28
g7
sS'mo'
p29
g2
sS'model.dep_ut'
p30
g10
sS'exprs'
p31
S'matrix'
p32
sS'gr_i'
p33
g10
sS'model.outtyp'
p34
g2
sS'x'
p35
g2
sS'model'
p36
g5
s.