c__builtin__
set
p0
((lp1
S'x'
p2
aS'tag'
p3
aS'tagvis'
p4
atp5
Rp6
.(dp0
S'tagvis'
p1
S'double'
p2
sS'arg1'
p3
NsS'graphics'
p4
S'object'
p5
sS'x.model'
p6
g5
sS'model.out'
p7
S'vector'
p8
sS'model.in2'
p9
g2
sS'model.in1'
p10
g2
sS'x.graphics'
p11
g5
sS'model.sim'
p12
S'string'
p13
sS'model.out2'
p14
g8
sS'model.intyp'
p15
g2
sS'y'
p16
g2
sS'graphics.exprs'
p17
NsS'model.ipar'
p18
g2
sS'typ'
p19
g8
sS'model.opar'
p20
g8
sS'x.graphics.id'
p21
g13
sS'needcompile'
p22
g2
sS'ok'
p23
S'boolean'
p24
sS'model.blocktype'
p25
g13
sS'model.dep_ut'
p26
g8
sS'exprs'
p27
S'matrix'
p28
sS'gr_i'
p29
g8
sS'model.outtyp'
p30
g2
sS'x'
p31
g2
sS'model'
p32
g5
s.