c__builtin__
set
p0
((lp1
S'x'
p2
aS'model'
p3
aS'tag'
p4
aS'graphics'
p5
atp6
Rp7
.(dp0
S'graphics'
p1
S'object'
p2
sS'x.model'
p3
g2
sS'model.out'
p4
S'vector'
p5
sS'model.in2'
p6
g5
sS'model.intyp'
p7
S'double'
p8
sS'x.graphics'
p9
g2
sS'model.evtin'
p10
g5
sS'model.firing'
p11
S'boolean'
p12
sS'model.sim'
p13
S'string'
p14
sS'model.out2'
p15
g5
sS'y'
p16
g8
sS'model.in'
p17
g5
sS'graphics.exprs'
p18
NsS'typ'
p19
g5
sS'model.opar'
p20
S'list'
p21
sS'needcompile'
p22
g8
sS'model.blocktype'
p23
g14
sS'model.dep_ut'
p24
S'vector_boolean'
p25
sS'exprs'
p26
g14
sS'gr_i'
p27
g5
sS'model.outtyp'
p28
g8
sS'x'
p29
g5
sS'model'
p30
g2
s.