c__builtin__
set
p0
((lp1
S'x'
p2
aS'model'
p3
aS'tag'
p4
aS'tagvis'
p5
atp6
Rp7
.(dp0
S'tagvis'
p1
S'double'
p2
sS'arg1'
p3
NsS'graphics'
p4
S'object'
p5
sS'x.model'
p6
g5
sS'model.out'
p7
S'vector'
p8
sS'model.in2'
p9
g2
sS'model.in1'
p10
g2
sS'x.graphics'
p11
g5
sS'model.sim'
p12
S'string'
p13
sS'model.out2'
p14
g8
sS'model.intyp'
p15
g2
sS'y'
p16
g2
sS'graphics.exprs'
p17
NsS'model.ipar'
p18
g2
sS'typ'
p19
g8
sS'model.opar'
p20
S'list'
p21
sS'x.graphics.id'
p22
g13
sS'needcompile'
p23
g2
sS'ok'
p24
S'boolean'
p25
sS'model.blocktype'
p26
g13
sS'model.dep_ut'
p27
g8
sS'exprs'
p28
S'matrix'
p29
sS'gr_i'
p30
g8
sS'model.outtyp'
p31
g2
sS'x'
p32
g2
sS'model'
p33
g5
s.