c__builtin__
set
p0
((lp1
S'x'
p2
aS'model'
p3
aS'tag'
p4
aS'tagvis'
p5
aS'graphics'
p6
atp7
Rp8
.(dp0
S'tagvis'
p1
S'double'
p2
sS'graphics'
p3
S'object'
p4
sS'mo.model'
p5
S'string'
p6
sS'x.model'
p7
g4
sS'model.out'
p8
S'vector'
p9
sS'model.in2'
p10
g2
sS'model.intyp'
p11
g9
sS'x.graphics'
p12
g4
sS'mo.inputs'
p13
g6
sS'x.graphics.in_implicit'
p14
S'vector_string'
p15
sS'model.sim'
p16
g6
sS'model.out2'
p17
g9
sS'y'
p18
g2
sS'model.in'
p19
g2
sS'graphics.exprs'
p20
NsS'model.ipar'
p21
g2
sS'typ'
p22
g9
sS'model.opar'
p23
S'list'
p24
sS'needcompile'
p25
g2
sS'ok'
p26
S'boolean'
p27
sS'model.blocktype'
p28
g6
sS'mo'
p29
g2
sS'model.dep_ut'
p30
S'vector_boolean'
p31
sS'exprs'
p32
S'matrix'
p33
sS'gr_i'
p34
g9
sS'model.outtyp'
p35
g2
sS'x'
p36
g9
sS'model'
p37
g4
s.