c__builtin__
set
p0
((lp1
S'exprs'
p2
aS'gr_i'
p3
aS'graphics'
p4
aS'x'
p5
aS'model'
p6
aS'z0'
p7
aS'nout'
p8
atp9
Rp10
.(dp0
S'model.sim'
p1
S'list'
p2
sS'model.out'
p3
S'matrix'
p4
sS'model.dstate'
p5
S'double'
p6
sS'model.evtin'
p7
g6
sS'x.graphics'
p8
S'object'
p9
sS'arg1'
p10
g9
sS'graphics.exprs'
p11
NsS'model.dep_ut'
p12
S'vector'
p13
sS'model.blocktype'
p14
S'string'
p15
sS'exprs'
p16
g4
sS'x.model'
p17
NsS'gr_i'
p18
g13
sS'z0'
p19
g6
sS'model.in'
p20
g6
sS'graphics'
p21
g9
sS'y'
p22
g13
sS'x'
p23
NsS'model'
p24
g9
sS'typ'
p25
g13
sS'nout'
p26
g6
sS'out'
p27
g4
s.