c__builtin__
set
p0
((lp1
S'x'
p2
aS'z0'
p3
aS'nout'
p4
atp5
Rp6
.(dp0
S'model.dstate'
p1
NsS'arg1'
p2
S'object'
p3
sS'graphics'
p4
g3
sS'this.x.model'
p5
NsS'model.out'
p6
S'matrix'
p7
sS'out'
p8
g7
sS'model.in1'
p9
S'double'
p10
sS'typ'
p11
S'vector'
p12
sS'model.evtin'
p13
g10
sS'this.x'
p14
g10
sS'model.sim'
p15
g12
sS'this.nout'
p16
g10
sS'graphics.exprs'
p17
NsS'this.x.graphics'
p18
g3
sS'[model,graphics,ok]'
p19
g10
sS'model.blocktype'
p20
S'string'
p21
sS'model.dep_ut'
p22
g12
sS'exprs'
p23
g7
sS'gr_i'
p24
g12
sS'y'
p25
g12
sS'model'
p26
g10
sS'this.z0'
p27
g10
s.