c__builtin__
set
p0
((lp1
S'x'
p2
aS'model'
p3
aS'z0'
p4
aS'nout'
p5
atp6
Rp7
.(dp0
S'model.dstate'
p1
S'double'
p2
sS'arg1'
p3
S'object'
p4
sS'graphics'
p5
g4
sS'x.model'
p6
NsS'model.out'
p7
S'matrix'
p8
sS'out'
p9
g8
sS'model.in1'
p10
g2
sS'x.graphics'
p11
g4
sS'typ'
p12
S'vector'
p13
sS'model.evtin'
p14
g2
sS'model.sim'
p15
g13
sS'graphics.exprs'
p16
NsS'z0'
p17
g2
sS'[model,graphics,ok]'
p18
g2
sS'model.blocktype'
p19
S'string'
p20
sS'model.dep_ut'
p21
g13
sS'exprs'
p22
g8
sS'gr_i'
p23
g13
sS'y'
p24
g13
sS'x'
p25
g2
sS'model'
p26
g4
sS'nout'
p27
g2
s.