c__builtin__
set
p0
((lp1
S'x'
p2
aS'model'
p3
aS'z0'
p4
aS'nout'
p5
atp6
Rp7
.(dp0
S'model.dstate'
p1
S'double'
p2
sS'arg1'
p3
S'object'
p4
sS'graphics'
p5
g4
sS'x.model'
p6
NsS'model.out'
p7
S'matrix'
p8
sS'out'
p9
g8
sS'model.in1'
p10
g2
sS'x.graphics'
p11
g4
sS'typ'
p12
S'vector'
p13
sS'model.evtin'
p14
g2
sS'model.sim'
p15
S'list'
p16
sS'[this.model,graphics,ok]'
p17
g16
sS'graphics.exprs'
p18
NsS'z0'
p19
g2
sS'model.blocktype'
p20
S'string'
p21
sS'model.dep_ut'
p22
g13
sS'exprs'
p23
g8
sS'gr_i'
p24
g13
sS'y'
p25
g13
sS'x'
p26
g2
sS'model'
p27
g4
sS'nout'
p28
g2
s.