c__builtin__
set
p0
((lp1
S'z0'
p2
aS'exprs'
p3
aS'gr_i'
p4
aS'graphics'
p5
aS'x'
p6
aS'model'
p7
aS'typ'
p8
aS'nout'
p9
atp10
Rp11
.(dp0
S'model.dstate'
p1
S'double'
p2
sS'arg1'
p3
S'object'
p4
sS'graphics'
p5
g4
sS'it'
p6
S'vector'
p7
sS'x.model'
p8
NsS'model.out'
p9
S'matrix'
p10
sS'out'
p11
g7
sS'model.in2'
p12
g2
sS'model.intyp'
p13
g2
sS'x.graphics'
p14
g4
sS'typ'
p15
g7
sS'model.evtin'
p16
g2
sS'model.firing'
p17
g7
sS'model.sim'
p18
S'list'
p19
sS'model.evtout'
p20
g7
sS'model.out2'
p21
g10
sS'in1'
p22
g7
sS'model.rpar'
p23
g7
sS'model.outtyp'
p24
g2
sS'model.state'
p25
g7
sS'model.in'
p26
g2
sS'graphics.exprs'
p27
NsS'model.ipar'
p28
g7
sS'z0'
p29
g2
sS'ok'
p30
S'boolean'
p31
sS'model.blocktype'
p32
S'string'
p33
sS'model.dep_ut'
p34
g7
sS'exprs'
p35
g10
sS'gr_i'
p36
g7
sS'y'
p37
g7
sS'x'
p38
NsS'model'
p39
g4
sS'ot'
p40
g33
sS'nout'
p41
g2
s.