c__builtin__
set
p0
((lp1
S'x'
p2
aS'model'
p3
aS'z0'
p4
aS'nout'
p5
aS'graphics'
p6
atp7
Rp8
.(dp0
S'model.sim'
p1
S'list'
p2
sS'model.out'
p3
S'matrix'
p4
sS'model.dstate'
p5
S'double'
p6
sS'model.evtin'
p7
g6
sS'x.graphics'
p8
S'object'
p9
sS'z0'
p10
g6
sS'graphics'
p11
g9
sS'model.dep_ut'
p12
S'vector_boolean'
p13
sS'model.blocktype'
p14
S'string'
p15
sS'exprs'
p16
g4
sS'x.model'
p17
NsS'gr_i'
p18
S'vector'
p19
sS'model.in'
p20
g6
sS'graphics.exprs'
p21
NsS'y'
p22
g19
sS'x'
p23
g19
sS'model'
p24
g9
sS'typ'
p25
g19
sS'nout'
p26
g6
sS'out'
p27
g4
s.