c__builtin__
set
p0
((lp1
S'typ'
p2
aS'graphics'
p3
aS'x'
p4
aS'model'
p5
aS'z0'
p6
aS'nout'
p7
atp8
Rp9
.(dp0
S'model.dstate'
p1
S'double'
p2
sS'arg1'
p3
S'object'
p4
sS'graphics'
p5
g4
sS'it'
p6
S'vector'
p7
sS'x.model'
p8
NsS'model.out'
p9
S'matrix'
p10
sS'out'
p11
g7
sS'model.in2'
p12
g2
sS'model.intyp'
p13
g2
sS'x.graphics'
p14
g4
sS'typ'
p15
g7
sS'model.evtin'
p16
g2
sS'model.firing'
p17
g7
sS'model.sim'
p18
S'list'
p19
sS'model.evtout'
p20
g7
sS'model.out2'
p21
g10
sS'in1'
p22
g7
sS'model.rpar'
p23
g7
sS'model.outtyp'
p24
g2
sS'model.state'
p25
g7
sS'model.in'
p26
g2
sS'graphics.exprs'
p27
NsS'model.ipar'
p28
g7
sS'z0'
p29
g2
sS'ok'
p30
S'boolean'
p31
sS'model.blocktype'
p32
S'string'
p33
sS'model.dep_ut'
p34
S'vector_boolean'
p35
sS'exprs'
p36
g10
sS'gr_i'
p37
g7
sS'y'
p38
g7
sS'x'
p39
NsS'model'
p40
g4
sS'ot'
p41
g33
sS'nout'
p42
g2
s.