c__builtin__
set
p0
((lp1
S'x'
p2
aS'model'
p3
aS'z0'
p4
aS'nout'
p5
atp6
Rp7
.(dp0
S'model.sim'
p1
S'list'
p2
sS'model.in1'
p3
S'double'
p4
sS'model.dstate'
p5
g4
sS'model.evtin'
p6
g4
sS'x.graphics'
p7
S'object'
p8
sS'arg1'
p9
g8
sS'graphics.exprs'
p10
NsS'model.out'
p11
S'matrix'
p12
sS'model.blocktype'
p13
S'string'
p14
sS'exprs'
p15
g12
sS'x.model'
p16
NsS'gr_i'
p17
S'vector'
p18
sS'z0'
p19
g4
sS'model.dep_ut'
p20
g18
sS'graphics'
p21
g8
sS'y'
p22
g18
sS'x'
p23
g4
sS'model'
p24
g8
sS'typ'
p25
g18
sS'nout'
p26
g4
sS'out'
p27
g12
s.