c__builtin__
set
p0
((lp1
S'x'
p2
aS'model'
p3
aS'z0'
p4
aS'typ'
p5
aS'nout'
p6
atp7
Rp8
.(dp0
S'model.dstate'
p1
S'double'
p2
sS'arg1'
p3
S'object'
p4
sS'graphics'
p5
g4
sS'it'
p6
S'vector'
p7
sS'x.model'
p8
NsS'model.intyp'
p9
g2
sS'model.out'
p10
S'matrix'
p11
sS'out'
p12
g7
sS'model.in2'
p13
g2
sS'model.in1'
p14
g2
sS'x.graphics'
p15
g4
sS'typ'
p16
g7
sS'model.evtin'
p17
g2
sS'model.firing'
p18
g7
sS'model.sim'
p19
S'list'
p20
sS'model.evtout'
p21
g7
sS'model.out2'
p22
g11
sS'in1'
p23
g7
sS'model.rpar'
p24
g7
sS'model.outtyp'
p25
g2
sS'model.state'
p26
g7
sS'graphics.exprs'
p27
NsS'model.ipar'
p28
g7
sS'z0'
p29
g2
sS'ok'
p30
S'boolean'
p31
sS'model.blocktype'
p32
S'string'
p33
sS'model.dep_ut'
p34
g7
sS'exprs'
p35
g11
sS'gr_i'
p36
g7
sS'y'
p37
g7
sS'x'
p38
g2
sS'model'
p39
g4
sS'ot'
p40
g33
sS'nout'
p41
g2
s.