c__builtin__
set
p0
((lp1
S'typ'
p2
aS'graphics'
p3
aS'x'
p4
aS'model'
p5
aS'z0'
p6
aS'nout'
p7
atp8
Rp9
.(dp0
S'model.dstate'
p1
S'double'
p2
sS'graphics'
p3
S'object'
p4
sS'it'
p5
S'vector'
p6
sS'x.model'
p7
NsS'model.out'
p8
S'matrix'
p9
sS'out'
p10
g6
sS'model.in2'
p11
g2
sS'model.intyp'
p12
g2
sS'x.graphics'
p13
g4
sS'typ'
p14
g6
sS'model.evtin'
p15
g2
sS'model.firing'
p16
g6
sS'model.sim'
p17
S'list'
p18
sS'model.evtout'
p19
g6
sS'model.out2'
p20
g9
sS'in1'
p21
g6
sS'model.rpar'
p22
g6
sS'model.outtyp'
p23
g2
sS'model.state'
p24
g6
sS'model.in'
p25
g2
sS'graphics.exprs'
p26
NsS'model.ipar'
p27
g6
sS'z0'
p28
g2
sS'ok'
p29
S'boolean'
p30
sS'model.blocktype'
p31
S'string'
p32
sS'model.dep_ut'
p33
S'vector_boolean'
p34
sS'exprs'
p35
g9
sS'gr_i'
p36
g6
sS'y'
p37
g6
sS'x'
p38
g6
sS'model'
p39
g4
sS'ot'
p40
g32
sS'nout'
p41
g2
s.