c__builtin__
set
p0
((lp1
S'x'
p2
aS'model'
p3
aS'z0'
p4
aS'typ'
p5
aS'nout'
p6
atp7
Rp8
.(dp0
S'model.dstate'
p1
S'double'
p2
sS'arg1'
p3
S'object'
p4
sS'graphics'
p5
g4
sS'it'
p6
S'vector'
p7
sS'x.model'
p8
NsS'model.intyp'
p9
g2
sS'model.out'
p10
S'matrix'
p11
sS'out'
p12
g7
sS'model.in2'
p13
g2
sS'model.in1'
p14
g2
sS'x.graphics'
p15
g4
sS'typ'
p16
g7
sS'model.evtin'
p17
g2
sS'model.firing'
p18
g7
sS'model.sim'
p19
S'list'
p20
sS'model.evtout'
p21
g7
sS'[this.model,graphics,ok]'
p22
g2
sS'model.out2'
p23
g11
sS'in1'
p24
g7
sS'model.rpar'
p25
g7
sS'model.outtyp'
p26
g2
sS'model.state'
p27
g7
sS'graphics.exprs'
p28
NsS'model.ipar'
p29
g7
sS'z0'
p30
g2
sS'ok'
p31
S'boolean'
p32
sS'model.blocktype'
p33
S'string'
p34
sS'model.dep_ut'
p35
g7
sS'exprs'
p36
g11
sS'gr_i'
p37
g7
sS'y'
p38
g7
sS'x'
p39
g2
sS'model'
p40
g4
sS'ot'
p41
g34
sS'nout'
p42
g2
s.