c__builtin__
set
p0
((lp1
S'x'
p2
aS'z0'
p3
aS'typ'
p4
aS'nout'
p5
atp6
Rp7
.(dp0
S'model.dstate'
p1
NsS'arg1'
p2
S'object'
p3
sS'graphics'
p4
g3
sS'it'
p5
S'vector'
p6
sS'model.intyp'
p7
S'double'
p8
sS'this.x.model'
p9
NsS'model.out'
p10
S'matrix'
p11
sS'out'
p12
g6
sS'model.in2'
p13
g8
sS'model.in1'
p14
g8
sS'typ'
p15
g6
sS'model.evtin'
p16
g8
sS'model.firing'
p17
g6
sS'this.x'
p18
g8
sS'model.sim'
p19
g6
sS'model.evtout'
p20
g6
sS'this.nout'
p21
g8
sS'model.out2'
p22
g11
sS'in1'
p23
g6
sS'model.rpar'
p24
g6
sS'model.outtyp'
p25
g8
sS'model.state'
p26
g6
sS'graphics.exprs'
p27
NsS'model.ipar'
p28
g6
sS'this.x.graphics'
p29
g3
sS'[model,graphics,ok]'
p30
g8
sS'ot'
p31
S'string'
p32
sS'ok'
p33
S'boolean'
p34
sS'model.blocktype'
p35
g32
sS'model.dep_ut'
p36
g6
sS'exprs'
p37
g11
sS'gr_i'
p38
g6
sS'y'
p39
g6
sS'model'
p40
g8
sS'this.z0'
p41
g8
s.