c__builtin__
set
p0
((lp1
S'nin'
p2
aS'rule'
p3
aS'base'
p4
aS'graphics'
p5
aS'x'
p6
aS'model'
p7
atp8
Rp9
.(dp0
S'graphics'
p1
S'object'
p2
sS'it'
p3
S'matrix'
p4
sS'x.model'
p5
NsS'model.out'
p6
S'double'
p7
sS'out'
p8
S'vector'
p9
sS'x.graphics'
p10
g2
sS'model.sim'
p11
S'list'
p12
sS'nin'
p13
g7
sS'in1'
p14
g4
sS'in2'
p15
g4
sS'base'
p16
g7
sS'model.in'
p17
g4
sS'graphics.exprs'
p18
NsS'model.ipar'
p19
g4
sS'typ'
p20
g9
sS'model.blocktype'
p21
S'string'
p22
sS'model.dep_ut'
p23
S'vector_boolean'
p24
sS'exprs'
p25
g4
sS'gr_i'
p26
g9
sS'ipar'
p27
g4
sS'y'
p28
g9
sS'x'
p29
g9
sS'model'
p30
g2
sS'ot'
p31
g7
s.