c__builtin__
set
p0
((lp1
S'x'
p2
aS'base'
p3
aS'nin'
p4
aS'rule'
p5
atp6
Rp7
.(dp0
S'arg1'
p1
S'object'
p2
sS'graphics'
p3
g2
sS'it'
p4
S'matrix'
p5
sS'x.model'
p6
NsS'model.out'
p7
S'double'
p8
sS'out'
p9
S'vector'
p10
sS'model.in1'
p11
g5
sS'x.graphics'
p12
g2
sS'model.sim'
p13
g10
sS'nin'
p14
g8
sS'in1'
p15
g5
sS'in2'
p16
g5
sS'base'
p17
g8
sS'graphics.exprs'
p18
NsS'model.ipar'
p19
g5
sS'typ'
p20
g10
sS'[model,graphics,ok]'
p21
g8
sS'model.blocktype'
p22
S'string'
p23
sS'model.dep_ut'
p24
g10
sS'exprs'
p25
g5
sS'gr_i'
p26
g10
sS'ipar'
p27
g5
sS'y'
p28
g10
sS'x'
p29
g8
sS'model'
p30
g2
sS'ot'
p31
g8
s.