c__builtin__
set
p0
((lp1
S'x'
p2
aS'base'
p3
aS'nin'
p4
aS'rule'
p5
atp6
Rp7
.(dp0
S'arg1'
p1
S'object'
p2
sS'graphics'
p3
g2
sS'it'
p4
S'matrix'
p5
sS'this.x.model'
p6
NsS'model.out'
p7
S'double'
p8
sS'out'
p9
S'vector'
p10
sS'model.in1'
p11
g5
sS'this.base'
p12
g8
sS'this.x.graphics'
p13
g2
sS'this.x'
p14
g8
sS'model.sim'
p15
g10
sS'in1'
p16
g5
sS'in2'
p17
g5
sS'graphics.exprs'
p18
NsS'model.ipar'
p19
g5
sS'typ'
p20
g10
sS'[model,graphics,ok]'
p21
g8
sS'model.blocktype'
p22
S'string'
p23
sS'this.nin'
p24
g8
sS'model.dep_ut'
p25
g10
sS'exprs'
p26
g5
sS'gr_i'
p27
g10
sS'ipar'
p28
g5
sS'y'
p29
g10
sS'model'
p30
g8
sS'ot'
p31
g8
s.