c__builtin__
set
p0
((lp1
S'nin'
p2
aS'rule'
p3
aS'exprs'
p4
aS'gr_i'
p5
aS'base'
p6
aS'graphics'
p7
aS'x'
p8
aS'model'
p9
atp10
Rp11
.(dp0
S'arg1'
p1
S'object'
p2
sS'graphics'
p3
g2
sS'it'
p4
S'matrix'
p5
sS'x.model'
p6
NsS'model.out'
p7
S'double'
p8
sS'out'
p9
S'vector'
p10
sS'x.graphics'
p11
g2
sS'model.sim'
p12
S'list'
p13
sS'nin'
p14
g8
sS'in1'
p15
g5
sS'in2'
p16
g5
sS'base'
p17
g8
sS'model.in'
p18
g5
sS'graphics.exprs'
p19
NsS'model.ipar'
p20
g5
sS'typ'
p21
g10
sS'model.blocktype'
p22
S'string'
p23
sS'model.dep_ut'
p24
g10
sS'exprs'
p25
g5
sS'gr_i'
p26
g10
sS'ipar'
p27
g5
sS'y'
p28
g10
sS'x'
p29
NsS'model'
p30
g2
sS'ot'
p31
g8
s.