c__builtin__
set
p0
((lp1
S'nin'
p2
aS'rule'
p3
aS'base'
p4
aS'graphics'
p5
aS'x'
p6
aS'model'
p7
atp8
Rp9
.(dp0
S'arg1'
p1
S'object'
p2
sS'graphics'
p3
g2
sS'it'
p4
S'matrix'
p5
sS'x.model'
p6
NsS'model.out'
p7
S'double'
p8
sS'out'
p9
S'vector'
p10
sS'x.graphics'
p11
g2
sS'model.sim'
p12
S'list'
p13
sS'nin'
p14
g8
sS'in1'
p15
g5
sS'in2'
p16
g5
sS'base'
p17
g8
sS'model.in'
p18
g5
sS'graphics.exprs'
p19
NsS'model.ipar'
p20
g5
sS'typ'
p21
g10
sS'model.blocktype'
p22
S'string'
p23
sS'model.dep_ut'
p24
S'vector_boolean'
p25
sS'exprs'
p26
g5
sS'gr_i'
p27
g10
sS'ipar'
p28
g5
sS'y'
p29
g10
sS'x'
p30
NsS'model'
p31
g2
sS'ot'
p32
g8
s.