c__builtin__
set
p0
((lp1
S'x'
p2
aS'model'
p3
aS'in1'
p4
atp5
Rp6
.(dp0
S'model.sim'
p1
S'list'
p2
sS'model.in1'
p3
S'vector'
p4
sS'ok'
p5
S'boolean'
p6
sS'model.blocktype'
p7
S'string'
p8
sS'x.graphics'
p9
S'object'
p10
sS'arg1'
p11
g10
sS'[this.model,graphics,ok]'
p12
S'double'
p13
sS'graphics.exprs'
p14
NsS'in1'
p15
g13
sS'model.out'
p16
g13
sS'exprs'
p17
g8
sS'x.model'
p18
NsS'gr_i'
p19
g4
sS'model.dep_ut'
p20
g4
sS'graphics'
p21
g10
sS'y'
p22
g4
sS'x'
p23
g13
sS'model'
p24
g10
sS'model.ipar'
p25
g13
sS'typ'
p26
g4
sS'nout'
p27
g13
s.