c__builtin__
set
p0
((lp1
S'x'
p2
aS'in1'
p3
atp4
Rp5
.(dp0
S'[model,graphics,ok]'
p1
S'double'
p2
sS'model.in1'
p3
S'vector'
p4
sS'ok'
p5
S'boolean'
p6
sS'model.blocktype'
p7
S'string'
p8
sS'x.graphics'
p9
S'object'
p10
sS'arg1'
p11
g10
sS'graphics.exprs'
p12
NsS'in1'
p13
g2
sS'model.out'
p14
g2
sS'exprs'
p15
g8
sS'x.model'
p16
NsS'gr_i'
p17
g4
sS'model.dep_ut'
p18
g4
sS'graphics'
p19
g10
sS'y'
p20
g4
sS'x'
p21
g2
sS'model'
p22
g10
sS'model.ipar'
p23
g2
sS'typ'
p24
g4
sS'nout'
p25
g2
sS'model.sim'
p26
g4
s.