c__builtin__
set
p0
((lp1
S'x'
p2
aS'model'
p3
aS'in1'
p4
aS'graphics'
p5
atp6
Rp7
.(dp0
S'model.sim'
p1
S'list'
p2
sS'model.out'
p3
S'double'
p4
sS'ok'
p5
S'boolean'
p6
sS'model.blocktype'
p7
S'string'
p8
sS'x.graphics'
p9
S'object'
p10
sS'arg1'
p11
g10
sS'graphics.exprs'
p12
NsS'in1'
p13
g4
sS'model.dep_ut'
p14
S'vector_boolean'
p15
sS'exprs'
p16
g8
sS'x.model'
p17
NsS'gr_i'
p18
S'vector'
p19
sS'model.in'
p20
g19
sS'graphics'
p21
g10
sS'y'
p22
g19
sS'x'
p23
NsS'model'
p24
g10
sS'model.ipar'
p25
g4
sS'typ'
p26
g19
sS'nout'
p27
g4
s.