c__builtin__
set
p0
((lp1
S'x'
p2
aS'model'
p3
aS'in1'
p4
aS'graphics'
p5
atp6
Rp7
.(dp0
S'model.sim'
p1
S'list'
p2
sS'model.out'
p3
S'double'
p4
sS'ok'
p5
S'boolean'
p6
sS'model.in'
p7
S'vector'
p8
sS'x.graphics'
p9
S'object'
p10
sS'in'
p11
g4
sS'model.dep_ut'
p12
S'vector_boolean'
p13
sS'exprs'
p14
S'string'
p15
sS'x.model'
p16
NsS'gr_i'
p17
g8
sS'graphics.exprs'
p18
NsS'graphics'
p19
g10
sS'y'
p20
g8
sS'x'
p21
g8
sS'model'
p22
g10
sS'model.ipar'
p23
NsS'typ'
p24
g8
sS'nout'
p25
g4
sS'model.blocktype'
p26
g15
s.