c__builtin__
set
p0
((lp1
S'x'
p2
aS'in1'
p3
atp4
Rp5
.(dp0
S'this.x'
p1
S'double'
p2
sS'[model,graphics,ok]'
p3
g2
sS'model.in1'
p4
S'vector'
p5
sS'ok'
p6
S'boolean'
p7
sS'model.blocktype'
p8
S'string'
p9
sS'model.sim'
p10
g5
sS'this.x.graphics'
p11
S'object'
p12
sS'arg1'
p13
g12
sS'graphics.exprs'
p14
NsS'model.out'
p15
g2
sS'this.x.model'
p16
NsS'exprs'
p17
g9
sS'gr_i'
p18
g5
sS'model.dep_ut'
p19
g5
sS'graphics'
p20
g12
sS'y'
p21
g5
sS'model'
p22
g2
sS'model.ipar'
p23
NsS'typ'
p24
g5
sS'this.in1'
p25
g2
sS'nout'
p26
g2
s.