c__builtin__
set
p0
((lp1
S'x'
p2
aS'model'
p3
aS'in1'
p4
aS'graphics'
p5
atp6
Rp7
.(dp0
S'model.sim'
p1
S'list'
p2
sS'model.out'
p3
S'double'
p4
sS'ok'
p5
S'boolean'
p6
sS'model.blocktype'
p7
S'string'
p8
sS'x.graphics'
p9
S'object'
p10
sS'graphics.exprs'
p11
NsS'in1'
p12
g4
sS'model.dep_ut'
p13
S'vector_boolean'
p14
sS'exprs'
p15
g8
sS'x.model'
p16
NsS'gr_i'
p17
S'vector'
p18
sS'model.in'
p19
g18
sS'graphics'
p20
g10
sS'y'
p21
g18
sS'x'
p22
g18
sS'model'
p23
g10
sS'model.ipar'
p24
g4
sS'typ'
p25
g18
sS'nout'
p26
g4
s.