c__builtin__
set
p0
((lp1
S'nin'
p2
aS'exprs'
p3
aS'gr_i'
p4
aS'graphics'
p5
aS'x'
p6
aS'model'
p7
atp8
Rp9
.(dp0
S'model.sim'
p1
S'string'
p2
sS'model.out'
p3
S'double'
p4
sS'nin'
p5
g4
sS'model.blocktype'
p6
g2
sS'x.graphics'
p7
S'object'
p8
sS'arg1'
p9
g8
sS'graphics.exprs'
p10
NsS'in1'
p11
S'matrix'
p12
sS'model.dep_ut'
p13
S'vector_boolean'
p14
sS'exprs'
p15
S'vector'
p16
sS'x.model'
p17
NsS'gr_i'
p18
g16
sS'model.in'
p19
g12
sS'graphics'
p20
g8
sS'y'
p21
g16
sS'x'
p22
NsS'model'
p23
g8
sS'typ'
p24
g16
s.