c__builtin__
set
p0
((lp1
S'x'
p2
aS'model'
p3
aS'nin'
p4
atp5
Rp6
.(dp0
S'model.sim'
p1
S'string'
p2
sS'model.in1'
p3
S'matrix'
p4
sS'nin'
p5
S'double'
p6
sS'model.blocktype'
p7
g2
sS'x.graphics'
p8
S'object'
p9
sS'arg1'
p10
g9
sS'[this.model,graphics,ok]'
p11
S'list'
p12
sS'graphics.exprs'
p13
NsS'in1'
p14
g4
sS'model.out'
p15
g6
sS'exprs'
p16
S'vector'
p17
sS'x.model'
p18
NsS'gr_i'
p19
g17
sS'model.dep_ut'
p20
g17
sS'graphics'
p21
g9
sS'y'
p22
g17
sS'x'
p23
g6
sS'model'
p24
g9
sS'typ'
p25
g17
s.