c__builtin__
set
p0
((lp1
S'x'
p2
aS'model'
p3
aS'nin'
p4
aS'graphics'
p5
atp6
Rp7
.(dp0
S'model.sim'
p1
S'string'
p2
sS'model.out'
p3
S'double'
p4
sS'nin'
p5
g4
sS'model.blocktype'
p6
g2
sS'x.graphics'
p7
S'object'
p8
sS'arg1'
p9
g8
sS'graphics.exprs'
p10
NsS'in1'
p11
S'matrix'
p12
sS'model.dep_ut'
p13
S'vector_boolean'
p14
sS'exprs'
p15
S'vector_string'
p16
sS'x.model'
p17
NsS'gr_i'
p18
S'vector'
p19
sS'model.in'
p20
g12
sS'graphics'
p21
g8
sS'y'
p22
g19
sS'x'
p23
NsS'model'
p24
g8
sS'typ'
p25
g19
s.