c__builtin__
set
p0
((lp1
S'x'
p2
aS'nin'
p3
atp4
Rp5
.(dp0
S'this.x'
p1
S'double'
p2
sS'[model,graphics,ok]'
p3
g2
sS'model.in1'
p4
S'matrix'
p5
sS'model.blocktype'
p6
S'string'
p7
sS'model.sim'
p8
g7
sS'this.x.graphics'
p9
S'object'
p10
sS'arg1'
p11
g10
sS'graphics.exprs'
p12
NsS'in1'
p13
g5
sS'model.out'
p14
g2
sS'this.nin'
p15
g2
sS'this.x.model'
p16
NsS'exprs'
p17
S'vector'
p18
sS'gr_i'
p19
g18
sS'model.dep_ut'
p20
g18
sS'graphics'
p21
g10
sS'y'
p22
g18
sS'model'
p23
g10
sS'typ'
p24
g18
s.