c__builtin__
set
p0
((lp1
S'x'
p2
aS'model'
p3
aS'nin'
p4
aS'graphics'
p5
atp6
Rp7
.(dp0
S'model.sim'
p1
S'string'
p2
sS'model.out'
p3
S'double'
p4
sS'nin'
p5
g4
sS'model.blocktype'
p6
g2
sS'x.graphics'
p7
S'object'
p8
sS'graphics'
p9
g8
sS'in1'
p10
S'matrix'
p11
sS'model.dep_ut'
p12
S'vector_boolean'
p13
sS'exprs'
p14
S'vector_string'
p15
sS'x.model'
p16
NsS'gr_i'
p17
S'vector'
p18
sS'model.in'
p19
g11
sS'graphics.exprs'
p20
NsS'y'
p21
g18
sS'x'
p22
g18
sS'model'
p23
g8
sS'typ'
p24
g18
s.