c__builtin__
set
p0
((lp1
S'x'
p2
aS'model'
p3
aS'nin'
p4
atp5
Rp6
.(dp0
S'model.sim'
p1
S'string'
p2
sS'model.in1'
p3
S'matrix'
p4
sS'nin'
p5
S'double'
p6
sS'model.blocktype'
p7
g2
sS'x.graphics'
p8
S'object'
p9
sS'arg1'
p10
g9
sS'[this.model,graphics,ok]'
p11
g6
sS'graphics.exprs'
p12
NsS'in1'
p13
g4
sS'model.out'
p14
g6
sS'exprs'
p15
S'vector'
p16
sS'x.model'
p17
NsS'gr_i'
p18
g16
sS'model.dep_ut'
p19
g16
sS'graphics'
p20
g9
sS'y'
p21
g16
sS'x'
p22
g6
sS'model'
p23
g9
sS'typ'
p24
g16
s.