c__builtin__
set
p0
((lp1
S'x'
p2
aS'model'
p3
aS'nin'
p4
atp5
Rp6
.(dp0
S'model.sim'
p1
S'string'
p2
sS'model.in1'
p3
S'matrix'
p4
sS'nin'
p5
S'double'
p6
sS'model.blocktype'
p7
g2
sS'x.graphics'
p8
S'object'
p9
sS'arg1'
p10
g9
sS'graphics.exprs'
p11
NsS'in1'
p12
g4
sS'model.out'
p13
g6
sS'exprs'
p14
S'vector'
p15
sS'x.model'
p16
NsS'gr_i'
p17
g15
sS'model.dep_ut'
p18
g15
sS'graphics'
p19
g9
sS'y'
p20
g15
sS'x'
p21
g6
sS'model'
p22
g9
sS'typ'
p23
g15
s.