c__builtin__
set
p0
((lp1
S'x'
p2
aS'model'
p3
aS'z0'
p4
aS'nin'
p5
aS'graphics'
p6
atp7
Rp8
.(dp0
S'model.dstate'
p1
S'double'
p2
sS'graphics'
p3
S'object'
p4
sS'x.model'
p5
g4
sS'model.out'
p6
g2
sS'x.graphics'
p7
g4
sS'model.evtin'
p8
g2
sS'model.firing'
p9
S'vector'
p10
sS'model.sim'
p11
S'list'
p12
sS'nin'
p13
g2
sS'i0'
p14
g2
sS'in1'
p15
S'matrix'
p16
sS'model.in'
p17
g16
sS'graphics.exprs'
p18
NsS'typ'
p19
g10
sS'model.blocktype'
p20
S'string'
p21
sS'model.dep_ut'
p22
S'vector_boolean'
p23
sS'exprs'
p24
g16
sS'gr_i'
p25
g10
sS'ipar'
p26
NsS'y'
p27
g10
sS'x'
p28
g10
sS'model'
p29
g4
s.