c__builtin__
set
p0
((lp1
S'x'
p2
aS'model'
p3
aS'z0'
p4
aS'nin'
p5
aS'graphics'
p6
atp7
Rp8
.(dp0
S'model.dstate'
p1
S'double'
p2
sS'arg1'
p3
S'object'
p4
sS'graphics'
p5
g4
sS'x.model'
p6
g4
sS'model.out'
p7
g2
sS'model.in1'
p8
S'matrix'
p9
sS'x.graphics'
p10
g4
sS'model.evtin'
p11
g2
sS'model.firing'
p12
S'vector'
p13
sS'model.sim'
p14
S'list'
p15
sS'nin'
p16
g2
sS'i0'
p17
g2
sS'in1'
p18
g9
sS'graphics.exprs'
p19
NsS'typ'
p20
g13
sS'model.blocktype'
p21
S'string'
p22
sS'model.dep_ut'
p23
g13
sS'exprs'
p24
g9
sS'gr_i'
p25
g13
sS'ipar'
p26
NsS'y'
p27
g13
sS'x'
p28
g2
sS'model'
p29
g4
s.