c__builtin__
set
p0
((lp1
S'nin'
p2
aS'exprs'
p3
aS'gr_i'
p4
aS'graphics'
p5
aS'x'
p6
aS'model'
p7
aS'z0'
p8
atp9
Rp10
.(dp0
S'model.dstate'
p1
S'double'
p2
sS'arg1'
p3
S'object'
p4
sS'graphics'
p5
g4
sS'x.model'
p6
g4
sS'model.out'
p7
g2
sS'x.graphics'
p8
g4
sS'model.evtin'
p9
g2
sS'model.firing'
p10
S'vector'
p11
sS'model.sim'
p12
S'list'
p13
sS'nin'
p14
g2
sS'i0'
p15
g2
sS'in1'
p16
S'matrix'
p17
sS'model.in'
p18
g17
sS'graphics.exprs'
p19
NsS'typ'
p20
g11
sS'model.blocktype'
p21
S'string'
p22
sS'model.dep_ut'
p23
g11
sS'exprs'
p24
g17
sS'gr_i'
p25
g11
sS'ipar'
p26
NsS'y'
p27
g11
sS'x'
p28
NsS'model'
p29
g4
s.