c__builtin__
set
p0
((lp1
S'x'
p2
aS'z0'
p3
aS'nin'
p4
atp5
Rp6
.(dp0
S'model.dstate'
p1
S'double'
p2
sS'arg1'
p3
S'object'
p4
sS'graphics'
p5
g4
sS'x.model'
p6
g4
sS'model.out'
p7
g2
sS'model.in1'
p8
S'matrix'
p9
sS'x.graphics'
p10
g4
sS'model.evtin'
p11
g2
sS'model.firing'
p12
S'vector'
p13
sS'model.sim'
p14
g13
sS'nin'
p15
g2
sS'i0'
p16
g2
sS'in1'
p17
g9
sS'graphics.exprs'
p18
NsS'typ'
p19
g13
sS'[model,graphics,ok]'
p20
g2
sS'model.blocktype'
p21
S'string'
p22
sS'model.dep_ut'
p23
g13
sS'exprs'
p24
g9
sS'gr_i'
p25
g13
sS'ipar'
p26
NsS'y'
p27
g13
sS'x'
p28
g2
sS'model'
p29
g4
s.