c__builtin__
set
p0
((lp1
S'x'
p2
aS'model'
p3
aS'z0'
p4
aS'nin'
p5
aS'graphics'
p6
atp7
Rp8
.(dp0
S'model.dstate'
p1
S'double'
p2
sS'arg1'
p3
S'object'
p4
sS'graphics'
p5
g4
sS'x.model'
p6
g4
sS'model.out'
p7
g2
sS'x.graphics'
p8
g4
sS'model.evtin'
p9
g2
sS'model.firing'
p10
S'vector'
p11
sS'model.sim'
p12
S'list'
p13
sS'nin'
p14
g2
sS'i0'
p15
g2
sS'in1'
p16
S'matrix'
p17
sS'model.in'
p18
g17
sS'graphics.exprs'
p19
NsS'typ'
p20
g11
sS'model.blocktype'
p21
S'string'
p22
sS'model.dep_ut'
p23
S'vector_boolean'
p24
sS'exprs'
p25
g17
sS'gr_i'
p26
g11
sS'ipar'
p27
NsS'y'
p28
g11
sS'x'
p29
NsS'model'
p30
g4
s.