c__builtin__
set
p0
((lp1
S'x'
p2
aS'z0'
p3
aS'nin'
p4
atp5
Rp6
.(dp0
S'model.dstate'
p1
S'double'
p2
sS'arg1'
p3
S'object'
p4
sS'graphics'
p5
g4
sS'this.x.model'
p6
g4
sS'model.out'
p7
g2
sS'model.in1'
p8
S'matrix'
p9
sS'typ'
p10
S'vector'
p11
sS'model.evtin'
p12
g2
sS'model.firing'
p13
g11
sS'this.x'
p14
g2
sS'model.sim'
p15
g11
sS'i0'
p16
g2
sS'in1'
p17
g9
sS'graphics.exprs'
p18
NsS'this.x.graphics'
p19
g4
sS'[model,graphics,ok]'
p20
g2
sS'model.blocktype'
p21
S'string'
p22
sS'this.nin'
p23
g2
sS'model.dep_ut'
p24
g11
sS'exprs'
p25
g9
sS'gr_i'
p26
g11
sS'ipar'
p27
NsS'y'
p28
g11
sS'model'
p29
g4
s.