c__builtin__
set
p0
((lp1
S'x'
p2
aS'model'
p3
aS'nout'
p4
atp5
Rp6
.(dp0
S'model.sim'
p1
S'list'
p2
sS'model.out'
p3
S'double'
p4
sS'ok'
p5
S'boolean'
p6
sS'model.blocktype'
p7
S'string'
p8
sS'x.graphics'
p9
S'object'
p10
sS'arg1'
p11
g10
sS'graphics.exprs'
p12
NsS'model.in1'
p13
g4
sS'model.dep_ut'
p14
S'vector'
p15
sS'exprs'
p16
g15
sS'x.model'
p17
NsS'gr_i'
p18
g15
sS'graphics'
p19
g10
sS'y'
p20
g15
sS'x'
p21
g4
sS'model'
p22
g10
sS'typ'
p23
g15
sS'nout'
p24
g4
s.