c__builtin__
set
p0
((lp1
S'exprs'
p2
aS'gr_i'
p3
aS'graphics'
p4
aS'x'
p5
aS'model'
p6
aS'nout'
p7
atp8
Rp9
.(dp0
S'model.sim'
p1
S'list'
p2
sS'model.out'
p3
S'double'
p4
sS'ok'
p5
S'boolean'
p6
sS'model.blocktype'
p7
S'string'
p8
sS'x.graphics'
p9
S'object'
p10
sS'arg1'
p11
g10
sS'graphics.exprs'
p12
NsS'model.dep_ut'
p13
S'vector_boolean'
p14
sS'exprs'
p15
S'vector'
p16
sS'x.model'
p17
NsS'gr_i'
p18
g16
sS'model.in'
p19
g4
sS'graphics'
p20
g10
sS'y'
p21
g16
sS'x'
p22
NsS'model'
p23
g10
sS'typ'
p24
g16
sS'nout'
p25
g4
s.