c__builtin__
set
p0
((lp1
S'x'
p2
aS'model'
p3
aS'nout'
p4
aS'graphics'
p5
atp6
Rp7
.(dp0
S'model.sim'
p1
S'list'
p2
sS'model.out'
p3
S'double'
p4
sS'ok'
p5
S'boolean'
p6
sS'model.blocktype'
p7
S'string'
p8
sS'x.graphics'
p9
S'object'
p10
sS'arg1'
p11
g10
sS'graphics.exprs'
p12
NsS'model.dep_ut'
p13
S'vector_boolean'
p14
sS'exprs'
p15
S'vector_string'
p16
sS'x.model'
p17
NsS'gr_i'
p18
S'vector'
p19
sS'model.in'
p20
g4
sS'graphics'
p21
g10
sS'y'
p22
g19
sS'x'
p23
NsS'model'
p24
g10
sS'typ'
p25
g19
sS'nout'
p26
g4
s.