c__builtin__
set
p0
((lp1
S'x'
p2
aS'model'
p3
aS'nout'
p4
atp5
Rp6
.(dp0
S'[model,graphics,ok]'
p1
S'double'
p2
sS'model.out'
p3
g2
sS'ok'
p4
S'boolean'
p5
sS'model.blocktype'
p6
S'string'
p7
sS'x.graphics'
p8
S'object'
p9
sS'arg1'
p10
g9
sS'graphics.exprs'
p11
NsS'model.in1'
p12
g2
sS'model.dep_ut'
p13
S'vector'
p14
sS'exprs'
p15
g14
sS'x.model'
p16
NsS'gr_i'
p17
g14
sS'graphics'
p18
g9
sS'y'
p19
g14
sS'x'
p20
g2
sS'model'
p21
g9
sS'model.sim'
p22
S'list'
p23
sS'typ'
p24
g14
sS'nout'
p25
g2
s.