c__builtin__
set
p0
((lp1
S'x'
p2
aS'nout'
p3
atp4
Rp5
.(dp0
S'this.x'
p1
S'double'
p2
sS'[model,graphics,ok]'
p3
g2
sS'model.out'
p4
NsS'ok'
p5
S'boolean'
p6
sS'this.nout'
p7
g2
sS'model.sim'
p8
S'vector'
p9
sS'this.x.graphics'
p10
S'object'
p11
sS'arg1'
p12
g11
sS'graphics.exprs'
p13
NsS'model.in1'
p14
g2
sS'model.dep_ut'
p15
g9
sS'this.x.model'
p16
NsS'exprs'
p17
g9
sS'gr_i'
p18
g9
sS'graphics'
p19
g11
sS'y'
p20
g9
sS'model'
p21
g11
sS'typ'
p22
g9
sS'model.blocktype'
p23
S'string'
p24
s.