c__builtin__
set
p0
((lp1
S'x'
p2
aS'model'
p3
aS'nout'
p4
atp5
Rp6
.(dp0
S'model.sim'
p1
S'list'
p2
sS'model.out'
p3
S'double'
p4
sS'ok'
p5
S'boolean'
p6
sS'model.blocktype'
p7
S'string'
p8
sS'x.graphics'
p9
S'object'
p10
sS'arg1'
p11
g10
sS'[this.model,graphics,ok]'
p12
g2
sS'graphics.exprs'
p13
NsS'model.in1'
p14
g4
sS'model.dep_ut'
p15
S'vector'
p16
sS'exprs'
p17
g16
sS'x.model'
p18
NsS'gr_i'
p19
g16
sS'graphics'
p20
g10
sS'y'
p21
g16
sS'x'
p22
g4
sS'model'
p23
g10
sS'typ'
p24
g16
sS'nout'
p25
g4
s.