c__builtin__
set
p0
((lp1
S'exprs'
p2
aS'gr_i'
p3
aS'graphics'
p4
aS'x'
p5
aS'model'
p6
aS'nout'
p7
atp8
Rp9
.(dp0
S'model.sim'
p1
S'list'
p2
sS'model.out'
p3
S'double'
p4
sS'ok'
p5
S'boolean'
p6
sS'model.blocktype'
p7
S'string'
p8
sS'x.graphics'
p9
S'object'
p10
sS'arg1'
p11
g10
sS'graphics.exprs'
p12
NsS'model.dep_ut'
p13
S'vector'
p14
sS'exprs'
p15
g14
sS'x.model'
p16
NsS'gr_i'
p17
g14
sS'model.in'
p18
g4
sS'graphics'
p19
g10
sS'y'
p20
g14
sS'x'
p21
g4
sS'model'
p22
g10
sS'typ'
p23
g14
sS'nout'
p24
g4
s.