c__builtin__
set
p0
((lp1
S'x'
p2
aS'z0'
p3
aS'typ'
p4
aS'nin'
p5
atp6
Rp7
.(dp0
S'model.dstate'
p1
S'double'
p2
sS'arg1'
p3
S'object'
p4
sS'graphics'
p5
g4
sS'it'
p6
S'string'
p7
sS'x.model'
p8
NsS'model.intyp'
p9
g2
sS'model.out'
p10
g2
sS'out'
p11
S'vector'
p12
sS'model.in2'
p13
S'matrix'
p14
sS'model.in1'
p15
g14
sS'x.graphics'
p16
g4
sS'typ'
p17
g12
sS'model.evtin'
p18
g2
sS'model.firing'
p19
g12
sS'model.sim'
p20
g12
sS'model.evtout'
p21
g12
sS'nin'
p22
g2
sS'model.out2'
p23
g2
sS'in1'
p24
g12
sS'model.rpar'
p25
g12
sS'model.outtyp'
p26
g2
sS'model.state'
p27
g12
sS'graphics.exprs'
p28
NsS'model.ipar'
p29
g12
sS'z0'
p30
g2
sS'[model,graphics,ok]'
p31
g2
sS'ok'
p32
S'boolean'
p33
sS'model.blocktype'
p34
g7
sS'model.dep_ut'
p35
g12
sS'exprs'
p36
g14
sS'gr_i'
p37
g12
sS'y'
p38
g12
sS'x'
p39
g2
sS'model'
p40
g4
sS'ot'
p41
g12
s.