c__builtin__
set
p0
((lp1
S'nin'
p2
aS'typ'
p3
aS'graphics'
p4
aS'x'
p5
aS'model'
p6
aS'z0'
p7
atp8
Rp9
.(dp0
S'model.dstate'
p1
S'double'
p2
sS'graphics'
p3
S'object'
p4
sS'it'
p5
S'string'
p6
sS'x.model'
p7
NsS'model.out'
p8
g2
sS'out'
p9
S'vector'
p10
sS'model.in2'
p11
S'matrix'
p12
sS'model.intyp'
p13
g2
sS'x.graphics'
p14
g4
sS'typ'
p15
g10
sS'model.evtin'
p16
g2
sS'model.firing'
p17
g10
sS'model.sim'
p18
S'list'
p19
sS'model.evtout'
p20
g10
sS'nin'
p21
g2
sS'model.out2'
p22
g2
sS'in1'
p23
g10
sS'model.rpar'
p24
g10
sS'model.outtyp'
p25
g2
sS'model.state'
p26
g10
sS'model.in'
p27
g12
sS'graphics.exprs'
p28
NsS'model.ipar'
p29
g10
sS'z0'
p30
g2
sS'ok'
p31
S'boolean'
p32
sS'model.blocktype'
p33
g6
sS'model.dep_ut'
p34
S'vector_boolean'
p35
sS'exprs'
p36
g12
sS'gr_i'
p37
g10
sS'y'
p38
g10
sS'x'
p39
g10
sS'model'
p40
g4
sS'ot'
p41
g10
s.