c__builtin__
set
p0
((lp1
S'x'
p2
aS'z0'
p3
aS'nin'
p4
atp5
Rp6
.(dp0
S'model.dstate'
p1
NsS'arg1'
p2
S'object'
p3
sS'graphics'
p4
g3
sS'this.x.model'
p5
NsS'model.out'
p6
S'double'
p7
sS'model.in1'
p8
S'matrix'
p9
sS'typ'
p10
S'vector'
p11
sS'model.evtin'
p12
g7
sS'this.x'
p13
g7
sS'model.sim'
p14
g11
sS'in1'
p15
g9
sS'graphics.exprs'
p16
NsS'this.x.graphics'
p17
g3
sS'[model,graphics,ok]'
p18
g7
sS'model.blocktype'
p19
S'string'
p20
sS'this.nin'
p21
g7
sS'model.dep_ut'
p22
g11
sS'exprs'
p23
g9
sS'gr_i'
p24
g11
sS'y'
p25
g11
sS'model'
p26
g3
sS'this.z0'
p27
g7
s.