c__builtin__
set
p0
((lp1
S'x'
p2
aS'z0'
p3
aS'typ'
p4
aS'nin'
p5
atp6
Rp7
.(dp0
S'model.dstate'
p1
NsS'arg1'
p2
S'object'
p3
sS'graphics'
p4
g3
sS'it'
p5
S'string'
p6
sS'model.intyp'
p7
S'double'
p8
sS'this.x.model'
p9
NsS'model.out'
p10
g8
sS'out'
p11
S'vector'
p12
sS'model.in2'
p13
S'matrix'
p14
sS'model.in1'
p15
g14
sS'typ'
p16
g12
sS'model.evtin'
p17
g8
sS'model.firing'
p18
g12
sS'this.x'
p19
g8
sS'model.sim'
p20
g12
sS'model.evtout'
p21
g12
sS'model.out2'
p22
g8
sS'in1'
p23
g12
sS'model.rpar'
p24
g12
sS'model.outtyp'
p25
g8
sS'model.state'
p26
g12
sS'graphics.exprs'
p27
NsS'model.ipar'
p28
g12
sS'this.x.graphics'
p29
g3
sS'[model,graphics,ok]'
p30
g8
sS'ot'
p31
g12
sS'ok'
p32
S'boolean'
p33
sS'model.blocktype'
p34
g6
sS'this.nin'
p35
g8
sS'model.dep_ut'
p36
g12
sS'exprs'
p37
g14
sS'gr_i'
p38
g12
sS'y'
p39
g12
sS'model'
p40
g8
sS'this.z0'
p41
g8
s.