c__builtin__
set
p0
((lp1
S'nin'
p2
aS'exprs'
p3
aS'gr_i'
p4
aS'graphics'
p5
aS'x'
p6
aS'model'
p7
aS'z0'
p8
atp9
Rp10
.(dp0
S'model.sim'
p1
S'list'
p2
sS'model.in1'
p3
S'matrix'
p4
sS'model.dstate'
p5
S'double'
p6
sS'model.evtin'
p7
g6
sS'x.graphics'
p8
S'object'
p9
sS'arg1'
p10
g9
sS'graphics.exprs'
p11
NsS'nin'
p12
g6
sS'in1'
p13
g4
sS'model.out'
p14
g6
sS'exprs'
p15
g4
sS'x.model'
p16
NsS'gr_i'
p17
S'vector'
p18
sS'z0'
p19
g6
sS'model.dep_ut'
p20
g18
sS'graphics'
p21
g9
sS'y'
p22
g18
sS'x'
p23
g6
sS'model'
p24
g9
sS'typ'
p25
g18
sS'model.blocktype'
p26
S'string'
p27
s.