c__builtin__
set
p0
((lp1
S'x'
p2
aS'model'
p3
aS'z0'
p4
aS'nin'
p5
atp6
Rp7
.(dp0
S'model.dstate'
p1
S'double'
p2
sS'arg1'
p3
S'object'
p4
sS'graphics'
p5
g4
sS'x.model'
p6
NsS'model.out'
p7
g2
sS'model.in1'
p8
S'matrix'
p9
sS'x.graphics'
p10
g4
sS'typ'
p11
S'vector'
p12
sS'model.evtin'
p13
g2
sS'model.sim'
p14
S'list'
p15
sS'nin'
p16
g2
sS'[this.model,graphics,ok]'
p17
g15
sS'in1'
p18
g9
sS'graphics.exprs'
p19
NsS'z0'
p20
g2
sS'model.blocktype'
p21
S'string'
p22
sS'model.dep_ut'
p23
g12
sS'exprs'
p24
g9
sS'gr_i'
p25
g12
sS'y'
p26
g12
sS'x'
p27
g2
sS'model'
p28
g4
s.