c__builtin__
set
p0
((lp1
S'x'
p2
aS'model'
p3
aS'z0'
p4
aS'typ'
p5
aS'nin'
p6
atp7
Rp8
.(dp0
S'model.dstate'
p1
S'double'
p2
sS'arg1'
p3
S'object'
p4
sS'graphics'
p5
g4
sS'it'
p6
S'string'
p7
sS'x.model'
p8
NsS'model.intyp'
p9
g2
sS'model.out'
p10
g2
sS'out'
p11
S'vector'
p12
sS'model.in2'
p13
S'matrix'
p14
sS'model.in1'
p15
g14
sS'x.graphics'
p16
g4
sS'typ'
p17
g12
sS'model.evtin'
p18
g2
sS'model.firing'
p19
g12
sS'model.sim'
p20
S'list'
p21
sS'model.evtout'
p22
g12
sS'nin'
p23
g2
sS'[this.model,graphics,ok]'
p24
g2
sS'model.out2'
p25
g2
sS'in1'
p26
g12
sS'model.rpar'
p27
g12
sS'model.outtyp'
p28
g2
sS'model.state'
p29
g12
sS'graphics.exprs'
p30
NsS'model.ipar'
p31
g12
sS'z0'
p32
g2
sS'ok'
p33
S'boolean'
p34
sS'model.blocktype'
p35
g7
sS'model.dep_ut'
p36
g12
sS'exprs'
p37
g14
sS'gr_i'
p38
g12
sS'y'
p39
g12
sS'x'
p40
g2
sS'model'
p41
g4
sS'ot'
p42
g12
s.