c__builtin__
set
p0
((lp1
S'nin'
p2
aS'exprs'
p3
aS'gr_i'
p4
aS'graphics'
p5
aS'x'
p6
aS'model'
p7
aS'z0'
p8
atp9
Rp10
.(dp0
S'model.sim'
p1
S'list'
p2
sS'model.out'
p3
S'double'
p4
sS'model.dstate'
p5
g4
sS'model.evtin'
p6
g4
sS'x.graphics'
p7
S'object'
p8
sS'arg1'
p9
g8
sS'graphics.exprs'
p10
NsS'nin'
p11
g4
sS'in1'
p12
S'matrix'
p13
sS'model.dep_ut'
p14
S'vector'
p15
sS'exprs'
p16
g13
sS'x.model'
p17
NsS'gr_i'
p18
g15
sS'z0'
p19
g4
sS'model.in'
p20
g13
sS'graphics'
p21
g8
sS'y'
p22
g15
sS'x'
p23
NsS'model'
p24
g8
sS'typ'
p25
g15
sS'model.blocktype'
p26
S'string'
p27
s.