c__builtin__
set
p0
((lp1
S'nin'
p2
aS'z0'
p3
aS'exprs'
p4
aS'gr_i'
p5
aS'graphics'
p6
aS'x'
p7
aS'model'
p8
aS'typ'
p9
atp10
Rp11
.(dp0
S'model.dstate'
p1
S'double'
p2
sS'arg1'
p3
S'object'
p4
sS'graphics'
p5
g4
sS'it'
p6
S'string'
p7
sS'x.model'
p8
NsS'model.intyp'
p9
g2
sS'model.out'
p10
g2
sS'out'
p11
S'vector'
p12
sS'model.in2'
p13
S'matrix'
p14
sS'model.in1'
p15
g14
sS'x.graphics'
p16
g4
sS'typ'
p17
g12
sS'model.evtin'
p18
g2
sS'model.firing'
p19
g12
sS'model.sim'
p20
S'list'
p21
sS'model.evtout'
p22
g12
sS'nin'
p23
g2
sS'model.out2'
p24
g2
sS'in1'
p25
g12
sS'model.rpar'
p26
g12
sS'model.outtyp'
p27
g2
sS'model.state'
p28
g12
sS'graphics.exprs'
p29
NsS'model.ipar'
p30
g12
sS'z0'
p31
g2
sS'ok'
p32
S'boolean'
p33
sS'model.blocktype'
p34
g7
sS'model.dep_ut'
p35
g12
sS'exprs'
p36
g14
sS'gr_i'
p37
g12
sS'y'
p38
g12
sS'x'
p39
g2
sS'model'
p40
g4
sS'ot'
p41
g12
s.