c__builtin__
set
p0
((lp1
S'x'
p2
aS'model'
p3
aS'z0'
p4
aS'nin'
p5
aS'graphics'
p6
atp7
Rp8
.(dp0
S'model.sim'
p1
S'list'
p2
sS'model.out'
p3
S'double'
p4
sS'model.dstate'
p5
g4
sS'model.evtin'
p6
g4
sS'x.graphics'
p7
S'object'
p8
sS'z0'
p9
g4
sS'graphics'
p10
g8
sS'nin'
p11
g4
sS'in1'
p12
S'matrix'
p13
sS'model.dep_ut'
p14
S'vector_boolean'
p15
sS'exprs'
p16
g13
sS'x.model'
p17
NsS'gr_i'
p18
S'vector'
p19
sS'model.in'
p20
g13
sS'graphics.exprs'
p21
NsS'y'
p22
g19
sS'x'
p23
g19
sS'model'
p24
g8
sS'typ'
p25
g19
sS'model.blocktype'
p26
S'string'
p27
s.