c__builtin__
set
p0
((lp1
S'x'
p2
aS'z0'
p3
aS'nin'
p4
atp5
Rp6
.(dp0
S'model.dstate'
p1
S'double'
p2
sS'arg1'
p3
S'object'
p4
sS'graphics'
p5
g4
sS'x.model'
p6
NsS'model.out'
p7
g2
sS'model.in1'
p8
S'matrix'
p9
sS'x.graphics'
p10
g4
sS'typ'
p11
S'vector'
p12
sS'model.evtin'
p13
g2
sS'model.sim'
p14
g12
sS'nin'
p15
g2
sS'in1'
p16
g9
sS'graphics.exprs'
p17
NsS'z0'
p18
g2
sS'[model,graphics,ok]'
p19
g2
sS'model.blocktype'
p20
S'string'
p21
sS'model.dep_ut'
p22
g12
sS'exprs'
p23
g9
sS'gr_i'
p24
g12
sS'y'
p25
g12
sS'x'
p26
g2
sS'model'
p27
g4
s.