c__builtin__
set
p0
((lp1
S'nin'
p2
aS'z0'
p3
aS'exprs'
p4
aS'gr_i'
p5
aS'graphics'
p6
aS'x'
p7
aS'model'
p8
aS'typ'
p9
atp10
Rp11
.(dp0
S'model.dstate'
p1
S'double'
p2
sS'arg1'
p3
S'object'
p4
sS'graphics'
p5
g4
sS'it'
p6
S'string'
p7
sS'x.model'
p8
NsS'model.out'
p9
g2
sS'out'
p10
S'vector'
p11
sS'model.in2'
p12
S'matrix'
p13
sS'model.intyp'
p14
g2
sS'x.graphics'
p15
g4
sS'typ'
p16
g11
sS'model.evtin'
p17
g2
sS'model.firing'
p18
g11
sS'model.sim'
p19
S'list'
p20
sS'model.evtout'
p21
g11
sS'nin'
p22
g2
sS'model.out2'
p23
g2
sS'in1'
p24
g11
sS'model.rpar'
p25
g11
sS'model.outtyp'
p26
g2
sS'model.state'
p27
g11
sS'model.in'
p28
g13
sS'graphics.exprs'
p29
NsS'model.ipar'
p30
g11
sS'z0'
p31
g2
sS'ok'
p32
S'boolean'
p33
sS'model.blocktype'
p34
g7
sS'model.dep_ut'
p35
g11
sS'exprs'
p36
g13
sS'gr_i'
p37
g11
sS'y'
p38
g11
sS'x'
p39
g2
sS'model'
p40
g4
sS'ot'
p41
g11
s.