c__builtin__
set
p0
((lp1
S'nin'
p2
aS'exprs'
p3
aS'gr_i'
p4
aS'graphics'
p5
aS'x'
p6
aS'model'
p7
aS'z0'
p8
atp9
Rp10
.(dp0
S'model.sim'
p1
S'list'
p2
sS'model.out'
p3
S'double'
p4
sS'model.dstate'
p5
g4
sS'model.evtin'
p6
g4
sS'x.graphics'
p7
S'object'
p8
sS'arg1'
p9
g8
sS'graphics.exprs'
p10
NsS'nin'
p11
g4
sS'in1'
p12
S'matrix'
p13
sS'model.dep_ut'
p14
S'vector_boolean'
p15
sS'exprs'
p16
g13
sS'x.model'
p17
NsS'gr_i'
p18
S'vector'
p19
sS'z0'
p20
g4
sS'model.in'
p21
g13
sS'graphics'
p22
g8
sS'y'
p23
g19
sS'x'
p24
NsS'model'
p25
g8
sS'typ'
p26
g19
sS'model.blocktype'
p27
S'string'
p28
s.