c__builtin__
set
p0
((lp1
S'stateOpen'
p2
aS'exprs'
p3
aS'gr_i'
p4
aS'graphics'
p5
aS'x'
p6
aS'model'
p7
atp8
Rp9
.(dp0
S'diagram.objs[1-1]'
p1
S'object'
p2
sS'diagram.objs[4-1].model.ipar'
p3
S'double'
p4
sS'x.model.dep_ut'
p5
S'vector_boolean'
p6
sS'diagram.objs[1-1].graphics.pout'
p7
g4
sS'x.graphics.out_style'
p8
S'string'
p9
sS'x.model'
p10
g2
sS'x.model.rpar'
p11
g4
sS'x.model.out'
p12
g4
sS'diagram.objs[3-1]'
p13
g2
sS'diagram.objs[2-1]'
p14
g2
sS'x.graphics.gr_i'
p15
S'vector'
p16
sS'x.graphics.pout'
p17
g4
sS'diagram.objs[3-1].graphics.pout'
p18
g4
sS'x.model.blocktype'
p19
g9
sS'diagram.objs[2-1].graphics.pin'
p20
g4
sS'diagram.objs[7-1]'
p21
g4
sS'diagram.objs[6-1]'
p22
g4
sS'diagram.objs[5-1]'
p23
g4
sS'x.graphics.in_implicit'
p24
g16
sS'diagram.objs[3-1].model.rpar'
p25
g4
sS'diagram.objs[4-1]'
p26
g2
sS'x.graphics.in_style'
p27
g9
sS'stateOpen'
p28
S'boolean'
p29
sS'x.graphics.out_implicit'
p30
g16
sS'diagram.objs[4-1].graphics.pout'
p31
g4
sS'diagram'
p32
g4
sS'x.graphics.pin'
p33
g4
sS'x.model.opar'
p34
S'list'
p35
sS'typ'
p36
g35
sS'x.model.sim'
p37
g9
sS'diagram.objs[4-1].graphics.pin'
p38
g16
sS'x.graphics.style'
p39
g9
sS'diagram.objs[3-1].graphics.exprs'
p40
g9
sS'x.model.in'
p41
g4
sS'x.gui'
p42
g9
sS'x.graphics.sz'
p43
g16
sS'diagram.objs[4-1].graphics.exprs'
p44
S'matrix'
p45
sS'y'
p46
g4
sS'x'
p47
g4
s.