c__builtin__
set
p0
((lp1
S'x'
p2
aS'model'
p3
aS'stateOpen'
p4
aS'graphics'
p5
atp6
Rp7
.(dp0
S'diagram.objs[1-1]'
p1
S'object'
p2
sS'diagram.objs[4-1].model.ipar'
p3
S'double'
p4
sS'x.model.dep_ut'
p5
S'vector_boolean'
p6
sS'diagram.objs[1-1].graphics.pout'
p7
g4
sS'x.graphics.out_style'
p8
S'string'
p9
sS'x.model'
p10
g2
sS'x.model.rpar'
p11
g4
sS'x.model.out'
p12
g4
sS'diagram.objs[3-1]'
p13
g2
sS'diagram.objs[2-1]'
p14
g2
sS'x.graphics.gr_i'
p15
S'vector'
p16
sS'x.graphics.pout'
p17
g4
sS'diagram.objs[3-1].graphics.pout'
p18
g4
sS'x.model.blocktype'
p19
g9
sS'diagram.objs[2-1].graphics.pin'
p20
g4
sS'diagram.objs[7-1]'
p21
g4
sS'diagram.objs[6-1]'
p22
g4
sS'diagram.objs[5-1]'
p23
g4
sS'x.graphics.in_implicit'
p24
S'vector_string'
p25
sS'diagram.objs[3-1].model.rpar'
p26
g4
sS'diagram.objs[4-1]'
p27
g2
sS'x.graphics.in_style'
p28
g9
sS'stateOpen'
p29
S'boolean'
p30
sS'x.graphics.out_implicit'
p31
g25
sS'diagram.objs[4-1].graphics.pout'
p32
g4
sS'diagram'
p33
g4
sS'x.graphics.pin'
p34
g4
sS'x.model.opar'
p35
S'list'
p36
sS'typ'
p37
g36
sS'x.model.sim'
p38
g9
sS'diagram.objs[4-1].graphics.pin'
p39
g16
sS'x.graphics.style'
p40
g9
sS'diagram.objs[3-1].graphics.exprs'
p41
g9
sS'x.model.in'
p42
g4
sS'x.gui'
p43
g9
sS'x.graphics.sz'
p44
g16
sS'diagram.objs[4-1].graphics.exprs'
p45
S'matrix'
p46
sS'y'
p47
g4
sS'x'
p48
g4
s.