c__builtin__
set
p0
((lp1
S'stateOpen'
p2
aS'exprs'
p3
aS'gr_i'
p4
aS'graphics'
p5
aS'x'
p6
aS'model'
p7
atp8
Rp9
.(dp0
S'diagram.objs[1-1]'
p1
S'object'
p2
sS'diagram.objs[4-1].model.ipar'
p3
S'double'
p4
sS'x.model.dep_ut'
p5
S'vector'
p6
sS'diagram.objs[1-1].graphics.pout'
p7
g4
sS'x.graphics.out_style'
p8
S'string'
p9
sS'x.model'
p10
g2
sS'x.model.rpar'
p11
g4
sS'x.model.out'
p12
g4
sS'diagram.objs[3-1]'
p13
g2
sS'diagram.objs[2-1]'
p14
g2
sS'x.graphics.gr_i'
p15
g6
sS'x.graphics.pout'
p16
g4
sS'diagram.objs[3-1].graphics.pout'
p17
g4
sS'x.model.blocktype'
p18
g9
sS'diagram.objs[2-1].graphics.pin'
p19
g4
sS'diagram.objs[7-1]'
p20
g4
sS'diagram.objs[6-1]'
p21
g4
sS'diagram.objs[5-1]'
p22
g4
sS'x.graphics.in_implicit'
p23
g6
sS'diagram.objs[3-1].model.rpar'
p24
g4
sS'diagram.objs[4-1]'
p25
g2
sS'x.graphics.in_style'
p26
g9
sS'stateOpen'
p27
S'boolean'
p28
sS'x.graphics.out_implicit'
p29
g6
sS'diagram.objs[4-1].graphics.pout'
p30
g4
sS'diagram'
p31
g4
sS'x.graphics.pin'
p32
g4
sS'x.model.opar'
p33
S'list'
p34
sS'typ'
p35
g34
sS'x.model.sim'
p36
g9
sS'diagram.objs[4-1].graphics.pin'
p37
g6
sS'x.graphics.style'
p38
g9
sS'diagram.objs[3-1].graphics.exprs'
p39
g9
sS'x.model.in'
p40
g4
sS'x.gui'
p41
g9
sS'x.graphics.sz'
p42
g6
sS'diagram.objs[4-1].graphics.exprs'
p43
S'matrix'
p44
sS'y'
p45
g4
sS'x'
p46
g4
s.