c__builtin__
set
p0
((lp1
S'nin'
p2
aS'exprs'
p3
aS'gr_i'
p4
aS'graphics'
p5
aS'x'
p6
aS'model'
p7
aS'z0'
p8
atp9
Rp10
.(dp0
S'arg1'
p1
S'object'
p2
sS'graphics'
p3
g2
sS'x.model'
p4
g2
sS'model.out'
p5
S'double'
p6
sS'x.graphics'
p7
g2
sS'model.firing'
p8
S'vector'
p9
sS'model.sim'
p10
S'list'
p11
sS'nin'
p12
g6
sS'i0'
p13
g6
sS'in1'
p14
S'matrix'
p15
sS'model.in'
p16
g15
sS'graphics.exprs'
p17
NsS'model.ipar'
p18
g6
sS'typ'
p19
g9
sS'model.blocktype'
p20
S'string'
p21
sS'model.dep_ut'
p22
g9
sS'exprs'
p23
g15
sS'gr_i'
p24
g9
sS'ipar'
p25
NsS'y'
p26
g9
sS'x'
p27
g6
sS'model'
p28
g2
s.