c__builtin__
set
p0
((lp1
S'x'
p2
aS'nzz'
p3
aS'rule'
p4
aS'thra'
p5
atp6
Rp7
.(dp0
S'arg1'
p1
S'object'
p2
sS'graphics'
p3
g2
sS'typ'
p4
S'vector'
p5
sS'rpar'
p6
S'double'
p7
sS'this.x.model'
p8
NsS'model.out'
p9
g7
sS'model.in1'
p10
S'matrix'
p11
sS'exprs'
p12
g11
sS'model.nzcross'
p13
NsS'this.x'
p14
g7
sS'model.sim'
p15
g5
sS'model.nmode'
p16
g7
sS'model.rpar'
p17
g7
sS'in1'
p18
g11
sS'graphics.exprs'
p19
NsS'model.ipar'
p20
g5
sS'this.x.graphics'
p21
g2
sS'model.blocktype'
p22
S'string'
p23
sS'this.nzz'
p24
g7
sS'model.dep_ut'
p25
g5
sS'this.rule'
p26
g7
sS'gr_i'
p27
g5
sS'ipar'
p28
g5
sS'y'
p29
g5
sS'model'
p30
g2
s.