c__builtin__
set
p0
((lp1
S'nzz'
p2
aS'rule'
p3
aS'thra'
p4
aS'graphics'
p5
aS'x'
p6
aS'model'
p7
atp8
Rp9
.(dp0
S'graphics'
p1
S'object'
p2
sS'rpar'
p3
S'double'
p4
sS'x.model'
p5
NsS'model.dep_ut'
p6
S'vector_boolean'
p7
sS'model.out'
p8
g4
sS'x.graphics'
p9
g2
sS'typ'
p10
S'vector'
p11
sS'model.sim'
p12
S'list'
p13
sS'model.nmode'
p14
g4
sS'model.rpar'
p15
g4
sS'in1'
p16
S'matrix'
p17
sS'model.in'
p18
g17
sS'graphics.exprs'
p19
NsS'model.ipar'
p20
g11
sS'model.nzcross'
p21
g4
sS'model.blocktype'
p22
S'string'
p23
sS'nzz'
p24
g4
sS'rule'
p25
g4
sS'exprs'
p26
g17
sS'gr_i'
p27
g11
sS'ipar'
p28
g11
sS'y'
p29
g11
sS'x'
p30
g11
sS'model'
p31
g2
s.