c__builtin__
set
p0
((lp1
S'x'
p2
aS'ot'
p3
aS'nzz'
p4
aS'rule'
p5
aS'thra'
p6
atp7
Rp8
.c__builtin__
set
p0
((lp1
tp2
Rp3
.c__builtin__
set
p0
((lp1
tp2
Rp3
.c__builtin__
set
p0
((lp1
tp2
Rp3
.c__builtin__
set
p0
((lp1
tp2
Rp3
.c__builtin__
set
p0
((lp1
tp2
Rp3
.