c__builtin__
set
p0
((lp1
S'nzz'
p2
aS'rule'
p3
aS'thra'
p4
aS'exprs'
p5
aS'gr_i'
p6
aS'graphics'
p7
aS'x'
p8
aS'model'
p9
aS'ot'
p10
atp11
Rp12
.(dp0
S'arg1'
p1
S'object'
p2
sS'graphics'
p3
g2
sS'rpar'
p4
S'double'
p5
sS'x.model'
p6
g2
sS'model.dep_ut'
p7
S'vector'
p8
sS'model.out'
p9
g5
sS'it[3-1]'
p10
NsS'out'
p11
g8
sS'model.in2'
p12
S'matrix'
p13
sS'model.intyp'
p14
g5
sS'x.graphics'
p15
g2
sS'it[2-1]'
p16
g5
sS'typ'
p17
g8
sS'model.sim'
p18
S'list'
p19
sS'model.out2'
p20
g5
sS'model.nmode'
p21
g5
sS'model.rpar'
p22
g5
sS'in1'
p23
g8
sS'model.outtyp'
p24
g5
sS'model.in'
p25
g13
sS'graphics.exprs'
p26
NsS'model.ipar'
p27
g8
sS'model.nzcross'
p28
g5
sS'ok'
p29
S'boolean'
p30
sS'model.blocktype'
p31
S'string'
p32
sS'nzz'
p33
g5
sS'rule'
p34
g5
sS'exprs'
p35
g13
sS'gr_i'
p36
g8
sS'ipar'
p37
g8
sS'y'
p38
g8
sS'x'
p39
NsS'model'
p40
g2
sS'it[1-1]'
p41
Ns.