c__builtin__
set
p0
((lp1
S'x'
p2
aS'model'
p3
aS'z0'
p4
aS'nin'
p5
atp6
Rp7
.(dp0
S'arg1'
p1
S'object'
p2
sS'graphics'
p3
g2
sS'x.model'
p4
g2
sS'model.out'
p5
S'double'
p6
sS'model.in1'
p7
S'matrix'
p8
sS'x.graphics'
p9
g2
sS'model.firing'
p10
S'vector'
p11
sS'model.sim'
p12
g11
sS'nin'
p13
g6
sS'i0'
p14
g6
sS'in1'
p15
g8
sS'graphics.exprs'
p16
NsS'model.ipar'
p17
g6
sS'typ'
p18
g11
sS'[model,graphics,ok]'
p19
g6
sS'model.blocktype'
p20
S'string'
p21
sS'model.dep_ut'
p22
g11
sS'exprs'
p23
g8
sS'gr_i'
p24
g11
sS'ipar'
p25
NsS'y'
p26
g11
sS'x'
p27
g6
sS'model'
p28
g2
s.