c__builtin__
set
p0
((lp1
S'nzz'
p2
aS'rule'
p3
aS'thra'
p4
aS'graphics'
p5
aS'x'
p6
aS'model'
p7
aS'ot'
p8
atp9
Rp10
.(dp0
S'arg1'
p1
S'object'
p2
sS'graphics'
p3
g2
sS'rpar'
p4
S'double'
p5
sS'x.model'
p6
g2
sS'model.dep_ut'
p7
S'vector_boolean'
p8
sS'model.out'
p9
g5
sS'it[3-1]'
p10
NsS'out'
p11
S'vector'
p12
sS'model.in2'
p13
S'matrix'
p14
sS'model.intyp'
p15
g5
sS'x.graphics'
p16
g2
sS'it[2-1]'
p17
g5
sS'typ'
p18
g12
sS'model.sim'
p19
S'list'
p20
sS'model.out2'
p21
g5
sS'model.nmode'
p22
g5
sS'model.rpar'
p23
g5
sS'in1'
p24
g12
sS'model.outtyp'
p25
g5
sS'model.in'
p26
g14
sS'graphics.exprs'
p27
NsS'model.ipar'
p28
g12
sS'model.nzcross'
p29
g5
sS'ok'
p30
S'boolean'
p31
sS'model.blocktype'
p32
S'string'
p33
sS'nzz'
p34
g5
sS'rule'
p35
g5
sS'exprs'
p36
g14
sS'gr_i'
p37
g12
sS'ipar'
p38
g12
sS'y'
p39
g12
sS'x'
p40
NsS'model'
p41
g2
sS'it[1-1]'
p42
Ns.