c__builtin__
set
p0
((lp1
S'x'
p2
aS'ot'
p3
aS'nzz'
p4
aS'rule'
p5
aS'thra'
p6
atp7
Rp8
.(dp0
S'this.x.graphics'
p1
S'object'
p2
sS'arg1'
p3
g2
sS'graphics'
p4
g2
sS'rpar'
p5
S'double'
p6
sS'model.intyp'
p7
g6
sS'this.x.model'
p8
g2
sS'model.out'
p9
g6
sS'it[3-1]'
p10
NsS'out'
p11
S'vector'
p12
sS'model.in2'
p13
S'matrix'
p14
sS'model.in1'
p15
g14
sS'exprs'
p16
g14
sS'it[2-1]'
p17
g6
sS'typ'
p18
g12
sS'this.x'
p19
g6
sS'model.sim'
p20
g12
sS'model.out2'
p21
g6
sS'model.nmode'
p22
g6
sS'model.rpar'
p23
g6
sS'in1'
p24
g12
sS'model.outtyp'
p25
g6
sS'graphics.exprs'
p26
NsS'model.ipar'
p27
g12
sS'model.nzcross'
p28
NsS'[model,graphics,ok]'
p29
g6
sS'ok'
p30
S'boolean'
p31
sS'model.blocktype'
p32
S'string'
p33
sS'this.nzz'
p34
g6
sS'model.dep_ut'
p35
g12
sS'this.rule'
p36
g6
sS'gr_i'
p37
g12
sS'ipar'
p38
g12
sS'y'
p39
g12
sS'model'
p40
g6
sS'it[1-1]'
p41
Ns.