c__builtin__
set
p0
((lp1
S'nzz'
p2
aS'rule'
p3
aS'thra'
p4
aS'exprs'
p5
aS'gr_i'
p6
aS'graphics'
p7
aS'x'
p8
aS'model'
p9
atp10
Rp11
.(dp0
S'arg1'
p1
S'object'
p2
sS'graphics'
p3
g2
sS'rpar'
p4
S'double'
p5
sS'x.model'
p6
NsS'model.dep_ut'
p7
S'vector_boolean'
p8
sS'model.out'
p9
g5
sS'x.graphics'
p10
g2
sS'typ'
p11
S'vector'
p12
sS'model.sim'
p13
S'list'
p14
sS'model.nmode'
p15
g5
sS'model.rpar'
p16
g5
sS'in1'
p17
S'matrix'
p18
sS'model.in'
p19
g18
sS'graphics.exprs'
p20
NsS'model.ipar'
p21
g12
sS'model.nzcross'
p22
g5
sS'model.blocktype'
p23
S'string'
p24
sS'nzz'
p25
g5
sS'rule'
p26
g5
sS'exprs'
p27
g18
sS'gr_i'
p28
g12
sS'ipar'
p29
g12
sS'y'
p30
g12
sS'x'
p31
NsS'model'
p32
g2
s.