c__builtin__
set
p0
((lp1
S'x'
p2
aS'model'
p3
aS'z0'
p4
aS'nin'
p5
aS'graphics'
p6
atp7
Rp8
.(dp0
S'model.sim'
p1
S'list'
p2
sS'model.out'
p3
S'double'
p4
sS'nin'
p5
g4
sS'model.in'
p6
S'matrix'
p7
sS'x.graphics'
p8
S'object'
p9
sS'i0'
p10
g4
sS'graphics.exprs'
p11
NsS'in1'
p12
g7
sS'model.dep_ut'
p13
S'vector_boolean'
p14
sS'exprs'
p15
g7
sS'x.model'
p16
g9
sS'gr_i'
p17
S'vector'
p18
sS'ipar'
p19
NsS'graphics'
p20
g9
sS'y'
p21
g18
sS'x'
p22
g18
sS'model'
p23
g9
sS'model.ipar'
p24
g4
sS'typ'
p25
g18
sS'model.firing'
p26
g18
sS'model.blocktype'
p27
S'string'
p28
s.