c__builtin__
set
p0
((lp1
S'x'
p2
aS'model'
p3
aS'z0'
p4
aS'nin'
p5
aS'graphics'
p6
atp7
Rp8
.(dp0
S'arg1'
p1
S'object'
p2
sS'graphics'
p3
g2
sS'x.model'
p4
g2
sS'model.out'
p5
S'double'
p6
sS'x.graphics'
p7
g2
sS'model.firing'
p8
S'vector'
p9
sS'model.sim'
p10
S'list'
p11
sS'nin'
p12
g6
sS'i0'
p13
g6
sS'in1'
p14
S'matrix'
p15
sS'model.in'
p16
g15
sS'graphics.exprs'
p17
NsS'model.ipar'
p18
g6
sS'typ'
p19
g9
sS'model.blocktype'
p20
S'string'
p21
sS'model.dep_ut'
p22
S'vector_boolean'
p23
sS'exprs'
p24
g15
sS'gr_i'
p25
g9
sS'ipar'
p26
NsS'y'
p27
g9
sS'x'
p28
NsS'model'
p29
g2
s.