c__builtin__
set
p0
((lp1
S'x'
p2
aS'model'
p3
aS'nzz'
p4
aS'rule'
p5
aS'thra'
p6
atp7
Rp8
.(dp0
S'arg1'
p1
S'object'
p2
sS'graphics'
p3
g2
sS'rpar'
p4
S'double'
p5
sS'x.model'
p6
NsS'model.dep_ut'
p7
S'vector'
p8
sS'model.out'
p9
g5
sS'model.in1'
p10
S'matrix'
p11
sS'x.graphics'
p12
g2
sS'typ'
p13
g8
sS'model.sim'
p14
g8
sS'model.nmode'
p15
g5
sS'model.rpar'
p16
g5
sS'in1'
p17
g11
sS'graphics.exprs'
p18
NsS'model.ipar'
p19
g8
sS'model.nzcross'
p20
g5
sS'model.blocktype'
p21
S'string'
p22
sS'nzz'
p23
g5
sS'rule'
p24
g5
sS'exprs'
p25
g11
sS'gr_i'
p26
g8
sS'ipar'
p27
g8
sS'y'
p28
g8
sS'x'
p29
g5
sS'model'
p30
g2
s.