c__builtin__
set
p0
((lp1
S'nzz'
p2
aS'rule'
p3
aS'thra'
p4
aS'exprs'
p5
aS'gr_i'
p6
aS'graphics'
p7
aS'x'
p8
aS'model'
p9
atp10
Rp11
.(dp0
S'arg1'
p1
S'object'
p2
sS'graphics'
p3
g2
sS'rpar'
p4
S'double'
p5
sS'x.model'
p6
NsS'model.dep_ut'
p7
S'vector'
p8
sS'model.out'
p9
g5
sS'x.graphics'
p10
g2
sS'typ'
p11
g8
sS'model.sim'
p12
S'list'
p13
sS'model.nmode'
p14
g5
sS'model.rpar'
p15
g5
sS'in1'
p16
S'matrix'
p17
sS'model.in'
p18
g17
sS'graphics.exprs'
p19
NsS'model.ipar'
p20
g8
sS'model.nzcross'
p21
g5
sS'model.blocktype'
p22
S'string'
p23
sS'nzz'
p24
g5
sS'rule'
p25
g5
sS'exprs'
p26
g17
sS'gr_i'
p27
g8
sS'ipar'
p28
g8
sS'y'
p29
g8
sS'x'
p30
NsS'model'
p31
g2
s.