c__builtin__
set
p0
((lp1
S'x'
p2
aS'z0'
p3
aS'nin'
p4
atp5
Rp6
.(dp0
S'arg1'
p1
S'object'
p2
sS'graphics'
p3
g2
sS'this.x.model'
p4
g2
sS'model.out'
p5
S'double'
p6
sS'model.in1'
p7
S'matrix'
p8
sS'typ'
p9
S'vector'
p10
sS'model.firing'
p11
g10
sS'this.x'
p12
g6
sS'model.sim'
p13
g10
sS'i0'
p14
g6
sS'in1'
p15
g8
sS'graphics.exprs'
p16
NsS'model.ipar'
p17
g6
sS'this.x.graphics'
p18
g2
sS'[model,graphics,ok]'
p19
g6
sS'model.blocktype'
p20
S'string'
p21
sS'this.nin'
p22
g6
sS'model.dep_ut'
p23
g10
sS'exprs'
p24
g8
sS'gr_i'
p25
g10
sS'ipar'
p26
NsS'y'
p27
g10
sS'model'
p28
g2
s.