c__builtin__
set
p0
((lp1
S'x'
p2
aS'model'
p3
aS'nzz'
p4
aS'rule'
p5
aS'thra'
p6
atp7
Rp8
.(dp0
S'arg1'
p1
S'object'
p2
sS'graphics'
p3
g2
sS'rpar'
p4
S'double'
p5
sS'x.model'
p6
NsS'model.dep_ut'
p7
S'vector'
p8
sS'model.out'
p9
g5
sS'model.in1'
p10
S'matrix'
p11
sS'x.graphics'
p12
g2
sS'typ'
p13
g8
sS'model.sim'
p14
S'list'
p15
sS'model.nmode'
p16
g5
sS'model.rpar'
p17
g5
sS'in1'
p18
g11
sS'graphics.exprs'
p19
NsS'model.ipar'
p20
g8
sS'model.nzcross'
p21
g5
sS'model.blocktype'
p22
S'string'
p23
sS'nzz'
p24
g5
sS'rule'
p25
g5
sS'exprs'
p26
g11
sS'gr_i'
p27
g8
sS'ipar'
p28
g8
sS'y'
p29
g8
sS'x'
p30
g5
sS'model'
p31
g2
s.