c__builtin__
set
p0
((lp1
S'nzz'
p2
aS'rule'
p3
aS'thra'
p4
aS'x'
p5
aS'model'
p6
aS'ot'
p7
atp8
Rp9
.(dp0
S'arg1'
p1
S'object'
p2
sS'graphics'
p3
g2
sS'rpar'
p4
S'double'
p5
sS'x.model'
p6
g2
sS'model.intyp'
p7
g5
sS'model.dep_ut'
p8
S'vector'
p9
sS'model.out'
p10
g5
sS'it[3-1]'
p11
NsS'out'
p12
g9
sS'model.in2'
p13
S'matrix'
p14
sS'model.in1'
p15
g14
sS'x.graphics'
p16
g2
sS'it[2-1]'
p17
g5
sS'typ'
p18
g9
sS'model.sim'
p19
S'list'
p20
sS'[this.model,graphics,ok]'
p21
g5
sS'model.out2'
p22
g5
sS'model.nmode'
p23
g5
sS'model.rpar'
p24
g5
sS'in1'
p25
g9
sS'model.outtyp'
p26
g5
sS'graphics.exprs'
p27
NsS'model.ipar'
p28
g9
sS'model.nzcross'
p29
g5
sS'ok'
p30
S'boolean'
p31
sS'model.blocktype'
p32
S'string'
p33
sS'nzz'
p34
g5
sS'rule'
p35
g5
sS'exprs'
p36
g14
sS'gr_i'
p37
g9
sS'ipar'
p38
g9
sS'y'
p39
g9
sS'x'
p40
g5
sS'model'
p41
g2
sS'it[1-1]'
p42
Ns.