c__builtin__
set
p0
((lp1
S'nzz'
p2
aS'rule'
p3
aS'thra'
p4
aS'graphics'
p5
aS'x'
p6
aS'model'
p7
aS'ot'
p8
atp9
Rp10
.(dp0
S'graphics'
p1
S'object'
p2
sS'rpar'
p3
S'double'
p4
sS'x.model'
p5
g2
sS'model.dep_ut'
p6
S'vector_boolean'
p7
sS'model.out'
p8
g4
sS'it[3-1]'
p9
NsS'out'
p10
S'vector'
p11
sS'model.in2'
p12
S'matrix'
p13
sS'model.intyp'
p14
g4
sS'x.graphics'
p15
g2
sS'it[2-1]'
p16
g4
sS'typ'
p17
g11
sS'model.sim'
p18
S'list'
p19
sS'model.out2'
p20
g4
sS'model.nmode'
p21
g4
sS'model.rpar'
p22
g4
sS'in1'
p23
g11
sS'model.outtyp'
p24
g4
sS'model.in'
p25
g13
sS'graphics.exprs'
p26
NsS'model.ipar'
p27
g11
sS'model.nzcross'
p28
g4
sS'ok'
p29
S'boolean'
p30
sS'model.blocktype'
p31
S'string'
p32
sS'nzz'
p33
g4
sS'rule'
p34
g4
sS'exprs'
p35
g13
sS'gr_i'
p36
g11
sS'ipar'
p37
g11
sS'y'
p38
g11
sS'x'
p39
g11
sS'model'
p40
g2
sS'it[1-1]'
p41
Ns.