c__builtin__
set
p0
((lp1
S'nzz'
p2
aS'rule'
p3
aS'thra'
p4
aS'graphics'
p5
aS'x'
p6
aS'model'
p7
aS'ot'
p8
atp9
Rp10
.(dp0
S'arg1'
p1
S'object'
p2
sS'graphics'
p3
g2
sS'rpar'
p4
S'double'
p5
sS'x.model'
p6
g2
sS'model.intyp'
p7
g5
sS'model.dep_ut'
p8
S'vector'
p9
sS'model.out'
p10
g5
sS'it[3-1]'
p11
NsS'out'
p12
g9
sS'model.in2'
p13
S'matrix'
p14
sS'model.in1'
p15
g14
sS'x.graphics'
p16
g2
sS'it[2-1]'
p17
g5
sS'typ'
p18
g9
sS'model.sim'
p19
S'list'
p20
sS'model.out2'
p21
g5
sS'model.nmode'
p22
g5
sS'model.rpar'
p23
g5
sS'in1'
p24
g9
sS'model.outtyp'
p25
g5
sS'graphics.exprs'
p26
NsS'model.ipar'
p27
g9
sS'model.nzcross'
p28
g5
sS'ok'
p29
S'boolean'
p30
sS'model.blocktype'
p31
S'string'
p32
sS'nzz'
p33
g5
sS'rule'
p34
g5
sS'exprs'
p35
g14
sS'gr_i'
p36
g9
sS'ipar'
p37
g9
sS'y'
p38
g9
sS'x'
p39
g5
sS'model'
p40
g2
sS'it[1-1]'
p41
Ns.