c__builtin__
set
p0
((lp1
S'prt'
p2
aS'x'
p3
aS'model'
p4
aS'graphics'
p5
atp6
Rp7
.(dp0
S'model.sim'
p1
S'string'
p2
sS'model.evtout'
p3
S'double'
p4
sS'model.blocktype'
p5
g2
sS'prt'
p6
g4
sS'graphics.exprs'
p7
g4
sS'model.dep_ut'
p8
S'vector_boolean'
p9
sS'exprs'
p10
g2
sS'x.model'
p11
NsS'gr_i'
p12
S'vector'
p13
sS'graphics'
p14
S'object'
p15
sS'y'
p16
g13
sS'x'
p17
g13
sS'model'
p18
g15
sS'model.ipar'
p19
g4
sS'typ'
p20
g13
sS'x.graphics'
p21
g15
sS'model.firing'
p22
g4
s.