c__builtin__
set
p0
((lp1
S'x'
p2
aS'prt'
p3
atp4
Rp5
.(dp0
S'this.x'
p1
S'double'
p2
sS'model.sim'
p3
S'string'
p4
sS'model.evtout'
p5
g2
sS'model.blocktype'
p6
g4
sS'this.x.graphics'
p7
S'object'
p8
sS'arg1'
p9
g8
sS'graphics.exprs'
p10
g2
sS'model.dep_ut'
p11
S'vector'
p12
sS'this.x.model'
p13
NsS'exprs'
p14
g4
sS'this.prt'
p15
g2
sS'graphics'
p16
g8
sS'y'
p17
g12
sS'model'
p18
g2
sS'model.ipar'
p19
NsS'typ'
p20
g12
sS'model.firing'
p21
g2
s.