c__builtin__
set
p0
((lp1
S'exprs'
p2
aS'prt'
p3
aS'gr_i'
p4
aS'graphics'
p5
aS'x'
p6
aS'model'
p7
atp8
Rp9
.(dp0
S'model.sim'
p1
S'string'
p2
sS'model.evtout'
p3
S'double'
p4
sS'model.blocktype'
p5
g2
sS'prt'
p6
g4
sS'arg1'
p7
S'object'
p8
sS'graphics.exprs'
p9
g4
sS'model.dep_ut'
p10
S'vector'
p11
sS'exprs'
p12
g2
sS'x.model'
p13
NsS'gr_i'
p14
g11
sS'graphics'
p15
g8
sS'y'
p16
g11
sS'x'
p17
NsS'model'
p18
g8
sS'model.ipar'
p19
g4
sS'typ'
p20
g11
sS'x.graphics'
p21
g8
sS'model.firing'
p22
g4
s.