c__builtin__
set
p0
((lp1
S'prt'
p2
aS'x'
p3
aS'model'
p4
aS'graphics'
p5
atp6
Rp7
.(dp0
S'model.sim'
p1
S'string'
p2
sS'model.evtout'
p3
S'double'
p4
sS'model.blocktype'
p5
g2
sS'prt'
p6
g4
sS'graphics.exprs'
p7
g4
sS'model.dep_ut'
p8
S'vector_boolean'
p9
sS'exprs'
p10
g2
sS'x.model'
p11
NsS'graphics'
p12
S'object'
p13
sS'y'
p14
S'vector'
p15
sS'x'
p16
g15
sS'model'
p17
g13
sS'model.ipar'
p18
g4
sS'typ'
p19
g15
sS'x.graphics'
p20
g13
sS'model.firing'
p21
g4
s.