c__builtin__
set
p0
((lp1
S'exprs'
p2
aS'prt'
p3
aS'gr_i'
p4
aS'graphics'
p5
aS'x'
p6
aS'model'
p7
atp8
Rp9
.(dp0
S'model.sim'
p1
S'string'
p2
sS'model.evtout'
p3
S'double'
p4
sS'model.blocktype'
p5
g2
sS'prt'
p6
g4
sS'arg1'
p7
S'object'
p8
sS'graphics.exprs'
p9
g4
sS'model.dep_ut'
p10
S'vector'
p11
sS'exprs'
p12
g2
sS'x.model'
p13
NsS'graphics'
p14
g8
sS'y'
p15
g11
sS'x'
p16
g4
sS'model'
p17
g8
sS'model.ipar'
p18
g4
sS'typ'
p19
g11
sS'x.graphics'
p20
g8
sS'model.firing'
p21
g4
s.