c__builtin__
set
p0
((lp1
S'prt'
p2
aS'x'
p3
aS'model'
p4
aS'graphics'
p5
atp6
Rp7
.(dp0
S'model.sim'
p1
S'string'
p2
sS'model.evtout'
p3
S'double'
p4
sS'model.blocktype'
p5
g2
sS'prt'
p6
g4
sS'arg1'
p7
S'object'
p8
sS'graphics.exprs'
p9
g4
sS'model.dep_ut'
p10
S'vector_boolean'
p11
sS'exprs'
p12
g2
sS'x.model'
p13
NsS'gr_i'
p14
S'vector'
p15
sS'graphics'
p16
g8
sS'y'
p17
g15
sS'x'
p18
NsS'model'
p19
g8
sS'model.ipar'
p20
g4
sS'typ'
p21
g15
sS'x.graphics'
p22
g8
sS'model.firing'
p23
g4
s.