c__builtin__
set
p0
((lp1
S'x'
p2
aS'dt'
p3
aS'exprs0'
p4
aS't0'
p5
atp6
Rp7
.(dp0
S'diagram.objs[1-1]'
p1
S'object'
p2
sS'output_port.graphics.exprs'
p3
S'string'
p4
sS'xx.model'
p5
g2
sS'this.x.model.rpar'
p6
S'double'
p7
sS'arg1'
p8
g2
sS'output_port.graphics.flip'
p9
S'boolean'
p10
sS'split.graphics.peout'
p11
S'matrix'
p12
sS'xx.graphics'
p13
g2
sS'xx'
p14
g2
sS'o'
p15
g2
sS'evtdly.graphics.pein'
p16
g7
sS'evtdly.graphics.sz'
p17
S'vector'
p18
sS'output_port.graphics.pein'
p19
g7
sS't0_old'
p20
NsS'this.x.model.firing'
p21
g10
sS'output_port.model.ipar'
p22
g7
sS'xx.graphics.exprs'
p23
NsS'evtdly.model.rpar'
p24
g12
sS'newpar[size(newpar)+1-1]'
p25
NsS'diagram.objs[6-1]'
p26
g7
sS'split'
p27
g2
sS'this.x.model.sim'
p28
g4
sS'diagram.objs[3-1]'
p29
g7
sS'this.x.graphics.sz'
p30
g18
sS'model.firing'
p31
NsS'diagram.objs[5-1]'
p32
g7
sS'this.x'
p33
g7
sS'evtdly.graphics.flip'
p34
g10
sS'this.x.graphics.peout'
p35
g7
sS'output_port'
p36
g2
sS'newpar'
p37
g18
sS'diagram.objs[4-1]'
p38
g2
sS'this.x.gui'
p39
g4
sS'this.x.model.evtout'
p40
g7
sS'evtdly'
p41
g7
sS'model.rpar'
p42
g12
sS'model_n'
p43
g2
sS'diagram'
p44
g7
sS'dt_old'
p45
g7
sS'this.x.model.dep_ut'
p46
g18
sS'output_port.graphics.sz'
p47
g18
sS'this.x.model.blocktype'
p48
g4
sS'path'
p49
NsS'evtdly.graphics.exprs'
p50
g12
sS'typ'
p51
g18
sS'needcompile'
p52
g7
sS'evtdly.graphics.peout'
p53
g7
sS'arg1.model'
p54
g2
sS'ok'
p55
g10
sS'evtdly.model.firing'
p56
g7
sS'diagram.objs[2-1]'
p57
g7
sS'evtdly.graphics.orig'
p58
g18
sS'arg1.model.rpar.objs[path-1]'
p59
g2
sS'exprs'
p60
NsS'gr_i'
p61
g18
sS'output_port.graphics.orig'
p62
g18
sS'y'
p63
g7
sS'this.x.graphics.gr_i'
p64
g18
sS'model'
p65
g2
sS'split.graphics.pein'
p66
g7
sS'arg1.model.rpar'
p67
g2
sS'split.graphics.orig'
p68
g12
s.