c__builtin__
set
p0
((lp1
S'x'
p2
aS'model'
p3
aS'dt'
p4
aS't0'
p5
aS'graphics'
p6
atp7
Rp8
.(dp0
S'diagram.objs[1-1]'
p1
S'object'
p2
sS'output_port.graphics.exprs'
p3
S'string'
p4
sS'xx.model'
p5
g2
sS'output_port'
p6
g2
sS'output_port.graphics.flip'
p7
S'boolean'
p8
sS'split.graphics.peout'
p9
S'matrix'
p10
sS'xx.graphics'
p11
g2
sS'xx'
p12
g2
sS'evtdly.graphics.orig'
p13
S'vector'
p14
sS'x.model.rpar'
p15
S'double'
p16
sS'x.model.evtout'
p17
g16
sS'evtdly.graphics.pein'
p18
g16
sS'evtdly.graphics.sz'
p19
g14
sS'output_port.graphics.pein'
p20
g16
sS't0_old'
p21
NsS'x.graphics.gr_i'
p22
g14
sS'diagram.objs[4-1]'
p23
g2
sS'x.model.firing'
p24
g8
sS'output_port.model.ipar'
p25
g16
sS'xx.graphics.exprs'
p26
NsS'x.model.blocktype'
p27
g4
sS'evtdly.model.rpar'
p28
g16
sS'newpar[size(newpar)+1-1]'
p29
NsS'diagram.objs[6-1]'
p30
g16
sS'split'
p31
g2
sS'diagram.objs[3-1]'
p32
g16
sS'model.firing'
p33
NsS'diagram.objs[5-1]'
p34
g16
sS'evtdly.graphics.flip'
p35
g8
sS'newpar'
p36
S'list'
p37
sS'model.rpar.objs[path-1]'
p38
g2
sS'x.model.dep_ut'
p39
S'vector_boolean'
p40
sS'evtdly'
p41
g2
sS'model.rpar'
p42
NsS'model_n'
p43
g2
sS'diagram'
p44
g16
sS'dt_old'
p45
g2
sS'output_port.graphics.sz'
p46
g14
sS'x.graphics.peout'
p47
g16
sS'path'
p48
NsS'evtdly.graphics.exprs'
p49
g10
sS'typ'
p50
g37
sS'x.model.sim'
p51
g4
sS'needcompile'
p52
g16
sS'evtdly.graphics.peout'
p53
g16
sS'ok'
p54
g8
sS'evtdly.model.firing'
p55
g16
sS'diagram.objs[2-1]'
p56
g2
sS'x.gui'
p57
g4
sS'o'
p58
g2
sS'x.graphics.sz'
p59
g14
sS'exprs'
p60
NsS'gr_i'
p61
g14
sS'output_port.graphics.orig'
p62
g14
sS'y'
p63
g16
sS'x'
p64
g16
sS'model'
p65
g2
sS'split.graphics.pein'
p66
g16
sS'split.graphics.orig'
p67
g10
s.