c__builtin__
set
p0
((lp1
S'exprs0'
p2
aS't0'
p3
aS'exprs'
p4
aS'gr_i'
p5
aS'graphics'
p6
aS'x'
p7
aS'model'
p8
aS'dt'
p9
atp10
Rp11
.(dp0
S'diagram.objs[1-1]'
p1
S'object'
p2
sS'output_port.graphics.exprs'
p3
S'string'
p4
sS'xx.model'
p5
g2
sS'arg1'
p6
g2
sS'output_port.graphics.flip'
p7
S'boolean'
p8
sS'split.graphics.peout'
p9
S'matrix'
p10
sS'xx.graphics'
p11
g2
sS'xx'
p12
g2
sS'o'
p13
g2
sS'x.model.rpar'
p14
S'double'
p15
sS'x.model.evtout'
p16
g15
sS'evtdly.graphics.pein'
p17
g15
sS'evtdly.graphics.sz'
p18
S'vector'
p19
sS'output_port.graphics.pein'
p20
g15
sS't0_old'
p21
NsS'x.graphics.gr_i'
p22
g19
sS'x.model.firing'
p23
g8
sS'output_port.model.ipar'
p24
g15
sS'xx.graphics.exprs'
p25
NsS'x.model.blocktype'
p26
g4
sS'evtdly.model.rpar'
p27
g15
sS'newpar[size(newpar)+1-1]'
p28
NsS'diagram.objs[6-1]'
p29
g15
sS'split'
p30
g2
sS'diagram.objs[3-1]'
p31
g15
sS'model.firing'
p32
NsS'diagram.objs[5-1]'
p33
g15
sS'evtdly.graphics.flip'
p34
g8
sS'output_port'
p35
g2
sS'newpar'
p36
S'list'
p37
sS'diagram.objs[4-1]'
p38
g2
sS'x.model.dep_ut'
p39
g19
sS'evtdly'
p40
g2
sS'model.rpar'
p41
NsS'model_n'
p42
g2
sS'diagram'
p43
g15
sS'dt_old'
p44
NsS'output_port.graphics.sz'
p45
g19
sS'x.graphics.peout'
p46
g15
sS'path'
p47
NsS'evtdly.graphics.exprs'
p48
g10
sS'typ'
p49
g37
sS'x.model.sim'
p50
g4
sS'needcompile'
p51
g15
sS'evtdly.graphics.peout'
p52
g15
sS'arg1.model'
p53
g2
sS'ok'
p54
g8
sS'evtdly.model.firing'
p55
g15
sS'diagram.objs[2-1]'
p56
g2
sS'evtdly.graphics.orig'
p57
g19
sS'x.gui'
p58
g4
sS'arg1.model.rpar.objs[path-1]'
p59
g2
sS'x.graphics.sz'
p60
g19
sS'exprs'
p61
NsS'gr_i'
p62
g19
sS'output_port.graphics.orig'
p63
g19
sS'y'
p64
g15
sS'x'
p65
g15
sS'model'
p66
g2
sS'split.graphics.pein'
p67
g15
sS'arg1.model.rpar'
p68
g2
sS'split.graphics.orig'
p69
g10
s.