c__builtin__
set
p0
((lp1
S'x'
p2
aS'dt'
p3
aS'exprs0'
p4
aS't0'
p5
atp6
Rp7
.c__builtin__
set
p0
((lp1
tp2
Rp3
.c__builtin__
set
p0
((lp1
tp2
Rp3
.c__builtin__
set
p0
((lp1
tp2
Rp3
.c__builtin__
set
p0
((lp1
tp2
Rp3
.c__builtin__
set
p0
((lp1
tp2
Rp3
.