c__builtin__
set
p0
((lp1
S'exprs0'
p2
aS't0'
p3
aS'graphics'
p4
aS'x'
p5
aS'model'
p6
aS'dt'
p7
atp8
Rp9
.(dp0
S'diagram.objs[1-1]'
p1
S'object'
p2
sS'output_port.graphics.exprs'
p3
S'string'
p4
sS'xx.model'
p5
g2
sS'arg1'
p6
g2
sS'output_port.graphics.flip'
p7
S'boolean'
p8
sS'split.graphics.peout'
p9
S'matrix'
p10
sS'xx.graphics'
p11
g2
sS'xx'
p12
g2
sS'o'
p13
g2
sS'x.model.rpar'
p14
S'double'
p15
sS'x.model.evtout'
p16
g15
sS'evtdly.graphics.pein'
p17
g15
sS'evtdly.graphics.sz'
p18
S'vector'
p19
sS'output_port.graphics.pein'
p20
g15
sS't0_old'
p21
NsS'x.graphics.gr_i'
p22
g19
sS'x.model.firing'
p23
g8
sS'output_port.model.ipar'
p24
g15
sS'xx.graphics.exprs'
p25
NsS'x.model.blocktype'
p26
g4
sS'evtdly.model.rpar'
p27
g15
sS'newpar[size(newpar)+1-1]'
p28
NsS'diagram.objs[6-1]'
p29
g15
sS'split'
p30
g2
sS'diagram.objs[3-1]'
p31
g15
sS'model.firing'
p32
NsS'diagram.objs[5-1]'
p33
g15
sS'evtdly.graphics.flip'
p34
g8
sS'output_port'
p35
g2
sS'newpar'
p36
S'list'
p37
sS'diagram.objs[4-1]'
p38
g2
sS'x.model.dep_ut'
p39
S'vector_boolean'
p40
sS'evtdly'
p41
g2
sS'model.rpar'
p42
NsS'model_n'
p43
g2
sS'diagram'
p44
g15
sS'dt_old'
p45
NsS'output_port.graphics.sz'
p46
g19
sS'x.graphics.peout'
p47
g15
sS'path'
p48
NsS'evtdly.graphics.exprs'
p49
g10
sS'typ'
p50
g37
sS'x.model.sim'
p51
g4
sS'needcompile'
p52
g15
sS'evtdly.graphics.peout'
p53
g15
sS'arg1.model'
p54
g2
sS'ok'
p55
g8
sS'evtdly.model.firing'
p56
g15
sS'diagram.objs[2-1]'
p57
g2
sS'evtdly.graphics.orig'
p58
g19
sS'x.gui'
p59
g4
sS'arg1.model.rpar.objs[path-1]'
p60
g2
sS'x.graphics.sz'
p61
g19
sS'exprs'
p62
NsS'gr_i'
p63
g19
sS'output_port.graphics.orig'
p64
g19
sS'y'
p65
g15
sS'x'
p66
g15
sS'model'
p67
g2
sS'split.graphics.pein'
p68
g15
sS'arg1.model.rpar'
p69
g2
sS'split.graphics.orig'
p70
g10
s.