c__builtin__
set
p0
((lp1
S'x'
p2
aS'dt'
p3
aS'exprs0'
p4
aS't0'
p5
atp6
Rp7
.(dp0
S'diagram.objs[1-1]'
p1
S'object'
p2
sS'output_port.graphics.exprs'
p3
S'string'
p4
sS'xx.model'
p5
g2
sS'arg1'
p6
g2
sS'output_port.graphics.flip'
p7
S'boolean'
p8
sS'split.graphics.peout'
p9
S'matrix'
p10
sS'xx.graphics'
p11
g2
sS'xx'
p12
g2
sS'o'
p13
g2
sS'x.model.rpar'
p14
S'double'
p15
sS'x.model.evtout'
p16
g15
sS'evtdly.graphics.pein'
p17
g15
sS'evtdly.graphics.sz'
p18
S'vector'
p19
sS'output_port.graphics.pein'
p20
g15
sS't0_old'
p21
NsS'x.graphics.gr_i'
p22
g19
sS'x.model.firing'
p23
g8
sS'output_port.model.ipar'
p24
g15
sS'xx.graphics.exprs'
p25
NsS'x.model.blocktype'
p26
g4
sS'evtdly.model.rpar'
p27
g15
sS'newpar[size(newpar)+1-1]'
p28
NsS'diagram.objs[6-1]'
p29
g15
sS'split'
p30
g2
sS'diagram.objs[3-1]'
p31
g15
sS'model.firing'
p32
NsS'diagram.objs[5-1]'
p33
g15
sS'evtdly.graphics.flip'
p34
g8
sS'output_port'
p35
g2
sS'newpar'
p36
g19
sS'diagram.objs[4-1]'
p37
g2
sS'x.model.dep_ut'
p38
g19
sS'evtdly'
p39
g2
sS'model.rpar'
p40
NsS'model_n'
p41
g2
sS'diagram'
p42
g15
sS'dt_old'
p43
NsS'output_port.graphics.sz'
p44
g19
sS'x.graphics.peout'
p45
g15
sS'path'
p46
NsS'evtdly.graphics.exprs'
p47
g10
sS'typ'
p48
g19
sS'x.model.sim'
p49
g4
sS'needcompile'
p50
g15
sS'evtdly.graphics.peout'
p51
g15
sS'arg1.model'
p52
g2
sS'ok'
p53
g8
sS'evtdly.model.firing'
p54
g15
sS'diagram.objs[2-1]'
p55
g2
sS'evtdly.graphics.orig'
p56
g19
sS'x.gui'
p57
g4
sS'arg1.model.rpar.objs[path-1]'
p58
g2
sS'x.graphics.sz'
p59
g19
sS'exprs'
p60
NsS'gr_i'
p61
g19
sS'output_port.graphics.orig'
p62
g19
sS'y'
p63
g15
sS'x'
p64
g15
sS'model'
p65
g2
sS'split.graphics.pein'
p66
g15
sS'arg1.model.rpar'
p67
g2
sS'split.graphics.orig'
p68
g10
s.