c__builtin__
set
p0
((lp1
S'x'
p2
aS'model'
p3
aS'type'
p4
aS'C'
p5
atp6
Rp7
.(dp0
S'arg1'
p1
S'object'
p2
sS'graphics'
p3
g2
sS'x.model'
p4
NsS'model.out'
p5
S'double'
p6
sS'model.in2'
p7
S'vector'
p8
sS'model.in1'
p9
g8
sS'x.graphics'
p10
g2
sS'model.sim'
p11
g8
sS'C'
p12
g8
sS'model.out2'
p13
g6
sS'model.rpar'
p14
g8
sS'graphics.exprs'
p15
NsS'typ'
p16
g8
sS'model.opar'
p17
g8
sS'[model,graphics,ok]'
p18
g6
sS'ok'
p19
S'boolean'
p20
sS'model.blocktype'
p21
S'string'
p22
sS'model.dep_ut'
p23
g8
sS'exprs'
p24
g6
sS'gr_i'
p25
g8
sS'y'
p26
g8
sS'x'
p27
g6
sS'model'
p28
g2
sS'ot'
p29
g6
sS'nout'
p30
g6
s.