c__builtin__
set
p0
((lp1
S'x'
p2
aS'model'
p3
aS'C'
p4
atp5
Rp6
.(dp0
S'sz'
p1
S'double'
p2
sS'model.out'
p3
g2
sS'model.blocktype'
p4
S'string'
p5
sS'x.graphics'
p6
S'object'
p7
sS'arg1'
p8
g7
sS'graphics.exprs'
p9
NsS'C'
p10
g2
sS'model.rpar'
p11
g2
sS'model.in1'
p12
S'vector'
p13
sS'exprs'
p14
g2
sS'x.model'
p15
NsS'gr_i'
p16
g13
sS'model.dep_ut'
p17
g13
sS'graphics'
p18
g7
sS'y'
p19
g13
sS'x'
p20
g2
sS'model'
p21
g7
sS'model.sim'
p22
S'list'
p23
sS'typ'
p24
g13
sS'nout'
p25
g2
s.