c__builtin__
set
p0
((lp1
S'x'
p2
aS'C'
p3
atp4
Rp5
.(dp0
S'this.x'
p1
S'double'
p2
sS'model.sim'
p3
S'vector'
p4
sS'model.out'
p5
g2
sS'model.blocktype'
p6
S'string'
p7
sS'this.x.graphics'
p8
S'object'
p9
sS'arg1'
p10
g9
sS'graphics.exprs'
p11
NsS'model.in1'
p12
g4
sS'model.rpar'
p13
NsS'this.x.model'
p14
NsS'exprs'
p15
g2
sS'gr_i'
p16
g4
sS'model.dep_ut'
p17
g4
sS'graphics'
p18
g9
sS'y'
p19
g4
sS'model'
p20
g2
sS'this.C'
p21
g2
sS'typ'
p22
g4
sS'nout'
p23
g2
s.