c__builtin__
set
p0
((lp1
S'x'
p2
aS'model'
p3
aS'C'
p4
atp5
Rp6
.(dp0
S'model.sim'
p1
S'list'
p2
sS'model.out'
p3
S'double'
p4
sS'model.blocktype'
p5
S'string'
p6
sS'x.graphics'
p7
S'object'
p8
sS'arg1'
p9
g8
sS'graphics.exprs'
p10
NsS'C'
p11
g4
sS'model.rpar'
p12
g4
sS'model.in1'
p13
S'vector'
p14
sS'exprs'
p15
g4
sS'x.model'
p16
NsS'gr_i'
p17
g14
sS'model.dep_ut'
p18
g14
sS'graphics'
p19
g8
sS'y'
p20
g14
sS'x'
p21
g4
sS'model'
p22
g8
sS'typ'
p23
g14
sS'nout'
p24
g4
s.