c__builtin__
set
p0
((lp1
S'C'
p2
aS'exprs'
p3
aS'gr_i'
p4
aS'graphics'
p5
aS'x'
p6
aS'model'
p7
atp8
Rp9
.(dp0
S'sz'
p1
S'double'
p2
sS'model.out'
p3
g2
sS'model.blocktype'
p4
S'string'
p5
sS'x.graphics'
p6
S'object'
p7
sS'arg1'
p8
g7
sS'graphics.exprs'
p9
NsS'C'
p10
g2
sS'model.rpar'
p11
g2
sS'exprs'
p12
g2
sS'x.model'
p13
NsS'gr_i'
p14
S'vector'
p15
sS'model.dep_ut'
p16
S'vector_boolean'
p17
sS'model.in'
p18
g15
sS'graphics'
p19
g7
sS'y'
p20
g15
sS'x'
p21
NsS'model'
p22
g7
sS'model.sim'
p23
S'list'
p24
sS'typ'
p25
g15
sS'nout'
p26
g2
s.