c__builtin__
set
p0
((lp1
S'x'
p2
aS'C'
p3
atp4
Rp5
.(dp0
S'this.x'
p1
S'double'
p2
sS'sz'
p3
g2
sS'model.out'
p4
g2
sS'model.blocktype'
p5
S'string'
p6
sS'model.sim'
p7
S'vector'
p8
sS'this.x.graphics'
p9
S'object'
p10
sS'arg1'
p11
g10
sS'graphics.exprs'
p12
NsS'model.in1'
p13
g8
sS'model.rpar'
p14
NsS'this.x.model'
p15
NsS'exprs'
p16
g2
sS'gr_i'
p17
g8
sS'model.dep_ut'
p18
g8
sS'graphics'
p19
g10
sS'y'
p20
g8
sS'model'
p21
g2
sS'this.C'
p22
g2
sS'typ'
p23
g8
sS'nout'
p24
g2
s.