c__builtin__
set
p0
((lp1
S'C'
p2
aS'exprs'
p3
aS'gr_i'
p4
aS'graphics'
p5
aS'x'
p6
aS'model'
p7
atp8
Rp9
.(dp0
S'sz'
p1
S'double'
p2
sS'model.out'
p3
g2
sS'model.blocktype'
p4
S'string'
p5
sS'x.graphics'
p6
S'object'
p7
sS'arg1'
p8
g7
sS'graphics.exprs'
p9
NsS'C'
p10
g2
sS'model.rpar'
p11
g2
sS'exprs'
p12
g2
sS'x.model'
p13
NsS'gr_i'
p14
S'vector'
p15
sS'model.dep_ut'
p16
g15
sS'model.in'
p17
g15
sS'graphics'
p18
g7
sS'y'
p19
g15
sS'x'
p20
g2
sS'model'
p21
g7
sS'model.sim'
p22
S'list'
p23
sS'typ'
p24
g15
sS'nout'
p25
g2
s.