c__builtin__
set
p0
((lp1
S'x'
p2
aS'model'
p3
aS'C'
p4
aS'graphics'
p5
atp6
Rp7
.(dp0
S'model.sim'
p1
S'list'
p2
sS'model.out'
p3
S'double'
p4
sS'model.blocktype'
p5
S'string'
p6
sS'x.graphics'
p7
S'object'
p8
sS'arg1'
p9
g8
sS'graphics.exprs'
p10
NsS'C'
p11
g4
sS'model.rpar'
p12
g4
sS'exprs'
p13
g4
sS'x.model'
p14
NsS'gr_i'
p15
S'vector'
p16
sS'model.dep_ut'
p17
S'vector_boolean'
p18
sS'model.in'
p19
g16
sS'graphics'
p20
g8
sS'y'
p21
g16
sS'x'
p22
NsS'model'
p23
g8
sS'typ'
p24
g16
sS'nout'
p25
g4
s.