c__builtin__
set
p0
((lp1
S'x'
p2
aS'model'
p3
aS'C'
p4
aS'graphics'
p5
atp6
Rp7
.(dp0
S'graphics'
p1
S'object'
p2
sS'x.model'
p3
NsS'model.out'
p4
S'double'
p5
sS'model.in2'
p6
S'vector'
p7
sS'x.graphics'
p8
g2
sS'model.sim'
p9
S'list'
p10
sS'C'
p11
g7
sS'model.out2'
p12
g5
sS'model.rpar'
p13
g7
sS'model.in'
p14
g7
sS'graphics.exprs'
p15
NsS'typ'
p16
g7
sS'model.opar'
p17
g10
sS'ok'
p18
S'boolean'
p19
sS'model.blocktype'
p20
S'string'
p21
sS'model.dep_ut'
p22
S'vector_boolean'
p23
sS'exprs'
p24
g21
sS'gr_i'
p25
g7
sS'y'
p26
g7
sS'x'
p27
g7
sS'model'
p28
g2
sS'ot'
p29
g5
sS'nout'
p30
g5
s.