c__builtin__
set
p0
((lp1
S'x'
p2
aS'model'
p3
aS'type'
p4
aS'C'
p5
atp6
Rp7
.(dp0
S'arg1'
p1
S'object'
p2
sS'graphics'
p3
g2
sS'x.model'
p4
NsS'model.out'
p5
S'double'
p6
sS'model.in2'
p7
S'vector'
p8
sS'model.in1'
p9
g8
sS'x.graphics'
p10
g2
sS'model.sim'
p11
S'list'
p12
sS'C'
p13
g8
sS'model.out2'
p14
g6
sS'model.rpar'
p15
g8
sS'graphics.exprs'
p16
NsS'typ'
p17
g8
sS'model.opar'
p18
g12
sS'[model,graphics,ok]'
p19
g6
sS'ok'
p20
S'boolean'
p21
sS'model.blocktype'
p22
S'string'
p23
sS'model.dep_ut'
p24
g8
sS'exprs'
p25
g6
sS'gr_i'
p26
g8
sS'y'
p27
g8
sS'x'
p28
g6
sS'model'
p29
g2
sS'ot'
p30
g6
sS'nout'
p31
g6
s.