c__builtin__
set
p0
((lp1
S'C'
p2
aS'exprs'
p3
aS'gr_i'
p4
aS'graphics'
p5
aS'x'
p6
aS'model'
p7
aS'type'
p8
atp9
Rp10
.(dp0
S'arg1'
p1
S'object'
p2
sS'graphics'
p3
g2
sS'x.model'
p4
NsS'model.out'
p5
S'double'
p6
sS'model.in2'
p7
S'vector'
p8
sS'model.in1'
p9
g8
sS'x.graphics'
p10
g2
sS'model.sim'
p11
S'list'
p12
sS'C'
p13
g8
sS'model.out2'
p14
g6
sS'model.rpar'
p15
g8
sS'graphics.exprs'
p16
NsS'typ'
p17
g8
sS'model.opar'
p18
g12
sS'ok'
p19
S'boolean'
p20
sS'model.blocktype'
p21
S'string'
p22
sS'model.dep_ut'
p23
g8
sS'exprs'
p24
g22
sS'gr_i'
p25
g8
sS'y'
p26
g8
sS'x'
p27
g6
sS'model'
p28
g2
sS'ot'
p29
g6
sS'nout'
p30
g6
s.