c__builtin__
set
p0
((lp1
S'x'
p2
aS'model'
p3
aS'C'
p4
aS'graphics'
p5
atp6
Rp7
.(dp0
S'model.sim'
p1
S'list'
p2
sS'model.out'
p3
S'double'
p4
sS'model.blocktype'
p5
S'string'
p6
sS'x.graphics'
p7
S'object'
p8
sS'graphics.exprs'
p9
NsS'C'
p10
g4
sS'model.rpar'
p11
g4
sS'exprs'
p12
g4
sS'x.model'
p13
NsS'gr_i'
p14
S'vector'
p15
sS'model.dep_ut'
p16
S'vector_boolean'
p17
sS'model.in'
p18
g15
sS'graphics'
p19
g8
sS'y'
p20
g15
sS'x'
p21
g15
sS'model'
p22
g8
sS'typ'
p23
g15
sS'nout'
p24
g4
s.