c__builtin__
set
p0
((lp1
S'x'
p2
aS'model'
p3
aS'C'
p4
aS'graphics'
p5
atp6
Rp7
.(dp0
S'sz'
p1
S'double'
p2
sS'model.out'
p3
g2
sS'model.blocktype'
p4
S'string'
p5
sS'x.graphics'
p6
S'object'
p7
sS'graphics.exprs'
p8
NsS'C'
p9
g2
sS'model.rpar'
p10
g2
sS'exprs'
p11
g2
sS'x.model'
p12
NsS'gr_i'
p13
S'vector'
p14
sS'model.dep_ut'
p15
S'vector_boolean'
p16
sS'model.in'
p17
g14
sS'graphics'
p18
g7
sS'y'
p19
g14
sS'x'
p20
g14
sS'model'
p21
g7
sS'model.sim'
p22
S'list'
p23
sS'typ'
p24
g14
sS'nout'
p25
g2
s.