c__builtin__
set
p0
((lp1
S'x'
p2
aS'C'
p3
aS'type'
p4
atp5
Rp6
.(dp0
S'arg1'
p1
S'object'
p2
sS'graphics'
p3
g2
sS'this.x.model'
p4
NsS'model.out'
p5
S'double'
p6
sS'model.in2'
p7
S'vector'
p8
sS'model.in1'
p9
g8
sS'typ'
p10
g8
sS'this.x'
p11
g6
sS'model.sim'
p12
g8
sS'model.out2'
p13
g6
sS'model.rpar'
p14
NsS'graphics.exprs'
p15
NsS'this.x.graphics'
p16
g2
sS'model.opar'
p17
g8
sS'[model,graphics,ok]'
p18
g6
sS'ot'
p19
g6
sS'ok'
p20
S'boolean'
p21
sS'model.blocktype'
p22
S'string'
p23
sS'model.dep_ut'
p24
g8
sS'exprs'
p25
g6
sS'gr_i'
p26
g8
sS'y'
p27
g8
sS'model'
p28
g6
sS'this.C'
p29
g8
sS'nout'
p30
g6
s.