c__builtin__
set
p0
((lp1
S'x'
p2
aS'C'
p3
atp4
Rp5
.(dp0
S'model.sim'
p1
S'vector'
p2
sS'model.out'
p3
S'double'
p4
sS'model.blocktype'
p5
S'string'
p6
sS'x.graphics'
p7
S'object'
p8
sS'arg1'
p9
g8
sS'graphics.exprs'
p10
NsS'C'
p11
g4
sS'model.rpar'
p12
g4
sS'model.in1'
p13
g2
sS'exprs'
p14
g4
sS'x.model'
p15
NsS'gr_i'
p16
g2
sS'model.dep_ut'
p17
g2
sS'graphics'
p18
g8
sS'y'
p19
g2
sS'x'
p20
g4
sS'model'
p21
g8
sS'typ'
p22
g2
sS'nout'
p23
g4
s.