c__builtin__
set
p0
((lp1
S'x'
p2
aS'model'
p3
aS'maxim'
p4
aS'rule'
p5
aS'minim'
p6
atp7
Rp8
.(dp0
S'model.dstate'
p1
S'double'
p2
sS'arg1'
p3
S'object'
p4
sS'graphics'
p5
g4
sS'maxim'
p6
g2
sS'x.model'
p7
NsS'model.dep_ut'
p8
S'vector'
p9
sS'model.out'
p10
g2
sS'minim'
p11
g2
sS'model.evtin'
p12
g2
sS'model.sim'
p13
g9
sS'model.out2'
p14
g2
sS'graphics.exprs'
p15
NsS'model.ipar'
p16
S'matrix'
p17
sS'typ'
p18
g9
sS'model.blocktype'
p19
S'string'
p20
sS'x.graphics'
p21
g4
sS'rule'
p22
g2
sS'exprs'
p23
g17
sS'gr_i'
p24
g9
sS'y'
p25
g9
sS'x'
p26
g2
sS'model'
p27
g4
s.