c__builtin__
set
p0
((lp1
S'x'
p2
aS'model'
p3
aS'maxim'
p4
aS'rule'
p5
aS'minim'
p6
atp7
Rp8
.(dp0
S'model.dstate'
p1
S'double'
p2
sS'arg1'
p3
S'object'
p4
sS'graphics'
p5
g4
sS'maxim'
p6
g2
sS'x.model'
p7
NsS'model.dep_ut'
p8
S'vector'
p9
sS'model.out'
p10
g2
sS'minim'
p11
g2
sS'model.evtin'
p12
g2
sS'model.sim'
p13
S'list'
p14
sS'model.out2'
p15
g2
sS'graphics.exprs'
p16
NsS'model.ipar'
p17
S'matrix'
p18
sS'typ'
p19
g9
sS'model.blocktype'
p20
S'string'
p21
sS'x.graphics'
p22
g4
sS'rule'
p23
g2
sS'exprs'
p24
g18
sS'gr_i'
p25
g9
sS'y'
p26
g9
sS'x'
p27
g2
sS'model'
p28
g4
s.