c__builtin__
set
p0
((lp1
S'minim'
p2
aS'maxim'
p3
aS'rule'
p4
aS'graphics'
p5
aS'x'
p6
aS'model'
p7
atp8
Rp9
.(dp0
S'model.sim'
p1
S'list'
p2
sS'model.out'
p3
S'double'
p4
sS'model.out2'
p5
g4
sS'model.dstate'
p6
g4
sS'model.evtin'
p7
g4
sS'minim'
p8
g4
sS'graphics.exprs'
p9
NsS'maxim'
p10
g4
sS'rule'
p11
g4
sS'exprs'
p12
S'matrix'
p13
sS'x.model'
p14
NsS'gr_i'
p15
S'vector'
p16
sS'model.dep_ut'
p17
S'vector_boolean'
p18
sS'graphics'
p19
S'object'
p20
sS'y'
p21
g16
sS'x'
p22
g16
sS'model'
p23
g20
sS'model.ipar'
p24
g13
sS'typ'
p25
g16
sS'x.graphics'
p26
g20
sS'model.blocktype'
p27
S'string'
p28
s.