c__builtin__
set
p0
((lp1
S'minim'
p2
aS'maxim'
p3
aS'rule'
p4
aS'graphics'
p5
aS'x'
p6
aS'model'
p7
atp8
Rp9
.(dp0
S'model.dstate'
p1
S'double'
p2
sS'arg1'
p3
S'object'
p4
sS'graphics'
p5
g4
sS'maxim'
p6
g2
sS'x.model'
p7
NsS'model.dep_ut'
p8
S'vector_boolean'
p9
sS'model.out'
p10
g2
sS'minim'
p11
g2
sS'model.evtin'
p12
g2
sS'model.sim'
p13
S'list'
p14
sS'model.out2'
p15
g2
sS'graphics.exprs'
p16
NsS'model.ipar'
p17
S'matrix'
p18
sS'typ'
p19
S'vector'
p20
sS'model.blocktype'
p21
S'string'
p22
sS'x.graphics'
p23
g4
sS'rule'
p24
g2
sS'exprs'
p25
g18
sS'gr_i'
p26
g20
sS'y'
p27
g20
sS'x'
p28
NsS'model'
p29
g4
s.