c__builtin__
set
p0
((lp1
S'x'
p2
aS'maxim'
p3
aS'rule'
p4
aS'minim'
p5
atp6
Rp7
.(dp0
S'model.dstate'
p1
S'double'
p2
sS'arg1'
p3
S'object'
p4
sS'graphics'
p5
g4
sS'this.maxim'
p6
g2
sS'this.x.model'
p7
NsS'model.out'
p8
g2
sS'exprs'
p9
S'matrix'
p10
sS'typ'
p11
S'vector'
p12
sS'model.evtin'
p13
g2
sS'this.minim'
p14
g2
sS'this.x'
p15
g2
sS'model.sim'
p16
g12
sS'model.out2'
p17
g2
sS'graphics.exprs'
p18
NsS'model.ipar'
p19
g10
sS'this.x.graphics'
p20
g4
sS'model.blocktype'
p21
S'string'
p22
sS'model.dep_ut'
p23
g12
sS'this.rule'
p24
g2
sS'gr_i'
p25
g12
sS'y'
p26
g12
sS'model'
p27
g2
s.