c__builtin__
set
p0
((lp1
S'mean4'
p2
aS'ymn1'
p3
aS'inrpar'
p4
aS'sok'
p5
aS'wp'
p6
aS'Pd3'
p7
aS'Sawt1_exprs2'
p8
aS'random_n_exprs2'
p9
aS'xx'
p10
aS'xy'
p11
aS'Tp3'
p12
aS'iparin'
p13
aS'xmn1'
p14
aS'np4'
p15
aS'np5'
p16
aS'Amp3'
p17
aS'curwin'
p18
aS'sAmp'
p19
aS'np1'
p20
aS'Method'
p21
aS'xt'
p22
aS'sample5'
p23
aS'sTp2'
p24
aS'Pulse_exprs2'
p25
aS'Cx'
p26
aS'filen'
p27
aS'sample4'
p28
aS'xa'
p29
aS'random_u_exprs2'
p30
aS'sAmp2'
p31
aS'zok'
p32
aS'offset'
p33
aS'yt'
p34
aS'sdelay'
p35
aS'ixy'
p36
aS'seed4'
p37
aS'seed5'
p38
aS'Sawt2_exprs2'
p39
aS'Amp'
p40
aS'PeriodicOption'
p41
aS'var4'
p42
aS'ymx1'
p43
aS'Cformat'
p44
aS'ya'
p45
aS'Bias3'
p46
aS'xls_open'
p47
aS'myans'
p48
aS'xmx1'
p49
aS'inipar'
p50
aS'xls_read'
p51
aS'sTp'
p52
aS'Sin_exprs2'
p53
aS'argn'
p54
aS'graphics'
p55
aS'phase'
p56
aS'iipar'
p57
aS'min5'
p58
aS'mok'
p59
aS'Pw3'
p60
aS'sheetN'
p61
aS'xgetmouse'
p62
aS'max5'
p63
aS'rparin'
p64
aS'exprs'
p65
aS'Cy'
p66
aS'gr_i'
p67
aS'yy'
p68
aS'x'
p69
aS'model'
p70
aS'ORDER2'
p71
aS'irpar'
p72
aS'graf'
p73
aS'xye'
p74
atp75
Rp76
.(dp0
S'mean4'
p1
S'vector'
p2
sS'dist'
p3
S'string'
p4
sS'Sin_exprs'
p5
NsS'xenR'
p6
S'double'
p7
sS'x2'
p8
g4
sS'Y[j-1]'
p9
g7
sS'Ask_again'
p10
S'boolean'
p11
sS'y1'
p12
g4
sS'Amp3'
p13
g2
sS'curwin'
p14
g7
sS'Standm'
p15
g4
sS'xenC'
p16
g4
sS'yenR'
p17
g7
sS'a.title.text'
p18
g2
sS'xmn'
p19
g7
sS'x1'
p20
g4
sS'ye[zz-1]'
p21
g2
sS'lx21'
p22
g7
sS'xstC'
p23
g4
sS'ymx'
p24
g7
sS'Bt'
p25
S'matrix'
p26
sS'a.title.font_size'
p27
g7
sS'xmx'
p28
g7
sS'x1p'
p29
g7
sS'random_n_exprs'
p30
S'list'
p31
sS'a.axes_visible'
p32
g4
sS'METHOD'
p33
g7
sS'PeriodicOption'
p34
g4
sS'ymn'
p35
g7
sS'NOrder'
p36
g7
sS'var4'
p37
g2
sS'xa'
p38
g7
sS'yo'
p39
g7
sS'y22'
p40
g4
sS'ya'
p41
g7
sS'YMX'
p42
g7
sS'yc'
p43
g7
sS'a.title.foreground'
p44
g7
sS'model.rpar'
p45
g26
sS'yy'
p46
g2
sS'x[zz-1]'
p47
g2
sS'Pulse_exprs'
p48
NsS'dx'
p49
g7
sS'dy'
p50
g7
sS'random_n_exprs2'
p51
g31
sS'a.clip_state'
p52
g4
sS'yt'
p53
g7
sS'model.blocktype'
p54
g4
sS'splines'
p55
NsS'oipar'
p56
NsS'MENU'
p57
g2
sS't4'
p58
g4
sS't5'
p59
g4
sS't2'
p60
g4
sS'x.model'
p61
NsS'model.dep_ut'
p62
S'vector_boolean'
p63
sS'menu_s'
p64
g2
sS'sample5'
p65
g2
sS'sample4'
p66
g2
sS'sTp2'
p67
g2
sS'x'
p68
g7
sS'x12'
p69
g4
sS'exprs[1-1]'
p70
g4
sS'points.data'
p71
g2
sS'j'
p72
g4
sS'x11'
p73
g4
sS'arg1'
p74
S'object'
p75
sS'Pd3'
p76
g2
sS't3'
p77
g4
sS'ey'
p78
g7
sS'ex'
p79
g7
sS'zz'
p80
g7
sS'sAmp'
p81
g2
sS'a.children[2-1]'
p82
g75
sS'Sawt1_exprs'
p83
NsS'a.title.font_style'
p84
g7
sS'y2'
p85
g4
sS'orpar'
p86
g2
sS'x.graphics'
p87
g75
sS'menu_d'
p88
g2
sS'menu_e'
p89
g2
sS'ye[$+1-1]'
p90
g7
sS'A[j+1-1][i+N-1]'
p91
g7
sS'a.children[1-1]'
p92
g75
sS'y1p'
p93
g7
sS'r'
p94
g4
sS'seed4'
p95
g2
sS'seed5'
p96
g2
sS'B[j+1-1]'
p97
g7
sS'model.evtin'
p98
g7
sS'y21'
p99
g4
sS'menu_t'
p100
g2
sS'menu_r'
p101
g2
sS'PO'
p102
g7
sS'x22'
p103
g4
sS'C'
p104
g2
sS'DChange'
p105
g11
sS'Cformat'
p106
g4
sS'Q[i+N-1][i-1]'
p107
g7
sS'rep'
p108
g7
sS'ymx1'
p109
g7
sS'xy[N-1][2-1]'
p110
g7
sS'ipar[3-1]'
p111
g7
sS'sTp'
p112
g2
sS'wp'
p113
g2
sS'New_methhod'
p114
g7
sS'PeridicOption'
p115
g7
sS'Graf'
p116
g4
sS'Q'
p117
g7
sS'ok'
p118
g11
sS'ly11'
p119
g7
sS'xy[k-1].slice()'
p120
g2
sS'Z'
p121
g2
sS'Cmenu'
p122
g4
sS'periodicoption'
p123
g7
sS'w'
p124
g4
sS'a.x_ticks'
p125
g75
sS'y2p'
p126
g7
sS'A[j+1-1][i+2*N-1]'
p127
g7
sS'YMN'
p128
g7
sS'Q[i-1][i+N-1]'
p129
g7
sS'y11'
p130
g4
sS'x2p'
p131
g7
sS'y12'
p132
g4
sS'NC'
p133
g7
sS'xyt'
p134
g2
sS'xo'
p135
g26
sS'ipar[2-1]'
p136
g7
sS'xc'
p137
g7
sS'sok'
p138
g11
sS'offset'
p139
g2
sS'splines.data'
p140
g2
sS'perop'
p141
g4
sS'xe'
p142
g7
sS'Y'
p143
g7
sS'xx'
p144
g2
sS'xy'
p145
g2
sS'btn'
p146
g7
sS'xye'
p147
g2
sS'xe[$+1-1]'
p148
g7
sS'SaveExit'
p149
g11
sS'xp'
p150
g7
sS'Method'
p151
g7
sS'xt'
p152
g26
sS'xyo'
p153
g2
sS'Q[i-1][i-1]'
p154
g7
sS'ystR'
p155
g7
sS'A[j-1][i+2*N-1]'
p156
g7
sS'random_u_exprs2'
p157
g31
sS'px'
p158
g7
sS'py'
p159
g7
sS'tok'
p160
g11
sS'ixy'
p161
g2
sS'rect'
p162
g26
sS'NP'
p163
g7
sS'Amp'
p164
g2
sS'exprs[2-1]'
p165
g7
sS'model.firing'
p166
g7
sS'xy2'
p167
g2
sS'B'
p168
g7
sS'A'
p169
g7
sS'yenC'
p170
g4
sS'N'
p171
g7
sS'random_u_exprs'
p172
g31
sS'Sawt2_exprs'
p173
NsS'XMX'
p174
g7
sS'model.in'
p175
g2
sS'graphics'
p176
g75
sS'Exitm'
p177
g4
sS'N2'
p178
g7
sS'model.ipar'
p179
g26
sS'Pw3'
p180
g2
sS'f'
p181
g7
sS'a.grid'
p182
g2
sS'y[N-1]'
p183
g7
sS'xy[zz-1].slice()'
p184
g2
sS'gr_i'
p185
g2
sS'ipar'
p186
g2
sS'ystC'
p187
g4
sS'mtd'
p188
g7
sS'PERIODIC'
p189
g4
sS'xmx1'
p190
g7
sS'scam'
p191
g4
sS'exprs[4-1]'
p192
g4
sS'ans0'
p193
g4
sS'ymn1'
p194
g7
sS't1'
p195
g4
sS'model.evtout'
p196
g7
sS'rpar'
p197
g2
sS'lx11'
p198
g7
sS'model.out'
p199
g7
sS'Bias3'
p200
g2
sS'Tp3'
p201
g2
sS'np5'
p202
g2
sS'np4'
p203
g2
sS'rectx'
p204
g7
sS'np1'
p205
g7
sS'Lx'
p206
g7
sS'x21'
p207
g4
sS'x[k-1]'
p208
g2
sS'HIT'
p209
g11
sS'xstR'
p210
g7
sS'xe[zz-1]'
p211
g2
sS'A[j+1-1][i-1]'
p212
g7
sS'sAmp2'
p213
g2
sS'TN'
p214
g2
sS'menus'
p215
g31
sS'sdelay'
p216
g2
sS'points'
p217
NsS'Q[i+N-1][i+N-1]'
p218
g7
sS'TA'
p219
g26
sS'Datam'
p220
g4
sS'model.sim'
p221
g31
sS'XMN'
p222
g7
sS'A[j+2-1][i+N+1-1]'
p223
g7
sS'a.data_bounds'
p224
g7
sS'menu_o'
p225
g2
sS'd'
p226
g7
sS'ye'
p227
g7
sS'X'
p228
g26
sS'Zt'
p229
g26
sS'fd'
p230
g7
sS'exprs[5-1]'
p231
g4
sS'graphics.exprs'
p232
NsS'phase'
p233
g7
sS'ZERO_POINT'
p234
g11
sS'typ'
p235
g2
sS'min5'
p236
g2
sS'a'
p237
g75
sS'mok'
p238
g11
sS'Orderm'
p239
g4
sS'A[j+2-1][i+N-1]'
p240
g7
sS'B[j-1]'
p241
g7
sS'ly21'
p242
g7
sS'y[zz-1]'
p243
g2
sS'A[j+2-1][i-1]'
p244
g7
sS'max5'
p245
g2
sS'exprs'
p246
g26
sS'exprs[3-1]'
p247
g7
sS'y[k-1]'
p248
g2
sS'At'
p249
g26
sS'y'
p250
g7
sS'model'
p251
g75
sS'order'
p252
g7
s.