c__builtin__
set
p0
((lp1
S'rparin'
p2
aS'curwin'
p3
aS'yy'
p4
aS'xx'
p5
aS'ixy'
p6
aS'graf'
p7
aS'argn'
p8
aS'xy'
p9
aS'x'
p10
aS'model'
p11
aS'Method'
p12
aS'PeriodicOption'
p13
aS'iparin'
p14
atp15
Rp16
.(dp0
S'mean4'
p1
S'vector'
p2
sS'Sin_exprs'
p3
S'list'
p4
sS'Ask_again'
p5
S'boolean'
p6
sS'Amp3'
p7
g2
sS'curwin'
p8
S'double'
p9
sS'Standm'
p10
S'string'
p11
sS'xmn'
p12
g9
sS'ymx'
p13
g9
sS'a.title.font_size'
p14
g9
sS'xmx'
p15
g9
sS'random_n_exprs'
p16
g4
sS'a.axes_visible'
p17
g11
sS'METHOD'
p18
g9
sS'PeriodicOption'
p19
g11
sS'ymn'
p20
g9
sS'NOrder'
p21
g9
sS'var4'
p22
g2
sS'a.title.foreground'
p23
g9
sS'model.rpar'
p24
S'matrix'
p25
sS'yy'
p26
g2
sS'Pulse_exprs'
p27
g4
sS'dx'
p28
g9
sS'dy'
p29
g9
sS'a.clip_state'
p30
g11
sS'model.blocktype'
p31
g11
sS'oipar'
p32
g25
sS'MENU'
p33
g2
sS'x.model'
p34
NsS'model.dep_ut'
p35
g2
sS'menu_s'
p36
g2
sS'Sawt1_exprs'
p37
g4
sS'sample4'
p38
g2
sS'sTp2'
p39
g2
sS'x'
p40
g9
sS'[ny,my]'
p41
g9
sS'exprs[1-1]'
p42
g11
sS'[nx,mx]'
p43
g9
sS'arg1'
p44
S'object'
p45
sS'Pd3'
p46
g2
sS'sAmp'
p47
g2
sS'sample5'
p48
g2
sS'a.title.font_style'
p49
g9
sS'orpar'
p50
g25
sS'x.graphics'
p51
g45
sS'menu_d'
p52
g2
sS'menu_e'
p53
g2
sS'r'
p54
g11
sS'seed4'
p55
g2
sS'seed5'
p56
g2
sS'model.evtin'
p57
g9
sS'menu_t'
p58
g2
sS'menu_r'
p59
g2
sS'PO'
p60
g9
sS'DChange'
p61
g6
sS'[Xdummy,Ydummy,orpar]'
p62
g9
sS'xy[N-1][2-1]'
p63
g9
sS'sTp'
p64
g2
sS'wp'
p65
g2
sS'New_methhod'
p66
g9
sS'PeridicOption'
p67
g9
sS'Graf'
p68
g11
sS'ok'
p69
g6
sS'w'
p70
g11
sS'offset'
p71
g2
sS'perop'
p72
g11
sS'xx'
p73
g2
sS'xy'
p74
g2
sS'SaveExit'
p75
g6
sS'xp'
p76
g9
sS'Method'
p77
g9
sS'[orpar,oipar,ok]'
p78
g9
sS'ixy'
p79
g2
sS'rect'
p80
g25
sS'Amp'
p81
g2
sS'exprs[2-1]'
p82
g9
sS'model.firing'
p83
g9
sS'xy2'
p84
g2
sS'N'
p85
g9
sS'random_u_exprs'
p86
g4
sS'Sawt2_exprs'
p87
g4
sS'graphics'
p88
g45
sS'Exitm'
p89
g11
sS'N2'
p90
g9
sS'model.ipar'
p91
g25
sS'Pw3'
p92
g2
sS'f'
p93
g9
sS'a.grid'
p94
g2
sS'[this.xy]'
p95
g9
sS'gr_i'
p96
g2
sS'ipar'
p97
NsS'mtd'
p98
g9
sS'scam'
p99
g11
sS'exprs[4-1]'
p100
g11
sS'model.evtout'
p101
g9
sS'rpar'
p102
NsS'np5'
p103
g2
sS'Bias3'
p104
g2
sS'Tp3'
p105
g2
sS'model.out'
p106
g9
sS'np4'
p107
g2
sS'np1'
p108
g2
sS'[xy]'
p109
g9
sS'model.in1'
p110
g2
sS'sAmp2'
p111
g2
sS'menus'
p112
g4
sS'sdelay'
p113
g2
sS'[lhs,rhs]'
p114
g9
sS'Datam'
p115
g11
sS'model.sim'
p116
g4
sS'a.data_bounds'
p117
g25
sS'menu_o'
p118
g2
sS'exprs[5-1]'
p119
g11
sS'graphics.exprs'
p120
NsS'phase'
p121
g2
sS'typ'
p122
g2
sS'min5'
p123
g2
sS'a'
p124
g45
sS'Orderm'
p125
g11
sS'max5'
p126
g2
sS'exprs'
p127
g25
sS'exprs[3-1]'
p128
g9
sS'y'
p129
g2
sS'model'
p130
g45
s.