c__builtin__
set
p0
((lp1
S'mean4'
p2
aS'ymn1'
p3
aS'offset'
p4
aS'Pd3'
p5
aS'inrpar'
p6
aS'xx'
p7
aS'xy'
p8
aS'Tp3'
p9
aS'iparin'
p10
aS'xmn1'
p11
aS'np4'
p12
aS'np5'
p13
aS'Amp3'
p14
aS'curwin'
p15
aS'sAmp'
p16
aS'np1'
p17
aS'Method'
p18
aS'xt'
p19
aS'sample5'
p20
aS'graphics'
p21
aS'xa'
p22
aS'sAmp2'
p23
aS'Cx'
p24
aS'iipar'
p25
aS'filen'
p26
aS'sdelay'
p27
aS'ixy'
p28
aS'seed4'
p29
aS'seed5'
p30
aS'Amp'
p31
aS'PeriodicOption'
p32
aS'var4'
p33
aS'Bias3'
p34
aS'Cformat'
p35
aS'xls_open'
p36
aS'xmx1'
p37
aS'inipar'
p38
aS'xls_read'
p39
aS'sTp'
p40
aS'argn'
p41
aS'wp'
p42
aS'phase'
p43
aS'min5'
p44
aS'yy'
p45
aS'Pw3'
p46
aS'sheetN'
p47
aS'xgetmouse'
p48
aS'max5'
p49
aS'rparin'
p50
aS'sample4'
p51
aS'sTp2'
p52
aS'x'
p53
aS'model'
p54
aS'ORDER2'
p55
aS'irpar'
p56
aS'graf'
p57
aS'xye'
p58
atp59
Rp60
.(dp0
S'mean4'
p1
S'vector'
p2
sS'dist'
p3
S'string'
p4
sS'Sin_exprs'
p5
NsS'xenR'
p6
S'double'
p7
sS'x2'
p8
g4
sS'Y[j-1]'
p9
g7
sS'Ask_again'
p10
S'boolean'
p11
sS'y1'
p12
g4
sS'Amp3'
p13
g2
sS'curwin'
p14
g7
sS'Standm'
p15
g4
sS'xenC'
p16
g4
sS'yenR'
p17
g7
sS'a.title.text'
p18
S'vector_string'
p19
sS'xmn'
p20
g7
sS'x1'
p21
g4
sS'ye[zz-1]'
p22
g2
sS'lx21'
p23
g7
sS'xstC'
p24
g4
sS'ymx'
p25
g7
sS'Bt'
p26
S'matrix'
p27
sS'a.title.font_size'
p28
g7
sS'xmx'
p29
g7
sS'x1p'
p30
g7
sS'random_n_exprs'
p31
S'list'
p32
sS'a.axes_visible'
p33
g4
sS'METHOD'
p34
g7
sS'PeriodicOption'
p35
g4
sS'ymn'
p36
g7
sS'NOrder'
p37
g7
sS'var4'
p38
g2
sS'xa'
p39
g7
sS'yo'
p40
g7
sS'y22'
p41
g4
sS'ya'
p42
g7
sS'YMX'
p43
g7
sS'yc'
p44
g7
sS'a.title.foreground'
p45
g7
sS'model.rpar'
p46
g27
sS'yy'
p47
g2
sS'x[zz-1]'
p48
g2
sS'Pulse_exprs'
p49
NsS'dx'
p50
g7
sS'dy'
p51
g7
sS'random_n_exprs2'
p52
g32
sS'a.clip_state'
p53
g4
sS'yt'
p54
g7
sS'model.blocktype'
p55
g4
sS'splines'
p56
NsS'oipar'
p57
NsS'MENU'
p58
g19
sS't4'
p59
g4
sS't5'
p60
g4
sS't2'
p61
g4
sS'x.model'
p62
NsS'model.dep_ut'
p63
S'vector_boolean'
p64
sS'menu_s'
p65
g2
sS'sample5'
p66
g2
sS'sample4'
p67
g2
sS'sTp2'
p68
g2
sS'x'
p69
g7
sS'x12'
p70
g4
sS'exprs[1-1]'
p71
g4
sS'points.data'
p72
g2
sS'j'
p73
g4
sS'x11'
p74
g4
sS'Pd3'
p75
g2
sS't3'
p76
g4
sS'ey'
p77
g7
sS'ex'
p78
g7
sS'zz'
p79
g7
sS'sAmp'
p80
g2
sS'a.children[2-1]'
p81
S'object'
p82
sS'Sawt1_exprs'
p83
NsS'a.title.font_style'
p84
g7
sS'y2'
p85
g4
sS'orpar'
p86
g2
sS'x.graphics'
p87
g82
sS'menu_d'
p88
g19
sS'menu_e'
p89
g19
sS'ye[$+1-1]'
p90
g7
sS'A[j+1-1][i+N-1]'
p91
g7
sS'a.children[1-1]'
p92
g82
sS'y1p'
p93
g7
sS'r'
p94
g4
sS'seed4'
p95
g2
sS'seed5'
p96
g2
sS'B[j+1-1]'
p97
g7
sS'model.evtin'
p98
g7
sS'y21'
p99
g4
sS'menu_t'
p100
g19
sS'menu_r'
p101
g2
sS'PO'
p102
g7
sS'x22'
p103
g4
sS'C'
p104
g2
sS'DChange'
p105
g11
sS'Cformat'
p106
g4
sS'Q[i+N-1][i-1]'
p107
g7
sS'rep'
p108
g7
sS'ymx1'
p109
g7
sS'xy[N-1][2-1]'
p110
g7
sS'ipar[3-1]'
p111
g7
sS'sTp'
p112
g2
sS'wp'
p113
g2
sS'New_methhod'
p114
g7
sS'PeridicOption'
p115
g7
sS'Graf'
p116
g4
sS'Q'
p117
g7
sS'ok'
p118
g11
sS'ly11'
p119
g7
sS'xy[k-1].slice()'
p120
g2
sS'Z'
p121
g2
sS'Cmenu'
p122
g4
sS'periodicoption'
p123
g7
sS'w'
p124
g4
sS'a.x_ticks'
p125
g82
sS'y2p'
p126
g7
sS'A[j+1-1][i+2*N-1]'
p127
g7
sS'YMN'
p128
g7
sS'Q[i-1][i+N-1]'
p129
g7
sS'y11'
p130
g4
sS'x2p'
p131
g7
sS'y12'
p132
g4
sS'NC'
p133
g7
sS'xyt'
p134
g2
sS'xo'
p135
g27
sS'ipar[2-1]'
p136
g7
sS'xc'
p137
g7
sS'sok'
p138
g11
sS'offset'
p139
g2
sS'splines.data'
p140
g2
sS'perop'
p141
g4
sS'xe'
p142
g7
sS'Y'
p143
g7
sS'xx'
p144
g2
sS'xy'
p145
g2
sS'btn'
p146
g7
sS'xye'
p147
g2
sS'xe[$+1-1]'
p148
g7
sS'SaveExit'
p149
g11
sS'xp'
p150
g7
sS'Method'
p151
g7
sS'xt'
p152
g27
sS'xyo'
p153
g2
sS'Q[i-1][i-1]'
p154
g7
sS'ystR'
p155
g7
sS'A[j-1][i+2*N-1]'
p156
g7
sS'random_u_exprs2'
p157
g32
sS'px'
p158
g7
sS'py'
p159
g7
sS'tok'
p160
g11
sS'ixy'
p161
g2
sS'rect'
p162
g27
sS'NP'
p163
g7
sS'Amp'
p164
g2
sS'exprs[2-1]'
p165
g7
sS'model.firing'
p166
g7
sS'xy2'
p167
g2
sS'B'
p168
g7
sS'A'
p169
g7
sS'yenC'
p170
g4
sS'N'
p171
g7
sS'random_u_exprs'
p172
g32
sS'Sawt2_exprs'
p173
NsS'XMX'
p174
g7
sS'model.in'
p175
g2
sS'graphics'
p176
g82
sS'Exitm'
p177
g4
sS'N2'
p178
g7
sS'model.ipar'
p179
g27
sS'Pw3'
p180
g2
sS'f'
p181
g7
sS'a.grid'
p182
g2
sS'y[N-1]'
p183
g7
sS'xy[zz-1].slice()'
p184
g2
sS'gr_i'
p185
g2
sS'ipar'
p186
g2
sS'ystC'
p187
g4
sS'mtd'
p188
g7
sS'PERIODIC'
p189
g4
sS'xmx1'
p190
g7
sS'scam'
p191
g4
sS'exprs[4-1]'
p192
g4
sS'ans0'
p193
g4
sS'ymn1'
p194
g7
sS't1'
p195
g4
sS'model.evtout'
p196
g7
sS'rpar'
p197
g2
sS'lx11'
p198
g7
sS'model.out'
p199
g7
sS'Bias3'
p200
g2
sS'Tp3'
p201
g2
sS'np5'
p202
g2
sS'np4'
p203
g2
sS'rectx'
p204
g7
sS'np1'
p205
g7
sS'Lx'
p206
g7
sS'x21'
p207
g4
sS'x[k-1]'
p208
g2
sS'HIT'
p209
g11
sS'xstR'
p210
g7
sS'xe[zz-1]'
p211
g2
sS'A[j+1-1][i-1]'
p212
g7
sS'sAmp2'
p213
g2
sS'TN'
p214
g19
sS'menus'
p215
g32
sS'sdelay'
p216
g2
sS'points'
p217
NsS'Q[i+N-1][i+N-1]'
p218
g7
sS'TA'
p219
g27
sS'Datam'
p220
g4
sS'model.sim'
p221
g32
sS'XMN'
p222
g7
sS'A[j+2-1][i+N+1-1]'
p223
g7
sS'a.data_bounds'
p224
g7
sS'menu_o'
p225
g19
sS'd'
p226
g7
sS'ye'
p227
g7
sS'X'
p228
g27
sS'Zt'
p229
g27
sS'fd'
p230
g7
sS'exprs[5-1]'
p231
g4
sS'graphics.exprs'
p232
NsS'phase'
p233
g7
sS'ZERO_POINT'
p234
g11
sS'typ'
p235
g2
sS'min5'
p236
g2
sS'a'
p237
g82
sS'mok'
p238
g11
sS'Orderm'
p239
g4
sS'A[j+2-1][i+N-1]'
p240
g7
sS'B[j-1]'
p241
g7
sS'ly21'
p242
g7
sS'y[zz-1]'
p243
g2
sS'A[j+2-1][i-1]'
p244
g7
sS'max5'
p245
g2
sS'exprs'
p246
g27
sS'exprs[3-1]'
p247
g7
sS'y[k-1]'
p248
g2
sS'At'
p249
g27
sS'y'
p250
g7
sS'model'
p251
g82
sS'order'
p252
g7
s.