c__builtin__
set
p0
((lp1
S'mean4'
p2
aS'ymn1'
p3
aS'inrpar'
p4
aS'sok'
p5
aS'graphics'
p6
aS'Pd3'
p7
aS'Sawt1_exprs2'
p8
aS'random_n_exprs2'
p9
aS'xx'
p10
aS'xy'
p11
aS'Tp3'
p12
aS'iparin'
p13
aS'xmn1'
p14
aS'np4'
p15
aS'np5'
p16
aS'Amp3'
p17
aS'curwin'
p18
aS'sAmp'
p19
aS'np1'
p20
aS'Method'
p21
aS'xt'
p22
aS'sample5'
p23
aS'Pulse_exprs2'
p24
aS'Cx'
p25
aS'filen'
p26
aS'xa'
p27
aS'random_u_exprs2'
p28
aS'sAmp2'
p29
aS'zok'
p30
aS'offset'
p31
aS'yt'
p32
aS'sdelay'
p33
aS'ixy'
p34
aS'seed4'
p35
aS'seed5'
p36
aS'Sawt2_exprs2'
p37
aS'Amp'
p38
aS'PeriodicOption'
p39
aS'var4'
p40
aS'ymx1'
p41
aS'Cformat'
p42
aS'ya'
p43
aS'Bias3'
p44
aS'xls_open'
p45
aS'myans'
p46
aS'xmx1'
p47
aS'inipar'
p48
aS'xls_read'
p49
aS'sTp'
p50
aS'Sin_exprs2'
p51
aS'argn'
p52
aS'wp'
p53
aS'phase'
p54
aS'iipar'
p55
aS'min5'
p56
aS'mok'
p57
aS'Pw3'
p58
aS'sheetN'
p59
aS'xgetmouse'
p60
aS'max5'
p61
aS'rparin'
p62
aS'sample4'
p63
aS'Cy'
p64
aS'sTp2'
p65
aS'yy'
p66
aS'x'
p67
aS'model'
p68
aS'ORDER2'
p69
aS'irpar'
p70
aS'graf'
p71
aS'xye'
p72
atp73
Rp74
.(dp0
S'mean4'
p1
S'vector'
p2
sS'dist'
p3
S'string'
p4
sS'Sin_exprs'
p5
NsS'xenR'
p6
S'double'
p7
sS'x2'
p8
g4
sS'Y[j-1]'
p9
g7
sS'Ask_again'
p10
S'boolean'
p11
sS'y1'
p12
g4
sS'Amp3'
p13
g2
sS'curwin'
p14
g7
sS'Standm'
p15
g4
sS'xenC'
p16
g4
sS'yenR'
p17
g7
sS'a.title.text'
p18
g2
sS'xmn'
p19
g7
sS'x1'
p20
g4
sS'ye[zz-1]'
p21
g2
sS'lx21'
p22
g7
sS'xstC'
p23
g4
sS'ymx'
p24
g7
sS'Bt'
p25
S'matrix'
p26
sS'a.title.font_size'
p27
g7
sS'xmx'
p28
g7
sS'x1p'
p29
g7
sS'random_n_exprs'
p30
S'list'
p31
sS'a.axes_visible'
p32
g4
sS'METHOD'
p33
g7
sS'PeriodicOption'
p34
g4
sS'ymn'
p35
g7
sS'NOrder'
p36
g7
sS'var4'
p37
g2
sS'xa'
p38
g7
sS'yo'
p39
g7
sS'y22'
p40
g4
sS'ya'
p41
g7
sS'YMX'
p42
g7
sS'yc'
p43
g7
sS'a.title.foreground'
p44
g7
sS'model.rpar'
p45
g26
sS'yy'
p46
g2
sS'x[zz-1]'
p47
g2
sS'Pulse_exprs'
p48
NsS'dx'
p49
g7
sS'dy'
p50
g7
sS'random_n_exprs2'
p51
g31
sS'a.clip_state'
p52
g4
sS'yt'
p53
g7
sS'model.blocktype'
p54
g4
sS'splines'
p55
NsS'oipar'
p56
NsS'MENU'
p57
g2
sS't4'
p58
g4
sS't5'
p59
g4
sS't2'
p60
g4
sS'x.model'
p61
NsS'model.dep_ut'
p62
g2
sS'menu_s'
p63
g2
sS'sample5'
p64
g2
sS'sample4'
p65
g2
sS'sTp2'
p66
g2
sS'x'
p67
g7
sS'x12'
p68
g4
sS'exprs[1-1]'
p69
g4
sS'points.data'
p70
g2
sS'j'
p71
g4
sS'x11'
p72
g4
sS'arg1'
p73
S'object'
p74
sS'Pd3'
p75
g2
sS't3'
p76
g4
sS'ey'
p77
g7
sS'ex'
p78
g7
sS'zz'
p79
g7
sS'sAmp'
p80
g2
sS'a.children[2-1]'
p81
g74
sS'Sawt1_exprs'
p82
NsS'a.title.font_style'
p83
g7
sS'y2'
p84
g4
sS'orpar'
p85
g2
sS'x.graphics'
p86
g74
sS'menu_d'
p87
g2
sS'menu_e'
p88
g2
sS'ye[$+1-1]'
p89
g7
sS'A[j+1-1][i+N-1]'
p90
g7
sS'a.children[1-1]'
p91
g74
sS'y1p'
p92
g7
sS'r'
p93
g4
sS'seed4'
p94
g2
sS'seed5'
p95
g2
sS'B[j+1-1]'
p96
g7
sS'model.evtin'
p97
g7
sS'y21'
p98
g4
sS'menu_t'
p99
g2
sS'menu_r'
p100
g2
sS'PO'
p101
g7
sS'x22'
p102
g4
sS'C'
p103
g2
sS'DChange'
p104
g11
sS'Cformat'
p105
g4
sS'Q[i+N-1][i-1]'
p106
g7
sS'rep'
p107
g7
sS'ymx1'
p108
g7
sS'xy[N-1][2-1]'
p109
g7
sS'ipar[3-1]'
p110
g7
sS'sTp'
p111
g2
sS'wp'
p112
g2
sS'New_methhod'
p113
g7
sS'PeridicOption'
p114
g7
sS'Graf'
p115
g4
sS'Q'
p116
g7
sS'ok'
p117
g11
sS'ly11'
p118
g7
sS'xy[k-1].slice()'
p119
g2
sS'Z'
p120
g2
sS'Cmenu'
p121
g4
sS'periodicoption'
p122
g7
sS'w'
p123
g4
sS'a.x_ticks'
p124
g74
sS'y2p'
p125
g7
sS'A[j+1-1][i+2*N-1]'
p126
g7
sS'YMN'
p127
g7
sS'Q[i-1][i+N-1]'
p128
g7
sS'y11'
p129
g4
sS'x2p'
p130
g7
sS'y12'
p131
g4
sS'NC'
p132
g7
sS'xyt'
p133
g2
sS'xo'
p134
g26
sS'ipar[2-1]'
p135
g7
sS'xc'
p136
g7
sS'sok'
p137
g11
sS'offset'
p138
g2
sS'splines.data'
p139
g2
sS'perop'
p140
g4
sS'xe'
p141
g7
sS'Y'
p142
g7
sS'xx'
p143
g2
sS'xy'
p144
g2
sS'btn'
p145
g7
sS'xye'
p146
g2
sS'xe[$+1-1]'
p147
g7
sS'SaveExit'
p148
g11
sS'xp'
p149
g7
sS'Method'
p150
g7
sS'xt'
p151
g26
sS'xyo'
p152
g2
sS'Q[i-1][i-1]'
p153
g7
sS'ystR'
p154
g7
sS'A[j-1][i+2*N-1]'
p155
g7
sS'random_u_exprs2'
p156
g31
sS'px'
p157
g7
sS'py'
p158
g7
sS'tok'
p159
g11
sS'ixy'
p160
g2
sS'rect'
p161
g26
sS'NP'
p162
g7
sS'Amp'
p163
g2
sS'exprs[2-1]'
p164
g7
sS'model.firing'
p165
g7
sS'xy2'
p166
g2
sS'B'
p167
g7
sS'A'
p168
g7
sS'yenC'
p169
g4
sS'N'
p170
g7
sS'random_u_exprs'
p171
g31
sS'Sawt2_exprs'
p172
NsS'XMX'
p173
g7
sS'graphics'
p174
g74
sS'Exitm'
p175
g4
sS'N2'
p176
g7
sS'model.ipar'
p177
g26
sS'Pw3'
p178
g2
sS'f'
p179
g7
sS'a.grid'
p180
g2
sS'y[N-1]'
p181
g7
sS'xy[zz-1].slice()'
p182
g2
sS'gr_i'
p183
g2
sS'ipar'
p184
g2
sS'ystC'
p185
g4
sS'mtd'
p186
g7
sS'PERIODIC'
p187
g4
sS'xmx1'
p188
g7
sS'scam'
p189
g4
sS'exprs[4-1]'
p190
g4
sS'ans0'
p191
g4
sS'ymn1'
p192
g7
sS't1'
p193
g4
sS'model.evtout'
p194
g7
sS'rpar'
p195
g2
sS'lx11'
p196
g7
sS'model.out'
p197
g7
sS'Bias3'
p198
g2
sS'Tp3'
p199
g2
sS'np5'
p200
g2
sS'np4'
p201
g2
sS'rectx'
p202
g7
sS'np1'
p203
g7
sS'Lx'
p204
g7
sS'x21'
p205
g4
sS'model.in1'
p206
g2
sS'x[k-1]'
p207
g2
sS'HIT'
p208
g11
sS'xstR'
p209
g7
sS'xe[zz-1]'
p210
g2
sS'A[j+1-1][i-1]'
p211
g7
sS'sAmp2'
p212
g2
sS'TN'
p213
g2
sS'menus'
p214
g31
sS'sdelay'
p215
g2
sS'points'
p216
NsS'Q[i+N-1][i+N-1]'
p217
g7
sS'TA'
p218
g26
sS'Datam'
p219
g4
sS'model.sim'
p220
g31
sS'XMN'
p221
g7
sS'A[j+2-1][i+N+1-1]'
p222
g7
sS'a.data_bounds'
p223
g7
sS'menu_o'
p224
g2
sS'd'
p225
g7
sS'ye'
p226
g7
sS'X'
p227
g26
sS'Zt'
p228
g26
sS'fd'
p229
g7
sS'exprs[5-1]'
p230
g4
sS'graphics.exprs'
p231
NsS'phase'
p232
g7
sS'ZERO_POINT'
p233
g11
sS'typ'
p234
g2
sS'min5'
p235
g2
sS'a'
p236
g74
sS'mok'
p237
g11
sS'Orderm'
p238
g4
sS'A[j+2-1][i+N-1]'
p239
g7
sS'B[j-1]'
p240
g7
sS'ly21'
p241
g7
sS'y[zz-1]'
p242
g2
sS'A[j+2-1][i-1]'
p243
g7
sS'max5'
p244
g2
sS'exprs'
p245
g26
sS'exprs[3-1]'
p246
g7
sS'y[k-1]'
p247
g2
sS'At'
p248
g26
sS'y'
p249
g7
sS'model'
p250
g74
sS'order'
p251
g7
s.