c__builtin__
set
p0
((lp1
S'x'
p2
aS'model'
p3
atp4
Rp5
.(dp0
S'arg1'
p1
S'object'
p2
sS'rpar'
p3
S'matrix'
p4
sS'x.model'
p5
g2
sS'gc'
p6
S'vector'
p7
sS'model.out'
p8
S'double'
p9
sS'model.in1'
p10
g7
sS'x.graphics'
p11
NsS'model.firing'
p12
g7
sS'model.sim'
p13
S'string'
p14
sS'axisdata'
p15
g4
sS'model.rpar'
p16
g4
sS'yy'
p17
g4
sS'graphics'
p18
NsS'model.ipar'
p19
g4
sS'typ'
p20
g7
sS'rect'
p21
g7
sS'[xx,yy,ok,gc]'
p22
g9
sS'ok'
p23
S'boolean'
p24
sS'model.blocktype'
p25
g14
sS'xx'
p26
g4
sS'model.dep_ut'
p27
g7
sS'n'
p28
g9
sS'gr_i'
p29
g7
sS'ipar'
p30
g4
sS'y'
p31
g7
sS'x'
p32
g9
sS'model'
p33
g2
s.