c__builtin__
set
p0
((lp1
S'x'
p2
aS'model'
p3
aS'graphics'
p4
atp5
Rp6
.(dp0
S'rpar'
p1
S'matrix'
p2
sS'x.model'
p3
S'object'
p4
sS'gc'
p5
S'list'
p6
sS'model.out'
p7
S'double'
p8
sS'x.graphics'
p9
NsS'model.firing'
p10
S'vector'
p11
sS'model.sim'
p12
S'string'
p13
sS'axisdata'
p14
g2
sS'model.rpar'
p15
g2
sS'yy'
p16
g2
sS'model.in'
p17
g11
sS'model.ipar'
p18
g2
sS'typ'
p19
g11
sS'rect'
p20
g11
sS'ok'
p21
S'boolean'
p22
sS'model.blocktype'
p23
g13
sS'xx'
p24
g2
sS'model.dep_ut'
p25
S'vector_boolean'
p26
sS'n'
p27
g8
sS'gr_i'
p28
g11
sS'ipar'
p29
g2
sS'y'
p30
g11
sS'x'
p31
g11
sS'model'
p32
g4
s.