c__builtin__
set
p0
((lp1
S'x'
p2
aS'model'
p3
atp4
Rp5
.(dp0
S'arg1'
p1
S'object'
p2
sS'rpar'
p3
S'matrix'
p4
sS'x.model'
p5
g2
sS'gc'
p6
S'list'
p7
sS'model.out'
p8
S'double'
p9
sS'model.in1'
p10
S'vector'
p11
sS'x.graphics'
p12
NsS'model.firing'
p13
g11
sS'model.sim'
p14
S'string'
p15
sS'axisdata'
p16
g4
sS'model.rpar'
p17
g4
sS'yy'
p18
g4
sS'graphics'
p19
NsS'model.ipar'
p20
g4
sS'typ'
p21
g11
sS'rect'
p22
g11
sS'[xx,yy,ok,gc]'
p23
g9
sS'ok'
p24
S'boolean'
p25
sS'model.blocktype'
p26
g15
sS'xx'
p27
g4
sS'model.dep_ut'
p28
g11
sS'n'
p29
g9
sS'gr_i'
p30
g11
sS'ipar'
p31
g4
sS'y'
p32
g11
sS'x'
p33
g9
sS'model'
p34
g2
s.