c__builtin__
set
p0
((lp1
S'rparin'
p2
aS'yy'
p3
aS'xx'
p4
aS'ixy'
p5
aS'PeriodicOption'
p6
aS'argn'
p7
aS'xy'
p8
aS'x'
p9
aS'curwin'
p10
aS'Method'
p11
aS'graf'
p12
aS'iparin'
p13
atp14
Rp15
.(dp0
S'mean4'
p1
S'vector'
p2
sS'Sin_exprs'
p3
g2
sS'Ask_again'
p4
S'boolean'
p5
sS'Amp3'
p6
g2
sS'curwin'
p7
S'double'
p8
sS'Standm'
p9
S'string'
p10
sS'xmn'
p11
g8
sS'ymx'
p12
g8
sS'a.title.font_size'
p13
g8
sS'xmx'
p14
g8
sS'random_n_exprs'
p15
g2
sS'a.axes_visible'
p16
g10
sS'METHOD'
p17
g8
sS'ymn'
p18
g8
sS'NOrder'
p19
g8
sS'var4'
p20
g2
sS'a.title.foreground'
p21
g8
sS'model.rpar'
p22
S'matrix'
p23
sS'Pulse_exprs'
p24
g2
sS'dx'
p25
g8
sS'dy'
p26
g8
sS'a.clip_state'
p27
g10
sS'Pw3'
p28
g2
sS'oipar'
p29
g23
sS'MENU'
p30
g2
sS'this.yy'
p31
g2
sS'model.dep_ut'
p32
g2
sS'menu_s'
p33
g2
sS'Sawt1_exprs'
p34
g2
sS'sample4'
p35
g2
sS'sTp2'
p36
g2
sS'[ny,my]'
p37
g8
sS'exprs[1-1]'
p38
g8
sS'[nx,mx]'
p39
g8
sS'arg1'
p40
S'object'
p41
sS'this.x.model'
p42
NsS'Pd3'
p43
g2
sS'sAmp'
p44
g2
sS'sample5'
p45
g2
sS'a.title.font_style'
p46
g8
sS'orpar'
p47
g23
sS'menu_d'
p48
g2
sS'menu_e'
p49
g2
sS'r'
p50
g10
sS'seed4'
p51
g2
sS'seed5'
p52
g2
sS'model.evtin'
p53
g8
sS'menu_t'
p54
g2
sS'menu_r'
p55
g2
sS'PO'
p56
g8
sS'this.x'
p57
g8
sS'this.PeriodicOption'
p58
g10
sS'DChange'
p59
g5
sS'[Xdummy,Ydummy,orpar]'
p60
g8
sS'xy[N-1][2-1]'
p61
g8
sS'sTp'
p62
g2
sS'wp'
p63
g2
sS'New_methhod'
p64
g8
sS'PeridicOption'
p65
g8
sS'Graf'
p66
g10
sS'ok'
p67
g5
sS'w'
p68
g10
sS'offset'
p69
g2
sS'perop'
p70
g10
sS'xy'
p71
g2
sS'SaveExit'
p72
g5
sS'xp'
p73
g8
sS'this.ixy'
p74
g2
sS'this.Method'
p75
g8
sS'[orpar,oipar,ok]'
p76
g8
sS'rect'
p77
g23
sS'Amp'
p78
g2
sS'exprs[2-1]'
p79
g8
sS'model.firing'
p80
g8
sS'xy2'
p81
g2
sS'N'
p82
g8
sS'random_u_exprs'
p83
g2
sS'Sawt2_exprs'
p84
g2
sS'graphics'
p85
g41
sS'Exitm'
p86
g10
sS'N2'
p87
g8
sS'model.ipar'
p88
g23
sS'this.x.graphics'
p89
g41
sS'model.blocktype'
p90
g10
sS'f'
p91
g8
sS'a.grid'
p92
g2
sS'[this.xy]'
p93
g8
sS'gr_i'
p94
g2
sS'ipar'
p95
NsS'mtd'
p96
g8
sS'scam'
p97
g10
sS'exprs[4-1]'
p98
g10
sS'model.evtout'
p99
g8
sS'rpar'
p100
NsS'np5'
p101
g2
sS'Bias3'
p102
g2
sS'Tp3'
p103
g2
sS'model.out'
p104
g8
sS'np4'
p105
g2
sS'np1'
p106
g2
sS'[xy]'
p107
g8
sS'model.in1'
p108
g2
sS'sAmp2'
p109
g2
sS'this.xx'
p110
g2
sS'menus'
p111
g2
sS'sdelay'
p112
g2
sS'[lhs,rhs]'
p113
g8
sS'Datam'
p114
g10
sS'model.sim'
p115
g2
sS'a.data_bounds'
p116
g23
sS'menu_o'
p117
g2
sS'exprs[5-1]'
p118
g10
sS'graphics.exprs'
p119
NsS'phase'
p120
g2
sS'typ'
p121
g2
sS'min5'
p122
g2
sS'a'
p123
g41
sS'Orderm'
p124
g10
sS'max5'
p125
g2
sS'exprs'
p126
g23
sS'exprs[3-1]'
p127
g8
sS'y'
p128
g2
sS'model'
p129
g41
s.