c__builtin__
set
p0
((lp1
S'rparin'
p2
aS'yy'
p3
aS'xx'
p4
aS'ixy'
p5
aS'PeriodicOption'
p6
aS'argn'
p7
aS'xy'
p8
aS'x'
p9
aS'curwin'
p10
aS'Method'
p11
aS'graf'
p12
aS'iparin'
p13
atp14
Rp15
.(dp0
S'mean4'
p1
S'vector'
p2
sS'Sin_exprs'
p3
g2
sS'Ask_again'
p4
S'boolean'
p5
sS'Amp3'
p6
g2
sS'curwin'
p7
S'double'
p8
sS'Standm'
p9
S'string'
p10
sS'xmn'
p11
g8
sS'ymx'
p12
g8
sS'a.title.font_size'
p13
g8
sS'xmx'
p14
g8
sS'random_n_exprs'
p15
g2
sS'a.axes_visible'
p16
g10
sS'METHOD'
p17
g8
sS'PeriodicOption'
p18
g10
sS'ymn'
p19
g8
sS'NOrder'
p20
g8
sS'var4'
p21
g2
sS'a.title.foreground'
p22
g8
sS'model.rpar'
p23
S'matrix'
p24
sS'yy'
p25
g2
sS'Pulse_exprs'
p26
g2
sS'dx'
p27
g8
sS'dy'
p28
g8
sS'a.clip_state'
p29
g10
sS'model.blocktype'
p30
g10
sS'oipar'
p31
g24
sS'MENU'
p32
g2
sS'x.model'
p33
NsS'model.dep_ut'
p34
g2
sS'menu_s'
p35
g2
sS'Sawt1_exprs'
p36
g2
sS'sample4'
p37
g2
sS'sTp2'
p38
g2
sS'x'
p39
g8
sS'[ny,my]'
p40
g8
sS'exprs[1-1]'
p41
g8
sS'[nx,mx]'
p42
g8
sS'arg1'
p43
S'object'
p44
sS'Pd3'
p45
g2
sS'sAmp'
p46
g2
sS'sample5'
p47
g2
sS'a.title.font_style'
p48
g8
sS'orpar'
p49
g24
sS'x.graphics'
p50
g44
sS'menu_d'
p51
g2
sS'menu_e'
p52
g2
sS'r'
p53
g10
sS'seed4'
p54
g2
sS'seed5'
p55
g2
sS'model.evtin'
p56
g8
sS'menu_t'
p57
g2
sS'menu_r'
p58
g2
sS'PO'
p59
g8
sS'DChange'
p60
g5
sS'[Xdummy,Ydummy,orpar]'
p61
g8
sS'xy[N-1][2-1]'
p62
g8
sS'sTp'
p63
g2
sS'wp'
p64
g2
sS'New_methhod'
p65
g8
sS'PeridicOption'
p66
g8
sS'Graf'
p67
g10
sS'ok'
p68
g5
sS'w'
p69
g10
sS'offset'
p70
g2
sS'perop'
p71
g10
sS'xx'
p72
g2
sS'xy'
p73
g2
sS'SaveExit'
p74
g5
sS'xp'
p75
g8
sS'Method'
p76
g8
sS'[orpar,oipar,ok]'
p77
g8
sS'ixy'
p78
g2
sS'rect'
p79
g24
sS'Amp'
p80
g2
sS'exprs[2-1]'
p81
g8
sS'model.firing'
p82
g8
sS'xy2'
p83
g2
sS'N'
p84
g8
sS'random_u_exprs'
p85
g2
sS'Sawt2_exprs'
p86
g2
sS'graphics'
p87
g44
sS'Exitm'
p88
g10
sS'N2'
p89
g8
sS'model.ipar'
p90
g24
sS'Pw3'
p91
g2
sS'f'
p92
g8
sS'a.grid'
p93
g2
sS'[this.xy]'
p94
g8
sS'gr_i'
p95
g2
sS'ipar'
p96
NsS'mtd'
p97
g8
sS'scam'
p98
g10
sS'exprs[4-1]'
p99
g10
sS'model.evtout'
p100
g8
sS'rpar'
p101
NsS'np5'
p102
g2
sS'Bias3'
p103
g2
sS'Tp3'
p104
g2
sS'model.out'
p105
g8
sS'np4'
p106
g2
sS'np1'
p107
g2
sS'[xy]'
p108
g8
sS'model.in1'
p109
g2
sS'sAmp2'
p110
g2
sS'menus'
p111
g2
sS'sdelay'
p112
g2
sS'[lhs,rhs]'
p113
g8
sS'Datam'
p114
g10
sS'model.sim'
p115
g2
sS'a.data_bounds'
p116
g24
sS'menu_o'
p117
g2
sS'exprs[5-1]'
p118
g10
sS'graphics.exprs'
p119
NsS'phase'
p120
g2
sS'typ'
p121
g2
sS'min5'
p122
g2
sS'a'
p123
g44
sS'Orderm'
p124
g10
sS'max5'
p125
g2
sS'exprs'
p126
g24
sS'exprs[3-1]'
p127
g8
sS'y'
p128
g2
sS'model'
p129
g44
s.