c__builtin__
set
p0
((lp1
S'x'
p2
atp3
Rp4
.(dp0
S'arg1'
p1
S'object'
p2
sS'rpar'
p3
S'matrix'
p4
sS'xx'
p5
g4
sS'gc'
p6
S'vector'
p7
sS'this.x.model'
p8
g2
sS'model.out'
p9
S'double'
p10
sS'model.in1'
p11
g7
sS'typ'
p12
g7
sS'model.firing'
p13
g7
sS'this.x'
p14
g10
sS'model.sim'
p15
S'string'
p16
sS'axisdata'
p17
g4
sS'model.rpar'
p18
g4
sS'yy'
p19
g4
sS'graphics'
p20
NsS'model.ipar'
p21
g4
sS'this.x.graphics'
p22
NsS'rect'
p23
g7
sS'[xx,yy,ok,gc]'
p24
g10
sS'ok'
p25
S'boolean'
p26
sS'model.blocktype'
p27
g16
sS'model.dep_ut'
p28
g7
sS'n'
p29
g10
sS'gr_i'
p30
g7
sS'ipar'
p31
g4
sS'y'
p32
g7
sS'model'
p33
g10
s.