c__builtin__
set
p0
((lp1
S'x'
p2
aS'model'
p3
aS'graphics'
p4
atp5
Rp6
.(dp0
S'arg1'
p1
S'object'
p2
sS'rpar'
p3
S'matrix'
p4
sS'x.model'
p5
g2
sS'gc'
p6
S'list'
p7
sS'model.out'
p8
S'double'
p9
sS'model.in1'
p10
S'vector'
p11
sS'x.graphics'
p12
NsS'model.firing'
p13
g11
sS'model.sim'
p14
S'string'
p15
sS'axisdata'
p16
g4
sS'model.rpar'
p17
g4
sS'yy'
p18
g4
sS'graphics'
p19
NsS'model.ipar'
p20
g4
sS'typ'
p21
g11
sS'rect'
p22
g11
sS'ok'
p23
S'boolean'
p24
sS'model.blocktype'
p25
g15
sS'xx'
p26
g4
sS'model.dep_ut'
p27
g11
sS'n'
p28
g9
sS'gr_i'
p29
g11
sS'ipar'
p30
g4
sS'y'
p31
g11
sS'x'
p32
g9
sS'model'
p33
g2
s.