c__builtin__
set
p0
((lp1
S'mean4'
p2
aS'ymn1'
p3
aS'inrpar'
p4
aS'sok'
p5
aS'offset'
p6
aS'Pd3'
p7
aS'Sawt1_exprs2'
p8
aS'random_n_exprs2'
p9
aS'xx'
p10
aS'xy'
p11
aS'Tp3'
p12
aS'iparin'
p13
aS'xmn1'
p14
aS'np4'
p15
aS'np5'
p16
aS'Amp3'
p17
aS'curwin'
p18
aS'sAmp'
p19
aS'np1'
p20
aS'Method'
p21
aS'xt'
p22
aS'sample5'
p23
aS'Pulse_exprs2'
p24
aS'Cx'
p25
aS'filen'
p26
aS'xa'
p27
aS'random_u_exprs2'
p28
aS'sAmp2'
p29
aS'zok'
p30
aS'iipar'
p31
aS'yt'
p32
aS'sdelay'
p33
aS'ixy'
p34
aS'seed4'
p35
aS'seed5'
p36
aS'Sawt2_exprs2'
p37
aS'Amp'
p38
aS'PeriodicOption'
p39
aS'var4'
p40
aS'ymx1'
p41
aS'Cformat'
p42
aS'ya'
p43
aS'Bias3'
p44
aS'xls_open'
p45
aS'myans'
p46
aS'xmx1'
p47
aS'inipar'
p48
aS'xls_read'
p49
aS'sTp'
p50
aS'Sin_exprs2'
p51
aS'argn'
p52
aS'wp'
p53
aS'phase'
p54
aS'min5'
p55
aS'mok'
p56
aS'Pw3'
p57
aS'sheetN'
p58
aS'xgetmouse'
p59
aS'max5'
p60
aS'rparin'
p61
aS'sample4'
p62
aS'Cy'
p63
aS'sTp2'
p64
aS'yy'
p65
aS'x'
p66
aS'model'
p67
aS'ORDER2'
p68
aS'irpar'
p69
aS'graf'
p70
aS'xye'
p71
atp72
Rp73
.(dp0
S'mean4'
p1
S'vector'
p2
sS'dist'
p3
S'string'
p4
sS'Sin_exprs'
p5
NsS'ya'
p6
S'double'
p7
sS'xenR'
p8
g7
sS'[orpar,oipar]'
p9
g7
sS'Y[j-1]'
p10
g7
sS'NC'
p11
g7
sS'Ask_again'
p12
S'boolean'
p13
sS'y1'
p14
g4
sS'Amp3'
p15
g2
sS'curwin'
p16
g7
sS'Standm'
p17
g4
sS'xenC'
p18
g4
sS'yenR'
p19
g7
sS'a.title.text'
p20
g2
sS'xmn'
p21
g7
sS'x1'
p22
g4
sS'ye[zz-1]'
p23
g2
sS'lx21'
p24
g7
sS'xstC'
p25
g4
sS'ymx'
p26
g7
sS'Zt'
p27
S'matrix'
p28
sS'[this.xy,rpar,ipar]'
p29
g7
sS'[xtt,k2]'
p30
g7
sS'Bt'
p31
g28
sS'a.title.font_size'
p32
g7
sS'xmx'
p33
g7
sS'x1p'
p34
g7
sS'random_n_exprs'
p35
S'list'
p36
sS'a.axes_visible'
p37
g4
sS'METHOD'
p38
g7
sS'PeriodicOption'
p39
g4
sS'ymn'
p40
g7
sS'NOrder'
p41
g7
sS'var4'
p42
g2
sS'xa'
p43
g7
sS'yo'
p44
g7
sS'y22'
p45
g4
sS'[sok]'
p46
g7
sS'YMX'
p47
g7
sS'yc'
p48
g7
sS'a.title.foreground'
p49
g7
sS'model.rpar'
p50
g28
sS'yy'
p51
g2
sS'x[zz-1]'
p52
g2
sS'Pulse_exprs'
p53
NsS'dx'
p54
g7
sS'dy'
p55
g7
sS'random_n_exprs2'
p56
g36
sS'a.clip_state'
p57
g4
sS'yt'
p58
g7
sS'model.blocktype'
p59
g4
sS'x21'
p60
g4
sS'splines'
p61
NsS'oipar'
p62
NsS'MENU'
p63
g2
sS't4'
p64
g4
sS't5'
p65
g4
sS't2'
p66
g4
sS'x.model'
p67
NsS'model.dep_ut'
p68
g2
sS'menu_s'
p69
g2
sS'Sawt1_exprs'
p70
NsS'sample4'
p71
g2
sS'sTp2'
p72
g2
sS'x'
p73
g7
sS'x12'
p74
g4
sS'[ny,my]'
p75
g7
sS'exprs[1-1]'
p76
g4
sS'points.data'
p77
g2
sS'j'
p78
g4
sS'[nx,mx]'
p79
g7
sS'x11'
p80
g4
sS'arg1'
p81
S'object'
p82
sS'Pd3'
p83
g2
sS't3'
p84
g4
sS'ey'
p85
g7
sS'ex'
p86
g7
sS'zz'
p87
g7
sS'sAmp'
p88
g2
sS'a.children[2-1]'
p89
g82
sS'sample5'
p90
g2
sS'a.title.font_style'
p91
g7
sS'y2'
p92
g4
sS'orpar'
p93
g2
sS'x.graphics'
p94
g82
sS'A[j+2-1][i+N+1-1]'
p95
g7
sS'menu_d'
p96
g2
sS'menu_e'
p97
g2
sS'ye[$+1-1]'
p98
g7
sS'xy[zz-1].slice()'
p99
g2
sS'A[j+1-1][i+N-1]'
p100
g7
sS'a.children[1-1]'
p101
g82
sS'y1p'
p102
g7
sS'r'
p103
g4
sS'seed4'
p104
g2
sS'seed5'
p105
g2
sS'B[j+1-1]'
p106
g7
sS'model.evtin'
p107
g7
sS'y21'
p108
g4
sS'menu_t'
p109
g2
sS'menu_r'
p110
g2
sS'PO'
p111
g7
sS'x22'
p112
g4
sS'C'
p113
g2
sS'DChange'
p114
g13
sS'Cformat'
p115
g4
sS'[Xdummy,Ydummy,orpar]'
p116
g7
sS'rep'
p117
g7
sS'ymx1'
p118
g7
sS'xy[N-1][2-1]'
p119
g7
sS'ipar[3-1]'
p120
g7
sS'sTp'
p121
g2
sS'wp'
p122
g2
sS'ystC'
p123
g4
sS'New_methhod'
p124
g7
sS'PeridicOption'
p125
g7
sS'Graf'
p126
g4
sS'Q'
p127
g7
sS'ok'
p128
g13
sS'ly11'
p129
g7
sS'xy[k-1].slice()'
p130
g2
sS'Z'
p131
g2
sS'Cmenu'
p132
g4
sS'[xo,k2]'
p133
g7
sS'periodicoption'
p134
g7
sS'w'
p135
g4
sS'a.x_ticks'
p136
g82
sS'y2p'
p137
g7
sS'A[j+1-1][i+2*N-1]'
p138
g7
sS'YMN'
p139
g7
sS'Q[i-1][i+N-1]'
p140
g7
sS'y11'
p141
g4
sS'x2p'
p142
g7
sS'y12'
p143
g4
sS'Lx'
p144
g7
sS'py'
p145
g7
sS'xyt'
p146
g2
sS'xo'
p147
g28
sS'ipar[2-1]'
p148
g7
sS'[mv,nv]'
p149
g7
sS'xc'
p150
g7
sS'sok'
p151
g13
sS'offset'
p152
g2
sS'splines.data'
p153
g2
sS'perop'
p154
g4
sS'xe'
p155
g7
sS'Y'
p156
g7
sS'xx'
p157
g2
sS'xy'
p158
g2
sS'btn'
p159
g7
sS'xye'
p160
g2
sS'xe[$+1-1]'
p161
g7
sS'SaveExit'
p162
g13
sS'xp'
p163
g7
sS'Method'
p164
g7
sS'xt'
p165
g28
sS'xyo'
p166
g2
sS'Q[i-1][i-1]'
p167
g7
sS'ystR'
p168
g7
sS'A[j-1][i+2*N-1]'
p169
g7
sS'random_u_exprs2'
p170
g36
sS'px'
p171
g7
sS'[orpar,oipar,ok]'
p172
g7
sS'tok'
p173
g13
sS'ixy'
p174
g2
sS'rect'
p175
g28
sS'NP'
p176
g7
sS'Amp'
p177
g2
sS'x2'
p178
g4
sS'exprs[2-1]'
p179
g7
sS'model.firing'
p180
g7
sS'xy2'
p181
g2
sS'B'
p182
g7
sS'A'
p183
g7
sS'[Value,TextInd]'
p184
g7
sS'yenC'
p185
g4
sS'N'
p186
g7
sS'[this.xye]'
p187
g7
sS'random_u_exprs'
p188
g36
sS'Sawt2_exprs'
p189
NsS'[btn,xc,yc,win,Cmenu]'
p190
g7
sS'graphics'
p191
g82
sS'Exitm'
p192
g4
sS'N2'
p193
g7
sS'model.ipar'
p194
g28
sS'[xyo]'
p195
g7
sS'Pw3'
p196
g2
sS'f'
p197
g7
sS'a.grid'
p198
g2
sS'y[N-1]'
p199
g7
sS'[dca,k]'
p200
g7
sS'[this.xt,k2]'
p201
g7
sS'[this.xy]'
p202
g7
sS'gr_i'
p203
g2
sS'ipar'
p204
g2
sS'[rpar,ipar]'
p205
g7
sS'mtd'
p206
g7
sS'PERIODIC'
p207
g4
sS'xmx1'
p208
g7
sS'scam'
p209
g4
sS'exprs[4-1]'
p210
g4
sS'ans0'
p211
g4
sS'ymn1'
p212
g7
sS't1'
p213
g4
sS'model.evtout'
p214
g7
sS'rpar'
p215
g2
sS'lx11'
p216
g7
sS'np5'
p217
g2
sS'Bias3'
p218
g2
sS'Tp3'
p219
g2
sS'model.out'
p220
g7
sS'np4'
p221
g2
sS'rectx'
p222
g7
sS'np1'
p223
g7
sS'[X,Y,orpar]'
p224
g7
sS'[xy]'
p225
g7
sS'model.in1'
p226
g2
sS'x[k-1]'
p227
g2
sS'HIT'
p228
g13
sS'xstR'
p229
g7
sS'xe[zz-1]'
p230
g2
sS'A[j+1-1][i-1]'
p231
g7
sS'sAmp2'
p232
g2
sS'TN'
p233
g2
sS'menus'
p234
g36
sS'sdelay'
p235
g2
sS'points'
p236
NsS'[lhs,rhs]'
p237
g7
sS'Q[i+N-1][i+N-1]'
p238
g7
sS'TA'
p239
g28
sS'Datam'
p240
g4
sS'model.sim'
p241
g36
sS'XMN'
p242
g7
sS'[tok,xytt]'
p243
g7
sS'a.data_bounds'
p244
g7
sS'menu_o'
p245
g2
sS'd'
p246
g7
sS'ye'
p247
g7
sS'X'
p248
g28
sS'[fd,SST,Sheetnames,Sheetpos]'
p249
g7
sS'fd'
p250
g7
sS'exprs[5-1]'
p251
g4
sS'graphics.exprs'
p252
NsS'phase'
p253
g7
sS'ZERO_POINT'
p254
g13
sS'typ'
p255
g2
sS'min5'
p256
g2
sS'[nD,mD]'
p257
g7
sS'a'
p258
g82
sS'mok'
p259
g13
sS'Orderm'
p260
g4
sS'A[j+2-1][i+N-1]'
p261
g7
sS'B[j-1]'
p262
g7
sS'ly21'
p263
g7
sS'y[zz-1]'
p264
g2
sS'A[j+2-1][i-1]'
p265
g7
sS'max5'
p266
g2
sS'exprs'
p267
g28
sS'exprs[3-1]'
p268
g7
sS'y[k-1]'
p269
g2
sS'At'
p270
g28
sS'y'
p271
g7
sS'XMX'
p272
g7
sS'model'
p273
g82
sS'order'
p274
g7
sS'Q[i+N-1][i-1]'
p275
g7
s.