c__builtin__
set
p0
((lp1
S'mean4'
p2
aS'ymn1'
p3
aS'inrpar'
p4
aS'sok'
p5
aS'graphics'
p6
aS'Pd3'
p7
aS'Sawt1_exprs2'
p8
aS'random_n_exprs2'
p9
aS'xx'
p10
aS'xy'
p11
aS'Tp3'
p12
aS'iparin'
p13
aS'xmn1'
p14
aS'np4'
p15
aS'np5'
p16
aS'Amp3'
p17
aS'curwin'
p18
aS'sAmp'
p19
aS'np1'
p20
aS'Method'
p21
aS'xt'
p22
aS'sample5'
p23
aS'Pulse_exprs2'
p24
aS'Cx'
p25
aS'filen'
p26
aS'xa'
p27
aS'random_u_exprs2'
p28
aS'sAmp2'
p29
aS'zok'
p30
aS'offset'
p31
aS'yt'
p32
aS'sdelay'
p33
aS'ixy'
p34
aS'seed4'
p35
aS'seed5'
p36
aS'Sawt2_exprs2'
p37
aS'Amp'
p38
aS'PeriodicOption'
p39
aS'var4'
p40
aS'ymx1'
p41
aS'Cformat'
p42
aS'ya'
p43
aS'Bias3'
p44
aS'xls_open'
p45
aS'myans'
p46
aS'xmx1'
p47
aS'inipar'
p48
aS'xls_read'
p49
aS'sTp'
p50
aS'Sin_exprs2'
p51
aS'argn'
p52
aS'wp'
p53
aS'phase'
p54
aS'iipar'
p55
aS'min5'
p56
aS'mok'
p57
aS'Pw3'
p58
aS'sheetN'
p59
aS'xgetmouse'
p60
aS'max5'
p61
aS'rparin'
p62
aS'sample4'
p63
aS'Cy'
p64
aS'sTp2'
p65
aS'yy'
p66
aS'x'
p67
aS'model'
p68
aS'ORDER2'
p69
aS'irpar'
p70
aS'graf'
p71
aS'xye'
p72
atp73
Rp74
.(dp0
S'mean4'
p1
S'vector'
p2
sS'dist'
p3
S'string'
p4
sS'Sin_exprs'
p5
NsS'xenR'
p6
S'double'
p7
sS'x2'
p8
g4
sS'Y[j-1]'
p9
g7
sS'Ask_again'
p10
S'boolean'
p11
sS'y1'
p12
g4
sS'Amp3'
p13
g2
sS'curwin'
p14
g7
sS'Standm'
p15
g4
sS'xenC'
p16
g4
sS'yenR'
p17
g7
sS'a.title.text'
p18
S'vector_string'
p19
sS'xmn'
p20
g7
sS'x1'
p21
g4
sS'ye[zz-1]'
p22
g2
sS'lx21'
p23
g7
sS'xstC'
p24
g4
sS'ymx'
p25
g7
sS'Bt'
p26
S'matrix'
p27
sS'a.title.font_size'
p28
g7
sS'xmx'
p29
g7
sS'x1p'
p30
g7
sS'random_n_exprs'
p31
S'list'
p32
sS'a.axes_visible'
p33
g4
sS'METHOD'
p34
g7
sS'PeriodicOption'
p35
g4
sS'ymn'
p36
g7
sS'NOrder'
p37
g7
sS'var4'
p38
g2
sS'xa'
p39
g7
sS'yo'
p40
g7
sS'y22'
p41
g4
sS'ya'
p42
g7
sS'YMX'
p43
g7
sS'yc'
p44
g7
sS'a.title.foreground'
p45
g7
sS'model.rpar'
p46
g27
sS'yy'
p47
g2
sS'x[zz-1]'
p48
g2
sS'Pulse_exprs'
p49
NsS'dx'
p50
g7
sS'dy'
p51
g7
sS'random_n_exprs2'
p52
g32
sS'a.clip_state'
p53
g4
sS'yt'
p54
g7
sS'model.blocktype'
p55
g4
sS'splines'
p56
NsS'oipar'
p57
NsS'MENU'
p58
g19
sS't4'
p59
g4
sS't5'
p60
g4
sS't2'
p61
g4
sS'x.model'
p62
NsS'model.dep_ut'
p63
S'vector_boolean'
p64
sS'menu_s'
p65
g2
sS'sample5'
p66
g2
sS'sample4'
p67
g2
sS'sTp2'
p68
g2
sS'x'
p69
g7
sS'x12'
p70
g4
sS'exprs[1-1]'
p71
g4
sS'points.data'
p72
g2
sS'j'
p73
g4
sS'x11'
p74
g4
sS'arg1'
p75
S'object'
p76
sS'Pd3'
p77
g2
sS't3'
p78
g4
sS'ey'
p79
g7
sS'ex'
p80
g7
sS'zz'
p81
g7
sS'sAmp'
p82
g2
sS'a.children[2-1]'
p83
g76
sS'Sawt1_exprs'
p84
NsS'a.title.font_style'
p85
g7
sS'y2'
p86
g4
sS'orpar'
p87
g2
sS'x.graphics'
p88
g76
sS'menu_d'
p89
g19
sS'menu_e'
p90
g19
sS'ye[$+1-1]'
p91
g7
sS'A[j+1-1][i+N-1]'
p92
g7
sS'a.children[1-1]'
p93
g76
sS'y1p'
p94
g7
sS'r'
p95
g4
sS'seed4'
p96
g2
sS'seed5'
p97
g2
sS'B[j+1-1]'
p98
g7
sS'model.evtin'
p99
g7
sS'y21'
p100
g4
sS'menu_t'
p101
g19
sS'menu_r'
p102
g2
sS'PO'
p103
g7
sS'x22'
p104
g4
sS'C'
p105
g2
sS'DChange'
p106
g11
sS'Cformat'
p107
g4
sS'Q[i+N-1][i-1]'
p108
g7
sS'rep'
p109
g7
sS'ymx1'
p110
g7
sS'xy[N-1][2-1]'
p111
g7
sS'ipar[3-1]'
p112
g7
sS'sTp'
p113
g2
sS'wp'
p114
g2
sS'New_methhod'
p115
g7
sS'PeridicOption'
p116
g7
sS'Graf'
p117
g4
sS'Q'
p118
g7
sS'ok'
p119
g11
sS'ly11'
p120
g7
sS'xy[k-1].slice()'
p121
g2
sS'Z'
p122
g2
sS'Cmenu'
p123
g4
sS'periodicoption'
p124
g7
sS'w'
p125
g4
sS'a.x_ticks'
p126
g76
sS'y2p'
p127
g7
sS'A[j+1-1][i+2*N-1]'
p128
g7
sS'YMN'
p129
g7
sS'Q[i-1][i+N-1]'
p130
g7
sS'y11'
p131
g4
sS'x2p'
p132
g7
sS'y12'
p133
g4
sS'NC'
p134
g7
sS'xyt'
p135
g2
sS'xo'
p136
g27
sS'ipar[2-1]'
p137
g7
sS'xc'
p138
g7
sS'sok'
p139
g11
sS'offset'
p140
g2
sS'splines.data'
p141
g2
sS'perop'
p142
g4
sS'xe'
p143
g7
sS'Y'
p144
g7
sS'xx'
p145
g2
sS'xy'
p146
g2
sS'btn'
p147
g7
sS'xye'
p148
g2
sS'xe[$+1-1]'
p149
g7
sS'SaveExit'
p150
g11
sS'xp'
p151
g7
sS'Method'
p152
g7
sS'xt'
p153
g27
sS'xyo'
p154
g2
sS'Q[i-1][i-1]'
p155
g7
sS'ystR'
p156
g7
sS'A[j-1][i+2*N-1]'
p157
g7
sS'random_u_exprs2'
p158
g32
sS'px'
p159
g7
sS'py'
p160
g7
sS'tok'
p161
g11
sS'ixy'
p162
g2
sS'rect'
p163
g27
sS'NP'
p164
g7
sS'Amp'
p165
g2
sS'exprs[2-1]'
p166
g7
sS'model.firing'
p167
g7
sS'xy2'
p168
g2
sS'B'
p169
g7
sS'A'
p170
g7
sS'yenC'
p171
g4
sS'N'
p172
g7
sS'random_u_exprs'
p173
g32
sS'Sawt2_exprs'
p174
NsS'XMX'
p175
g7
sS'model.in'
p176
g2
sS'graphics'
p177
g76
sS'Exitm'
p178
g4
sS'N2'
p179
g7
sS'model.ipar'
p180
g27
sS'Pw3'
p181
g2
sS'f'
p182
g7
sS'a.grid'
p183
g2
sS'y[N-1]'
p184
g7
sS'xy[zz-1].slice()'
p185
g2
sS'gr_i'
p186
g2
sS'ipar'
p187
g2
sS'ystC'
p188
g4
sS'mtd'
p189
g7
sS'PERIODIC'
p190
g4
sS'xmx1'
p191
g7
sS'scam'
p192
g4
sS'exprs[4-1]'
p193
g4
sS'ans0'
p194
g4
sS'ymn1'
p195
g7
sS't1'
p196
g4
sS'model.evtout'
p197
g7
sS'rpar'
p198
g2
sS'lx11'
p199
g7
sS'model.out'
p200
g7
sS'Bias3'
p201
g2
sS'Tp3'
p202
g2
sS'np5'
p203
g2
sS'np4'
p204
g2
sS'rectx'
p205
g7
sS'np1'
p206
g7
sS'Lx'
p207
g7
sS'x21'
p208
g4
sS'x[k-1]'
p209
g2
sS'HIT'
p210
g11
sS'xstR'
p211
g7
sS'xe[zz-1]'
p212
g2
sS'A[j+1-1][i-1]'
p213
g7
sS'sAmp2'
p214
g2
sS'TN'
p215
g19
sS'menus'
p216
g32
sS'sdelay'
p217
g2
sS'points'
p218
NsS'Q[i+N-1][i+N-1]'
p219
g7
sS'TA'
p220
g27
sS'Datam'
p221
g4
sS'model.sim'
p222
g32
sS'XMN'
p223
g7
sS'A[j+2-1][i+N+1-1]'
p224
g7
sS'a.data_bounds'
p225
g7
sS'menu_o'
p226
g19
sS'd'
p227
g7
sS'ye'
p228
g7
sS'X'
p229
g27
sS'Zt'
p230
g27
sS'fd'
p231
g7
sS'exprs[5-1]'
p232
g4
sS'graphics.exprs'
p233
NsS'phase'
p234
g7
sS'ZERO_POINT'
p235
g11
sS'typ'
p236
g2
sS'min5'
p237
g2
sS'a'
p238
g76
sS'mok'
p239
g11
sS'Orderm'
p240
g4
sS'A[j+2-1][i+N-1]'
p241
g7
sS'B[j-1]'
p242
g7
sS'ly21'
p243
g7
sS'y[zz-1]'
p244
g2
sS'A[j+2-1][i-1]'
p245
g7
sS'max5'
p246
g2
sS'exprs'
p247
g27
sS'exprs[3-1]'
p248
g7
sS'y[k-1]'
p249
g2
sS'At'
p250
g27
sS'y'
p251
g7
sS'model'
p252
g76
sS'order'
p253
g7
s.