c__builtin__
set
p0
((lp1
S'x'
p2
aS'model'
p3
aS'gr_i'
p4
aS'exprs'
p5
aS'graphics'
p6
atp7
Rp8
.(dp0
S'arg1'
p1
S'object'
p2
sS'rpar'
p3
S'matrix'
p4
sS'x.model'
p5
g2
sS'gc'
p6
S'list'
p7
sS'model.out'
p8
S'double'
p9
sS'x.graphics'
p10
NsS'model.firing'
p11
S'vector'
p12
sS'model.sim'
p13
S'string'
p14
sS'axisdata'
p15
g4
sS'model.rpar'
p16
g4
sS'yy'
p17
g4
sS'model.in'
p18
g12
sS'graphics'
p19
NsS'model.ipar'
p20
g4
sS'typ'
p21
g12
sS'rect'
p22
g12
sS'ok'
p23
S'boolean'
p24
sS'model.blocktype'
p25
g14
sS'xx'
p26
g4
sS'model.dep_ut'
p27
S'vector_boolean'
p28
sS'n'
p29
g9
sS'gr_i'
p30
g12
sS'ipar'
p31
g4
sS'y'
p32
g12
sS'x'
p33
NsS'model'
p34
g2
s.