c__builtin__
set
p0
((lp1
S'_str2code'
p2
aS'ZC'
p3
aS'OutEnd'
p4
aS'graphics'
p5
aS'x'
p6
aS'model'
p7
aS'Method'
p8
aS'varnam'
p9
atp10
Rp11
.(dp0
S'graphics'
p1
S'object'
p2
sS'ierr'
p3
S'double'
p4
sS'x.model'
p5
NsS'OutEnd'
p6
g4
sS'model.out'
p7
g4
sS'Method'
p8
g4
sS'varnam'
p9
S'string'
p10
sS'x.graphics'
p11
g2
sS'gr_i'
p12
S'vector'
p13
sS'model.evtin'
p14
g13
sS'model.firing'
p15
g13
sS'model.sim'
p16
S'list'
p17
sS'model.evtout'
p18
g13
sS'model.out2'
p19
g4
sS'ZC'
p20
g4
sS'y'
p21
g13
sS'graphics.exprs'
p22
NsS'model.ipar'
p23
S'matrix'
p24
sS'typ'
p25
g13
sS'ok'
p26
S'boolean'
p27
sS'model.blocktype'
p28
g10
sS'model.dep_ut'
p29
S'vector_boolean'
p30
sS'exprs'
p31
g24
sS'r'
p32
g27
sS'model.outtyp'
p33
g4
sS'x'
p34
g13
sS'model'
p35
g2
s.