c__builtin__
set
p0
((lp1
S'_str2code'
p2
aS'ZC'
p3
aS'OutEnd'
p4
aS'x'
p5
aS'Method'
p6
aS'varnam'
p7
atp8
Rp9
.(dp0
S'arg1'
p1
S'object'
p2
sS'graphics'
p3
g2
sS'ierr'
p4
S'double'
p5
sS'model.dep_ut'
p6
S'vector'
p7
sS'this.x.model'
p8
NsS'model.out'
p9
g5
sS'typ'
p10
g7
sS'this.Method'
p11
g5
sS'gr_i'
p12
g7
sS'model.evtin'
p13
g7
sS'model.firing'
p14
g7
sS'this.x'
p15
g5
sS'model.sim'
p16
g7
sS'model.evtout'
p17
g7
sS'model.out2'
p18
g5
sS'this.varnam'
p19
S'string'
p20
sS'model.outtyp'
p21
g5
sS'graphics.exprs'
p22
NsS'model.ipar'
p23
S'matrix'
p24
sS'this.x.graphics'
p25
g2
sS'[model,graphics,ok]'
p26
g5
sS'ok'
p27
S'boolean'
p28
sS'model.blocktype'
p29
g20
sS'this.ZC'
p30
g5
sS'this.OutEnd'
p31
g5
sS'exprs'
p32
g24
sS'r'
p33
g28
sS'y'
p34
g7
sS'model'
p35
g5
s.