c__builtin__
set
p0
((lp1
S'_str2code'
p2
aS'ZC'
p3
aS'OutEnd'
p4
aS'x'
p5
aS'model'
p6
aS'Method'
p7
aS'varnam'
p8
atp9
Rp10
.(dp0
S'arg1'
p1
S'object'
p2
sS'graphics'
p3
g2
sS'ierr'
p4
S'double'
p5
sS'x.model'
p6
NsS'OutEnd'
p7
g5
sS'model.out'
p8
g5
sS'Method'
p9
g5
sS'varnam'
p10
S'string'
p11
sS'x.graphics'
p12
g2
sS'gr_i'
p13
S'vector'
p14
sS'model.evtin'
p15
g14
sS'model.firing'
p16
g14
sS'model.sim'
p17
S'list'
p18
sS'model.evtout'
p19
g14
sS'[this.model,graphics,ok]'
p20
g5
sS'model.out2'
p21
g5
sS'ZC'
p22
g5
sS'model.outtyp'
p23
g5
sS'graphics.exprs'
p24
NsS'model.ipar'
p25
S'matrix'
p26
sS'typ'
p27
g14
sS'ok'
p28
S'boolean'
p29
sS'model.blocktype'
p30
g11
sS'model.dep_ut'
p31
g14
sS'exprs'
p32
g26
sS'r'
p33
g29
sS'y'
p34
g14
sS'x'
p35
g5
sS'model'
p36
g2
s.