c__builtin__
set
p0
((lp1
S'exprs'
p2
aS'gr_i'
p3
aS'graphics'
p4
aS'x'
p5
aS'model'
p6
aS'xxn'
p7
atp8
Rp9
.(dp0
S'ppath'
p1
S'list'
p2
sS'arg1'
p3
S'object'
p4
sS'scs_m_1.objs[3-1]'
p5
S'double'
p6
sS'xx'
p7
g4
sS'spath[$+1-1]'
p8
g6
sS'eq'
p9
g4
sS'newpar[size(newpar)+1-1]'
p10
NsS'scs_m_1'
p11
g6
sS'eqn'
p12
g4
sS'np'
p13
g6
sS'scs_m_1.objs[2-1]'
p14
g6
sS'spath'
p15
g2
sS'newpar'
p16
g2
sS'model_n'
p17
g4
sS'arg1[spath-1]'
p18
g4
sS'scs_m_1.objs[4-1]'
p19
g6
sS'typ'
p20
g2
sS'xxn'
p21
g4
sS'needcompile'
p22
g6
sS'arg1.model'
p23
g4
sS'scs_m_1.objs[1-1]'
p24
g6
sS'modified'
p25
g6
sS'o'
p26
g4
sS'gr_i'
p27
S'vector'
p28
sS'y'
p29
g6
sS'x'
p30
g4
sS'model'
p31
g4
sS'arg1.model.rpar'
p32
g4
s.