c__builtin__
set
p0
((lp1
S'x'
p2
aS'model'
p3
aS'xxn'
p4
aS'graphics'
p5
atp6
Rp7
.(dp0
S'ppath'
p1
S'list'
p2
sS'scs_m_1.objs[3-1]'
p3
S'double'
p4
sS'xx'
p5
S'object'
p6
sS'spath[$+1-1]'
p7
g4
sS'eq'
p8
g6
sS'newpar[size(newpar)+1-1]'
p9
NsS'scs_m_1'
p10
g4
sS'eqn'
p11
g6
sS'np'
p12
g4
sS'scs_m_1.objs[2-1]'
p13
g4
sS'spath'
p14
g2
sS'newpar'
p15
g2
sS'model.rpar'
p16
g6
sS'model_n'
p17
g6
sS'scs_m_1.objs[4-1]'
p18
g4
sS'typ'
p19
g2
sS'xxn'
p20
g6
sS'needcompile'
p21
g4
sS'scs_m_1.objs[1-1]'
p22
g4
sS'modified'
p23
g4
sS'o'
p24
g6
sS'gr_i'
p25
S'vector'
p26
sS'y'
p27
g4
sS'x'
p28
g26
sS'model'
p29
g6
s.