c__builtin__
set
p0
((lp1
S'_str2code'
p2
aS'ZC'
p3
aS'OutEnd'
p4
aS'x'
p5
aS'Method'
p6
aS'varnam'
p7
atp8
Rp9
.(dp0
S'arg1'
p1
S'object'
p2
sS'graphics'
p3
g2
sS'ierr'
p4
S'double'
p5
sS'x.model'
p6
NsS'OutEnd'
p7
g5
sS'model.out'
p8
g5
sS'Method'
p9
g5
sS'varnam'
p10
S'string'
p11
sS'x.graphics'
p12
g2
sS'gr_i'
p13
S'vector'
p14
sS'model.evtin'
p15
g14
sS'model.firing'
p16
g14
sS'model.sim'
p17
g14
sS'model.evtout'
p18
g14
sS'model.out2'
p19
g5
sS'ZC'
p20
g5
sS'model.outtyp'
p21
g5
sS'graphics.exprs'
p22
NsS'model.ipar'
p23
S'matrix'
p24
sS'typ'
p25
g14
sS'[model,graphics,ok]'
p26
g5
sS'ok'
p27
S'boolean'
p28
sS'model.blocktype'
p29
g11
sS'model.dep_ut'
p30
g14
sS'exprs'
p31
g24
sS'r'
p32
g28
sS'y'
p33
g14
sS'x'
p34
g5
sS'model'
p35
g2
s.