c__builtin__
set
p0
((lp1
S'x'
p2
aS'xxn'
p3
aS'isequalbitwise'
p4
atp5
Rp6
.(dp0
S'ppath'
p1
S'vector'
p2
sS'arg1'
p3
S'object'
p4
sS'scs_m_1.objs[3-1]'
p5
S'double'
p6
sS'xx'
p7
g4
sS'spath[$+1-1]'
p8
g6
sS'eq'
p9
g4
sS'newpar[size(newpar)+1-1]'
p10
NsS'scs_m_1'
p11
g6
sS'eqn'
p12
g4
sS'np'
p13
g6
sS'scs_m_1.objs[2-1]'
p14
g6
sS'this.x'
p15
g6
sS'spath'
p16
g2
sS'newpar'
p17
g2
sS'model_n'
p18
g4
sS'arg1[spath-1]'
p19
g4
sS'scs_m_1.objs[4-1]'
p20
g6
sS'typ'
p21
g2
sS'xxn'
p22
g4
sS'needcompile'
p23
g6
sS'arg1.model'
p24
g4
sS'scs_m_1.objs[1-1]'
p25
g6
sS'modified'
p26
g6
sS'o'
p27
g4
sS'gr_i'
p28
g2
sS'y'
p29
g6
sS'model'
p30
g6
sS'arg1.model.rpar'
p31
g4
s.