c__builtin__
set
p0
((lp1
S'_str2code'
p2
aS'ZC'
p3
aS'OutEnd'
p4
aS'x'
p5
aS'model'
p6
aS'Method'
p7
aS'varnam'
p8
atp9
Rp10
.(dp0
S'arg1'
p1
S'object'
p2
sS'graphics'
p3
g2
sS'ierr'
p4
S'double'
p5
sS'x.model'
p6
NsS'OutEnd'
p7
g5
sS'model.out'
p8
g5
sS'Method'
p9
g5
sS'varnam'
p10
S'string'
p11
sS'x.graphics'
p12
g2
sS'gr_i'
p13
S'vector'
p14
sS'model.evtin'
p15
g14
sS'model.firing'
p16
g14
sS'model.sim'
p17
S'list'
p18
sS'model.evtout'
p19
g14
sS'model.out2'
p20
g5
sS'ZC'
p21
g5
sS'y'
p22
g14
sS'graphics.exprs'
p23
NsS'model.ipar'
p24
S'matrix'
p25
sS'typ'
p26
g14
sS'ok'
p27
S'boolean'
p28
sS'model.blocktype'
p29
g11
sS'model.dep_ut'
p30
g14
sS'exprs'
p31
g25
sS'r'
p32
g28
sS'model.outtyp'
p33
g5
sS'x'
p34
g5
sS'model'
p35
g2
s.