c__builtin__
set
p0
((lp1
S'needcompile'
p2
aS'scicos_context.Amax'
p3
aS'scicos_context.rule'
p4
aS'x'
p5
aS'scicos_context.Amin'
p6
aS'scicos_context.F'
p7
atp8
Rp9
.(dp0
S'model.odstate'
p1
S'vector'
p2
sS'this.x.model.rpar'
p3
S'object'
p4
sS'scs_m_1.objs[14-1]'
p5
S'double'
p6
sS'scs_m_1.objs[1-1]'
p7
g6
sS'model.dstate'
p8
g2
sS'arg1'
p9
g4
sS'scs_m_1.objs[6-1]'
p10
g6
sS'scs_m_1.objs[5-1]'
p11
g6
sS'scs_m_1.objs[3-1]'
p12
g6
sS'scicos_context'
p13
g6
sS'model.out'
p14
g6
sS'x.model'
p15
g4
sS'scs_m_1.objs[9-1]'
p16
g6
sS'model.label'
p17
S'string'
p18
sS'rule'
p19
g6
sS'Btitre'
p20
g18
sS'scs_m_1.objs[16-1]'
p21
g6
sS'Amin'
p22
g6
sS'scs_m_1.objs[11-1]'
p23
g6
sS'model.in2'
p24
g2
sS'model.in1'
p25
g2
sS'this.x.graphics.exprs'
p26
NsS'model.nzcross'
p27
g6
sS'model.opar'
p28
g2
sS'scs_m_1.objs[12-1]'
p29
g6
sS'scs_m_1.objs[15-1]'
p30
g6
sS'[sblock,%w,needcompile2,ok]'
p31
g6
sS'scs_m_1'
p32
g6
sS'scs_m_1.objs[13-1]'
p33
g6
sS'model.evtin'
p34
g2
sS'[PREVAR_scicos_context,ierr]'
p35
g6
sS'Amax'
p36
g6
sS'scs_m_1.objs[2-1]'
p37
g6
sS'this.x'
p38
g6
sS'model.sim'
p39
g18
sS'model.evtout'
p40
g2
sS'model.equations'
p41
g2
sS'scs_m_1.objs[8-1]'
p42
g6
sS'scs_m_1.objs[10-1]'
p43
g6
sS'F'
p44
g6
sS'Ss'
p45
g2
sS'Exprs0'
p46
S'matrix'
p47
sS'model.out2'
p48
g6
sS'sblock'
p49
g4
sS'model.intyp'
p50
g6
sS'model.rpar'
p51
g6
sS'model.nmode'
p52
g6
sS'scs_m_1.objs[4-1]'
p53
g6
sS'sblock.props'
p54
g4
sS'graphics'
p55
g4
sS'scs_m_1.objs[7-1]'
p56
g6
sS'model.ipar'
p57
g6
sS'typ'
p58
g2
sS'model.outtyp'
p59
g6
sS'Bitems'
p60
g47
sS'ok'
p61
S'boolean'
p62
sS'model.blocktype'
p63
g18
sS'arg1.model.ipar'
p64
g6
sS'model.dep_ut'
p65
g2
sS'exprs'
p66
g2
sS'gr_i'
p67
g2
sS'PREVAR_scicos_context'
p68
g6
sS'model.firing'
p69
g2
sS'y'
p70
g6
sS'x'
p71
g4
sS'model'
p72
g6
sS'model.state'
p73
g2
s.