c__builtin__
set
p0
((lp1
S'needcompile'
p2
aS'Bitems'
p3
aS'scicos_context.Amax'
p4
aS'scicos_context.rule'
p5
aS'graphics'
p6
aS'x'
p7
aS'model'
p8
aS'scicos_context.F'
p9
aS'scicos_context.Amin'
p10
atp11
Rp12
.(dp0
S'model.odstate'
p1
S'list'
p2
sS'scs_m_1.objs[14-1]'
p3
S'double'
p4
sS'arg1.model.ipar'
p5
g4
sS'model.dstate'
p6
S'vector'
p7
sS'arg1'
p8
S'object'
p9
sS'scs_m_1.objs[6-1]'
p10
g4
sS'scs_m_1.objs[5-1]'
p11
g4
sS'scs_m_1.objs[3-1]'
p12
g4
sS'scicos_context'
p13
g4
sS'model.out'
p14
g4
sS'x.model'
p15
g9
sS'scs_m_1.objs[9-1]'
p16
g4
sS'rule'
p17
g4
sS'x.model.rpar'
p18
g9
sS'Btitre'
p19
S'string'
p20
sS'scs_m_1.objs[16-1]'
p21
g4
sS'Amin'
p22
g4
sS'scs_m_1.objs[11-1]'
p23
g4
sS'model.in2'
p24
g7
sS'model.intyp'
p25
g4
sS'model.nzcross'
p26
g4
sS'model.opar'
p27
g2
sS'scs_m_1.objs[12-1]'
p28
g4
sS'scs_m_1.objs[15-1]'
p29
g4
sS'gr_i'
p30
g7
sS'scs_m_1'
p31
g4
sS'scs_m_1.objs[13-1]'
p32
g4
sS'model.evtin'
p33
g7
sS'Amax'
p34
g4
sS'scs_m_1.objs[2-1]'
p35
g4
sS'model.label'
p36
g20
sS'model.sim'
p37
g20
sS'model.evtout'
p38
g7
sS'model.equations'
p39
g2
sS'scs_m_1.objs[8-1]'
p40
g4
sS'scs_m_1.objs[10-1]'
p41
g4
sS'F'
p42
g4
sS'Ss'
p43
g2
sS'Exprs0'
p44
S'matrix'
p45
sS'model.out2'
p46
g4
sS'sblock'
p47
g9
sS'model.nmode'
p48
g4
sS'model.rpar'
p49
g4
sS'scs_m_1.objs[4-1]'
p50
g4
sS'sblock.props'
p51
g9
sS'model.in'
p52
g7
sS'graphics'
p53
g9
sS'scs_m_1.objs[7-1]'
p54
g4
sS'model.ipar'
p55
g4
sS'typ'
p56
g2
sS'model.outtyp'
p57
g4
sS'Bitems'
p58
g45
sS'ok'
p59
S'boolean'
p60
sS'model.blocktype'
p61
g20
sS'scs_m_1.objs[1-1]'
p62
g4
sS'model.dep_ut'
p63
S'vector_boolean'
p64
sS'exprs'
p65
S'vector_string'
p66
sS'x.graphics.exprs'
p67
NsS'PREVAR_scicos_context'
p68
g4
sS'model.firing'
p69
g7
sS'y'
p70
g4
sS'x'
p71
g9
sS'model'
p72
g9
sS'model.state'
p73
g7
s.