c__builtin__
set
p0
((lp1
S'needcompile'
p2
aS'scicos_context.Amax'
p3
aS'scicos_context.rule'
p4
aS'x'
p5
aS'scicos_context.Amin'
p6
aS'scicos_context.F'
p7
aS'model'
p8
atp9
Rp10
.(dp0
S'model.odstate'
p1
S'list'
p2
sS'scs_m_1.objs[14-1]'
p3
S'double'
p4
sS'scs_m_1.objs[1-1]'
p5
g4
sS'model.dstate'
p6
S'vector'
p7
sS'arg1'
p8
S'object'
p9
sS'scs_m_1.objs[6-1]'
p10
g4
sS'scs_m_1.objs[5-1]'
p11
g4
sS'scs_m_1.objs[3-1]'
p12
g4
sS'scicos_context'
p13
g4
sS'model.out'
p14
g4
sS'x.model'
p15
g9
sS'scs_m_1.objs[9-1]'
p16
g4
sS'rule'
p17
g4
sS'x.model.rpar'
p18
g9
sS'Btitre'
p19
S'string'
p20
sS'scs_m_1.objs[16-1]'
p21
g4
sS'Amin'
p22
g4
sS'scs_m_1.objs[11-1]'
p23
g4
sS'model.in2'
p24
g7
sS'model.in1'
p25
g7
sS'model.nzcross'
p26
g4
sS'model.opar'
p27
g2
sS'scs_m_1.objs[12-1]'
p28
g4
sS'scs_m_1.objs[15-1]'
p29
g4
sS'[sblock,%w,needcompile2,ok]'
p30
g4
sS'gr_i'
p31
g7
sS'scs_m_1'
p32
g4
sS'scs_m_1.objs[13-1]'
p33
g4
sS'model.evtin'
p34
g7
sS'[PREVAR_scicos_context,ierr]'
p35
g4
sS'Amax'
p36
g4
sS'scs_m_1.objs[2-1]'
p37
g4
sS'model.label'
p38
g20
sS'model.sim'
p39
g20
sS'model.evtout'
p40
g7
sS'model.equations'
p41
g2
sS'scs_m_1.objs[8-1]'
p42
g4
sS'scs_m_1.objs[10-1]'
p43
g4
sS'F'
p44
g4
sS'Ss'
p45
g2
sS'Exprs0'
p46
S'matrix'
p47
sS'model.out2'
p48
g4
sS'sblock'
p49
g9
sS'model.intyp'
p50
g4
sS'model.rpar'
p51
g4
sS'model.nmode'
p52
g4
sS'scs_m_1.objs[4-1]'
p53
g4
sS'sblock.props'
p54
g9
sS'graphics'
p55
g9
sS'scs_m_1.objs[7-1]'
p56
g4
sS'model.ipar'
p57
g4
sS'typ'
p58
g2
sS'model.outtyp'
p59
g4
sS'Bitems'
p60
g47
sS'ok'
p61
S'boolean'
p62
sS'model.blocktype'
p63
g20
sS'arg1.model.ipar'
p64
g4
sS'model.dep_ut'
p65
g7
sS'exprs'
p66
g7
sS'x.graphics.exprs'
p67
NsS'PREVAR_scicos_context'
p68
g4
sS'model.firing'
p69
g7
sS'y'
p70
g4
sS'x'
p71
g4
sS'model'
p72
g9
sS'model.state'
p73
g7
s.