c__builtin__
set
p0
((lp1
S'needcompile'
p2
aS'scicos_context.Amax'
p3
aS'scicos_context.rule'
p4
aS'x'
p5
aS'scicos_context.Amin'
p6
aS'scicos_context.F'
p7
atp8
Rp9
.c__builtin__
set
p0
((lp1
tp2
Rp3
.c__builtin__
set
p0
((lp1
tp2
Rp3
.c__builtin__
set
p0
((lp1
tp2
Rp3
.c__builtin__
set
p0
((lp1
tp2
Rp3
.c__builtin__
set
p0
((lp1
tp2
Rp3
.