c__builtin__
set
p0
((lp1
S'needcompile'
p2
aS'Bitems'
p3
aS'scicos_context'
p4
aS'graphics'
p5
aS'Btitre'
p6
aS'x'
p7
aS'model'
p8
atp9
Rp10
.(dp0
S'model.odstate'
p1
S'list'
p2
sS'scs_m_1.objs[14-1]'
p3
S'double'
p4
sS'scs_m_1.objs[9-1]'
p5
g4
sS'model.dstate'
p6
S'vector'
p7
sS'scs_m_1.objs[6-1]'
p8
g4
sS'scs_m_1.objs[5-1]'
p9
g4
sS'scs_m_1.objs[3-1]'
p10
g4
sS'scicos_context'
p11
g4
sS'model.out'
p12
g4
sS'x.model'
p13
S'object'
p14
sS'Amin'
p15
g4
sS'rule'
p16
g4
sS'x.model.rpar'
p17
g14
sS'Btitre'
p18
S'string'
p19
sS'scs_m_1.objs[16-1]'
p20
g4
sS'scs_m_1.objs[11-1]'
p21
g4
sS'model.in2'
p22
g7
sS'model.intyp'
p23
g4
sS'model.nzcross'
p24
g4
sS'model.opar'
p25
g2
sS'scs_m_1.objs[12-1]'
p26
g4
sS'scs_m_1.objs[15-1]'
p27
g4
sS'gr_i'
p28
g7
sS'scs_m_1'
p29
g4
sS'scs_m_1.objs[13-1]'
p30
g4
sS'model.evtin'
p31
g7
sS'Amax'
p32
g4
sS'scs_m_1.objs[2-1]'
p33
g4
sS'model.label'
p34
g19
sS'model.sim'
p35
g19
sS'model.evtout'
p36
g7
sS'model.equations'
p37
g2
sS'scs_m_1.objs[8-1]'
p38
g4
sS'scs_m_1.objs[10-1]'
p39
g4
sS'F'
p40
g4
sS'Ss'
p41
g2
sS'Exprs0'
p42
S'matrix'
p43
sS'model.out2'
p44
g4
sS'sblock'
p45
g14
sS'model.nmode'
p46
g4
sS'model.rpar'
p47
g4
sS'scs_m_1.objs[4-1]'
p48
g4
sS'sblock.props'
p49
g14
sS'model.in'
p50
g7
sS'graphics'
p51
g14
sS'scs_m_1.objs[7-1]'
p52
g4
sS'model.ipar'
p53
g4
sS'typ'
p54
g2
sS'model.outtyp'
p55
g4
sS'Bitems'
p56
g43
sS'ok'
p57
S'boolean'
p58
sS'model.blocktype'
p59
g19
sS'scs_m_1.objs[1-1]'
p60
g4
sS'model.dep_ut'
p61
S'vector_boolean'
p62
sS'exprs'
p63
S'vector_string'
p64
sS'x.graphics.exprs'
p65
NsS'PREVAR_scicos_context'
p66
g4
sS'model.firing'
p67
g7
sS'y'
p68
g4
sS'x'
p69
g14
sS'model'
p70
g14
sS'model.state'
p71
g7
s.