c__builtin__
set
p0
((lp1
S'needcompile'
p2
aS'scicos_context.Amax'
p3
aS'scicos_context.rule'
p4
aS'x'
p5
aS'scicos_context.Amin'
p6
aS'scicos_context.F'
p7
atp8
Rp9
.(dp0
S'model.odstate'
p1
S'vector'
p2
sS'scs_m_1.objs[14-1]'
p3
S'double'
p4
sS'scs_m_1.objs[1-1]'
p5
g4
sS'model.dstate'
p6
g2
sS'arg1'
p7
S'object'
p8
sS'scs_m_1.objs[6-1]'
p9
g4
sS'scs_m_1.objs[5-1]'
p10
g4
sS'scs_m_1.objs[3-1]'
p11
g4
sS'scicos_context'
p12
g4
sS'model.out'
p13
g4
sS'x.model'
p14
g8
sS'scs_m_1.objs[9-1]'
p15
g4
sS'rule'
p16
g4
sS'x.model.rpar'
p17
g8
sS'Btitre'
p18
S'string'
p19
sS'scs_m_1.objs[16-1]'
p20
g4
sS'Amin'
p21
g4
sS'scs_m_1.objs[11-1]'
p22
g4
sS'model.in2'
p23
g2
sS'model.in1'
p24
g2
sS'model.nzcross'
p25
g4
sS'model.opar'
p26
g2
sS'scs_m_1.objs[12-1]'
p27
g4
sS'scs_m_1.objs[15-1]'
p28
g4
sS'[sblock,%w,needcompile2,ok]'
p29
g4
sS'gr_i'
p30
g2
sS'scs_m_1'
p31
g4
sS'scs_m_1.objs[13-1]'
p32
g4
sS'model.evtin'
p33
g2
sS'[PREVAR_scicos_context,ierr]'
p34
g4
sS'Amax'
p35
g4
sS'scs_m_1.objs[2-1]'
p36
g4
sS'model.label'
p37
g19
sS'model.sim'
p38
g19
sS'model.evtout'
p39
g2
sS'model.equations'
p40
g2
sS'scs_m_1.objs[8-1]'
p41
g4
sS'scs_m_1.objs[10-1]'
p42
g4
sS'F'
p43
g4
sS'Ss'
p44
g2
sS'Exprs0'
p45
S'matrix'
p46
sS'model.out2'
p47
g4
sS'sblock'
p48
g8
sS'model.intyp'
p49
g4
sS'model.rpar'
p50
g4
sS'model.nmode'
p51
g4
sS'scs_m_1.objs[4-1]'
p52
g4
sS'sblock.props'
p53
g8
sS'graphics'
p54
g8
sS'scs_m_1.objs[7-1]'
p55
g4
sS'model.ipar'
p56
g4
sS'typ'
p57
g2
sS'model.outtyp'
p58
g4
sS'Bitems'
p59
g46
sS'ok'
p60
S'boolean'
p61
sS'model.blocktype'
p62
g19
sS'arg1.model.ipar'
p63
g4
sS'model.dep_ut'
p64
g2
sS'exprs'
p65
g2
sS'x.graphics.exprs'
p66
NsS'PREVAR_scicos_context'
p67
g4
sS'model.firing'
p68
g2
sS'y'
p69
g4
sS'x'
p70
g4
sS'model'
p71
g8
sS'model.state'
p72
g2
s.