c__builtin__
set
p0
((lp1
S'x'
p2
aS'Amplitude'
p3
atp4
Rp5
.(dp0
S'this.x'
p1
S'double'
p2
sS'model.sim'
p3
S'string'
p4
sS'model.out'
p5
g2
sS'model.out2'
p6
g2
sS'model.dstate'
p7
NsS'this.Amplitude'
p8
g2
sS'this.x.graphics'
p9
S'object'
p10
sS'arg1'
p11
g10
sS'graphics.exprs'
p12
g2
sS'model.dep_ut'
p13
S'vector'
p14
sS'this.x.model'
p15
NsS'exprs'
p16
g4
sS'gr_i'
p17
g14
sS'graphics'
p18
g10
sS'y'
p19
g14
sS'model'
p20
g2
sS'model.evtin'
p21
g2
sS'typ'
p22
g14
sS'model.outtyp'
p23
g2
sS'model.blocktype'
p24
g4
s.