c__builtin__
set
p0
((lp1
S'exprs'
p2
aS'gr_i'
p3
aS'Amplitude'
p4
aS'graphics'
p5
aS'x'
p6
aS'model'
p7
atp8
Rp9
.(dp0
S'model.sim'
p1
S'string'
p2
sS'model.out'
p3
S'double'
p4
sS'model.out2'
p5
g4
sS'model.dstate'
p6
g4
sS'model.evtin'
p7
g4
sS'x.graphics'
p8
S'object'
p9
sS'arg1'
p10
g9
sS'graphics.exprs'
p11
g4
sS'model.dep_ut'
p12
S'vector_boolean'
p13
sS'exprs'
p14
g2
sS'x.model'
p15
NsS'gr_i'
p16
S'vector'
p17
sS'Amplitude'
p18
g4
sS'graphics'
p19
g9
sS'y'
p20
g17
sS'x'
p21
NsS'model'
p22
g9
sS'typ'
p23
g17
sS'model.outtyp'
p24
g4
sS'model.blocktype'
p25
g2
s.