c__builtin__
set
p0
((lp1
S'x'
p2
aS'model'
p3
aS'Amplitude'
p4
aS'graphics'
p5
atp6
Rp7
.(dp0
S'model.sim'
p1
S'string'
p2
sS'model.out'
p3
S'double'
p4
sS'model.out2'
p5
g4
sS'model.dstate'
p6
g4
sS'model.evtin'
p7
g4
sS'x.graphics'
p8
S'object'
p9
sS'graphics'
p10
g9
sS'model.dep_ut'
p11
S'vector_boolean'
p12
sS'exprs'
p13
g2
sS'x.model'
p14
NsS'gr_i'
p15
S'vector'
p16
sS'Amplitude'
p17
g4
sS'graphics.exprs'
p18
g4
sS'y'
p19
g16
sS'x'
p20
g16
sS'model'
p21
g9
sS'typ'
p22
g16
sS'model.outtyp'
p23
g4
sS'model.blocktype'
p24
g2
s.