c__builtin__
set
p0
((lp1
S'F'
p2
aS'M'
p3
aS'P'
p4
aS'graphics'
p5
aS'x'
p6
aS'model'
p7
atp8
Rp9
.(dp0
S'model.sim'
p1
S'string'
p2
sS'model.out'
p3
S'double'
p4
sS'ok'
p5
S'boolean'
p6
sS'model.in'
p7
S'vector'
p8
sS'x.graphics'
p9
S'object'
p10
sS'model.out2'
p11
g4
sS'model.rpar'
p12
S'matrix'
p13
sS'rpar'
p14
g13
sS'exprs'
p15
g13
sS'x.model'
p16
NsS'gr_i'
p17
g8
sS'model.dep_ut'
p18
S'vector_boolean'
p19
sS'graphics.exprs'
p20
NsS'graphics'
p21
g10
sS'y'
p22
g8
sS'x'
p23
g8
sS'model'
p24
g10
sS'typ'
p25
g8
sS'model.outtyp'
p26
g4
sS'model.blocktype'
p27
g2
s.