c__builtin__
set
p0
((lp1
S'F'
p2
aS'M'
p3
aS'P'
p4
aS'graphics'
p5
aS'x'
p6
aS'model'
p7
atp8
Rp9
.(dp0
S'model.sim'
p1
S'string'
p2
sS'model.in1'
p3
S'vector'
p4
sS'ok'
p5
S'boolean'
p6
sS'model.blocktype'
p7
g2
sS'x.graphics'
p8
S'object'
p9
sS'arg1'
p10
g9
sS'model.out2'
p11
S'double'
p12
sS'model.rpar'
p13
S'matrix'
p14
sS'rpar'
p15
g14
sS'exprs'
p16
g14
sS'x.model'
p17
NsS'gr_i'
p18
g4
sS'model.dep_ut'
p19
g4
sS'graphics.exprs'
p20
NsS'graphics'
p21
g9
sS'y'
p22
g4
sS'x'
p23
g12
sS'model'
p24
g9
sS'typ'
p25
g4
sS'model.outtyp'
p26
g12
sS'model.out'
p27
g12
s.