c__builtin__
set
p0
((lp1
S'x'
p2
aS'model'
p3
aS'M'
p4
aS'P'
p5
aS'F'
p6
atp7
Rp8
.(dp0
S'arg1'
p1
S'object'
p2
sS'graphics'
p3
g2
sS'rpar'
p4
S'matrix'
p5
sS'x.model'
p6
NsS'model.out'
p7
S'double'
p8
sS'model.in1'
p9
S'vector'
p10
sS'x.graphics'
p11
g2
sS'model.sim'
p12
S'string'
p13
sS'[this.model,graphics,ok]'
p14
S'list'
p15
sS'model.out2'
p16
g8
sS'model.rpar'
p17
g5
sS'model.outtyp'
p18
g8
sS'graphics.exprs'
p19
NsS'typ'
p20
g10
sS'ok'
p21
S'boolean'
p22
sS'model.blocktype'
p23
g13
sS'model.dep_ut'
p24
g10
sS'exprs'
p25
g5
sS'gr_i'
p26
g10
sS'y'
p27
g10
sS'x'
p28
g8
sS'model'
p29
g2
s.