c__builtin__
set
p0
((lp1
S'F'
p2
aS'M'
p3
aS'P'
p4
aS'graphics'
p5
aS'x'
p6
aS'model'
p7
atp8
Rp9
.(dp0
S'model.sim'
p1
S'string'
p2
sS'model.out'
p3
S'double'
p4
sS'ok'
p5
S'boolean'
p6
sS'model.in'
p7
S'vector'
p8
sS'x.graphics'
p9
S'object'
p10
sS'arg1'
p11
g10
sS'model.out2'
p12
g4
sS'model.rpar'
p13
S'matrix'
p14
sS'rpar'
p15
g14
sS'exprs'
p16
g14
sS'x.model'
p17
NsS'gr_i'
p18
g8
sS'model.dep_ut'
p19
S'vector_boolean'
p20
sS'graphics.exprs'
p21
NsS'graphics'
p22
g10
sS'y'
p23
g8
sS'x'
p24
NsS'model'
p25
g10
sS'typ'
p26
g8
sS'model.outtyp'
p27
g4
sS'model.blocktype'
p28
g2
s.