c__builtin__
set
p0
((lp1
S'x'
p2
aS'model'
p3
aS'M'
p4
aS'P'
p5
aS'F'
p6
atp7
Rp8
.(dp0
S'arg1'
p1
S'object'
p2
sS'graphics'
p3
g2
sS'rpar'
p4
S'matrix'
p5
sS'x.model'
p6
NsS'model.out'
p7
S'double'
p8
sS'model.in1'
p9
S'vector'
p10
sS'x.graphics'
p11
g2
sS'model.sim'
p12
S'string'
p13
sS'model.out2'
p14
g8
sS'model.rpar'
p15
g5
sS'model.outtyp'
p16
g8
sS'graphics.exprs'
p17
NsS'typ'
p18
g10
sS'[model,graphics,ok]'
p19
g8
sS'ok'
p20
S'boolean'
p21
sS'model.blocktype'
p22
g13
sS'model.dep_ut'
p23
g10
sS'exprs'
p24
g5
sS'gr_i'
p25
g10
sS'y'
p26
g10
sS'x'
p27
g8
sS'model'
p28
g2
s.