c__builtin__
set
p0
((lp1
S'x'
p2
aS'M'
p3
aS'P'
p4
aS'F'
p5
atp6
Rp7
.(dp0
S'arg1'
p1
S'object'
p2
sS'graphics'
p3
g2
sS'rpar'
p4
S'matrix'
p5
sS'this.x.model'
p6
NsS'model.out'
p7
S'double'
p8
sS'model.in1'
p9
S'vector'
p10
sS'typ'
p11
g10
sS'this.x'
p12
g8
sS'model.sim'
p13
S'string'
p14
sS'model.out2'
p15
g8
sS'model.rpar'
p16
g5
sS'model.outtyp'
p17
g8
sS'graphics.exprs'
p18
NsS'this.x.graphics'
p19
g2
sS'[model,graphics,ok]'
p20
g8
sS'ok'
p21
S'boolean'
p22
sS'model.blocktype'
p23
g14
sS'model.dep_ut'
p24
g10
sS'exprs'
p25
g5
sS'gr_i'
p26
g10
sS'y'
p27
g10
sS'model'
p28
g8
s.