c__builtin__
set
p0
((lp1
S'x'
p2
atp3
Rp4
.(dp0
S'model.sim'
p1
S'vector'
p2
sS'C'
p3
g2
sS'exprs'
p4
g2
sS'model.blocktype'
p5
S'string'
p6
sS'model.in2'
p7
g2
sS'model.out2'
p8
S'double'
p9
sS'model.in1'
p10
g2
sS'model.rpar'
p11
g2
sS'model.opar'
p12
g2
sS'model.out'
p13
g9
sS'gr_i'
p14
g2
sS'model.dep_ut'
p15
g2
sS'y'
p16
g2
sS'x'
p17
g9
sS'model'
p18
S'object'
p19
sS'typ'
p20
g2
sS'model.outtyp'
p21
g9
s.