c__builtin__
set
p0
((lp1
S'x'
p2
aS'model'
p3
aS'gr_i'
p4
aS'exprs'
p5
aS'graphics'
p6
atp7
Rp8
.(dp0
S'model.sim'
p1
S'list'
p2
sS'C'
p3
S'vector'
p4
sS'exprs'
p5
g4
sS'model.blocktype'
p6
S'string'
p7
sS'model.in2'
p8
g4
sS'model.out2'
p9
S'double'
p10
sS'model.rpar'
p11
g4
sS'model.opar'
p12
g2
sS'model.out'
p13
g10
sS'gr_i'
p14
g4
sS'model.dep_ut'
p15
S'vector_boolean'
p16
sS'model.in'
p17
g4
sS'y'
p18
g4
sS'x'
p19
NsS'model'
p20
S'object'
p21
sS'typ'
p22
g4
sS'model.outtyp'
p23
g10
s.