c__builtin__
set
p0
((lp1
S'x'
p2
atp3
Rp4
.(dp0
S'this.x'
p1
S'double'
p2
sS'model.sim'
p3
S'vector'
p4
sS'C'
p5
g4
sS'exprs'
p6
g4
sS'model.blocktype'
p7
S'string'
p8
sS'model.in2'
p9
g4
sS'model.out2'
p10
g2
sS'model.in1'
p11
g4
sS'model.rpar'
p12
g4
sS'model.opar'
p13
g4
sS'model.out'
p14
g2
sS'gr_i'
p15
g4
sS'model.dep_ut'
p16
g4
sS'y'
p17
g4
sS'model'
p18
S'object'
p19
sS'typ'
p20
g4
sS'model.outtyp'
p21
g2
s.