c__builtin__
set
p0
((lp1
S'x'
p2
aS'model'
p3
aS'gr_i'
p4
aS'exprs'
p5
aS'graphics'
p6
atp7
Rp8
.(dp0
S'needcompile'
p1
S'double'
p2
sS'model.sim'
p3
S'string'
p4
sS'model.out'
p5
g2
sS'model.blocktype'
p6
g4
sS'prt'
p7
g2
sS'arg1'
p8
S'object'
p9
sS'model.out2'
p10
g2
sS'x.graphics'
p11
g9
sS'exprs'
p12
g4
sS'x.model'
p13
g9
sS'gr_i'
p14
S'vector'
p15
sS'model.dep_ut'
p16
g15
sS'graphics.exprs'
p17
S'matrix'
p18
sS'graphics'
p19
g9
sS'y'
p20
g2
sS'x'
p21
g2
sS'model'
p22
g9
sS'model.ipar'
p23
g2
sS'typ'
p24
g15
sS'model.outtyp'
p25
g2
sS'model.firing'
p26
g15
s.