c__builtin__
set
p0
((lp1
S'x'
p2
aS'model'
p3
aS'graphics'
p4
atp5
Rp6
.(dp0
S'needcompile'
p1
S'double'
p2
sS'model.sim'
p3
S'string'
p4
sS'model.out'
p5
g2
sS'model.blocktype'
p6
g4
sS'prt'
p7
g2
sS'model.out2'
p8
g2
sS'x.graphics'
p9
S'object'
p10
sS'exprs'
p11
g4
sS'x.model'
p12
g10
sS'gr_i'
p13
S'vector'
p14
sS'model.dep_ut'
p15
S'vector_boolean'
p16
sS'graphics.exprs'
p17
S'matrix'
p18
sS'graphics'
p19
g10
sS'y'
p20
g2
sS'x'
p21
g14
sS'model'
p22
g10
sS'model.ipar'
p23
g2
sS'typ'
p24
g14
sS'model.outtyp'
p25
g2
sS'model.firing'
p26
g14
s.