c__builtin__
set
p0
((lp1
S'x'
p2
atp3
Rp4
.(dp0
S'arg1'
p1
S'object'
p2
sS'graphics'
p3
g2
sS'prt'
p4
S'double'
p5
sS'this.x.model'
p6
g2
sS'model.out'
p7
g5
sS'typ'
p8
S'vector'
p9
sS'model.firing'
p10
g9
sS'this.x'
p11
g5
sS'model.sim'
p12
S'string'
p13
sS'model.out2'
p14
g5
sS'model.outtyp'
p15
g5
sS'graphics.exprs'
p16
S'matrix'
p17
sS'model.ipar'
p18
g5
sS'this.x.graphics'
p19
g2
sS'needcompile'
p20
g5
sS'model.blocktype'
p21
g13
sS'[ok,prt,otsz,ot,exprs]'
p22
g5
sS'model.dep_ut'
p23
g9
sS'exprs'
p24
g5
sS'gr_i'
p25
g9
sS'y'
p26
g5
sS'model'
p27
g2
s.