c__builtin__
set
p0
((lp1
S'x'
p2
atp3
Rp4
.(dp0
S'arg1'
p1
S'object'
p2
sS'graphics'
p3
g2
sS'prt'
p4
S'double'
p5
sS'x.model'
p6
g2
sS'model.out'
p7
g5
sS'x.graphics'
p8
g2
sS'model.firing'
p9
S'vector'
p10
sS'model.sim'
p11
S'string'
p12
sS'model.out2'
p13
g5
sS'model.outtyp'
p14
g5
sS'graphics.exprs'
p15
S'matrix'
p16
sS'model.ipar'
p17
g5
sS'typ'
p18
g10
sS'needcompile'
p19
g5
sS'model.blocktype'
p20
g12
sS'[ok,prt,otsz,ot,exprs]'
p21
g5
sS'model.dep_ut'
p22
g10
sS'exprs'
p23
g5
sS'gr_i'
p24
g10
sS'y'
p25
g5
sS'x'
p26
g5
sS'model'
p27
g2
s.