c__builtin__
set
p0
((lp1
S'exprs'
p2
aS'prt'
p3
aS'gr_i'
p4
aS'graphics'
p5
aS'x'
p6
aS'model'
p7
atp8
Rp9
.(dp0
S'arg1'
p1
S'object'
p2
sS'graphics'
p3
g2
sS'mo.model'
p4
S'string'
p5
sS'prt'
p6
S'double'
p7
sS'x.model'
p8
g2
sS'model.out'
p9
S'vector'
p10
sS'x.graphics'
p11
g2
sS'model.sim'
p12
g5
sS'model.equations'
p13
g7
sS'mo.outputs'
p14
g5
sS'model.out2'
p15
g10
sS'x.graphics.out_implicit'
p16
g10
sS'graphics.exprs'
p17
g7
sS'model.ipar'
p18
g10
sS'typ'
p19
g10
sS'needcompile'
p20
g7
sS'model.blocktype'
p21
g5
sS'mo'
p22
g7
sS'model.dep_ut'
p23
S'vector_boolean'
p24
sS'exprs'
p25
g5
sS'gr_i'
p26
g10
sS'y'
p27
g7
sS'x'
p28
NsS'model'
p29
g2
s.