c__builtin__
set
p0
((lp1
S'prt'
p2
aS'x'
p3
aS'model'
p4
aS'graphics'
p5
atp6
Rp7
.(dp0
S'graphics'
p1
S'object'
p2
sS'mo.model'
p3
S'string'
p4
sS'prt'
p5
S'double'
p6
sS'x.model'
p7
g2
sS'model.out'
p8
S'vector'
p9
sS'x.graphics'
p10
g2
sS'model.sim'
p11
g4
sS'model.equations'
p12
g6
sS'mo.outputs'
p13
g4
sS'model.out2'
p14
g9
sS'x.graphics.out_implicit'
p15
S'vector_string'
p16
sS'graphics.exprs'
p17
g6
sS'model.ipar'
p18
g9
sS'typ'
p19
g9
sS'needcompile'
p20
g6
sS'model.blocktype'
p21
g4
sS'mo'
p22
g6
sS'model.dep_ut'
p23
S'vector_boolean'
p24
sS'exprs'
p25
g4
sS'gr_i'
p26
g9
sS'y'
p27
g6
sS'x'
p28
g9
sS'model'
p29
g2
s.