c__builtin__
set
p0
((lp1
S'x'
p2
aS'prt'
p3
atp4
Rp5
.(dp0
S'arg1'
p1
S'object'
p2
sS'graphics'
p3
g2
sS'mo.model'
p4
S'string'
p5
sS'this.x.model'
p6
g2
sS'model.out'
p7
S'vector'
p8
sS'typ'
p9
g8
sS'this.prt'
p10
S'double'
p11
sS'this.x'
p12
g11
sS'model.sim'
p13
g5
sS'model.equations'
p14
g11
sS'mo.outputs'
p15
g5
sS'model.out2'
p16
g8
sS'graphics.exprs'
p17
g11
sS'model.ipar'
p18
g8
sS'this.x.graphics'
p19
g2
sS'needcompile'
p20
g11
sS'model.blocktype'
p21
g5
sS'mo'
p22
g11
sS'model.dep_ut'
p23
g8
sS'exprs'
p24
g5
sS'gr_i'
p25
g8
sS'this.x.graphics.out_implicit'
p26
g8
sS'y'
p27
g11
sS'model'
p28
g2
s.