c__builtin__
set
p0
((lp1
S'x'
p2
aS'base'
p3
aS'ini_c'
p4
atp5
Rp6
.(dp0
S'model.sim'
p1
S'vector'
p2
sS'model.out'
p3
S'double'
p4
sS'model.dstate'
p5
g4
sS'model.evtin'
p6
g4
sS'ini_c'
p7
g4
sS'arg1'
p8
S'object'
p9
sS'graphics.exprs'
p10
NsS'model.dep_ut'
p11
g2
sS'gr_i'
p12
g2
sS'exprs'
p13
S'matrix'
p14
sS'x.model'
p15
NsS'base'
p16
g4
sS'graphics'
p17
g9
sS'y'
p18
g2
sS'x'
p19
g4
sS'model'
p20
g9
sS'model.ipar'
p21
g4
sS'typ'
p22
g2
sS'x.graphics'
p23
g9
sS'model.blocktype'
p24
S'string'
p25
s.