c__builtin__
set
p0
((lp1
S'ini_c'
p2
aS'exprs'
p3
aS'gr_i'
p4
aS'base'
p5
aS'graphics'
p6
aS'x'
p7
aS'model'
p8
atp9
Rp10
.(dp0
S'model.sim'
p1
S'list'
p2
sS'model.out'
p3
S'double'
p4
sS'model.dstate'
p5
g4
sS'model.evtin'
p6
g4
sS'ini_c'
p7
g4
sS'arg1'
p8
S'object'
p9
sS'graphics.exprs'
p10
NsS'model.dep_ut'
p11
S'vector'
p12
sS'gr_i'
p13
g12
sS'exprs'
p14
S'matrix'
p15
sS'x.model'
p16
NsS'base'
p17
g4
sS'graphics'
p18
g9
sS'y'
p19
g12
sS'x'
p20
NsS'model'
p21
g9
sS'model.ipar'
p22
g4
sS'typ'
p23
g12
sS'x.graphics'
p24
g9
sS'model.blocktype'
p25
S'string'
p26
s.