c__builtin__
set
p0
((lp1
S'ini_c'
p2
aS'exprs'
p3
aS'gr_i'
p4
aS'base'
p5
aS'graphics'
p6
aS'x'
p7
aS'model'
p8
atp9
Rp10
.(dp0
S'model.sim'
p1
S'list'
p2
sS'model.out'
p3
S'double'
p4
sS'model.dstate'
p5
g4
sS'model.evtin'
p6
g4
sS'ini_c'
p7
g4
sS'arg1'
p8
S'object'
p9
sS'graphics.exprs'
p10
NsS'model.dep_ut'
p11
S'vector_boolean'
p12
sS'gr_i'
p13
S'vector'
p14
sS'exprs'
p15
S'matrix'
p16
sS'x.model'
p17
NsS'base'
p18
g4
sS'graphics'
p19
g9
sS'y'
p20
g14
sS'x'
p21
NsS'model'
p22
g9
sS'model.ipar'
p23
g4
sS'typ'
p24
g14
sS'x.graphics'
p25
g9
sS'model.blocktype'
p26
S'string'
p27
s.