c__builtin__
set
p0
((lp1
S'x'
p2
aS'model'
p3
aS'ini_c'
p4
aS'base'
p5
aS'graphics'
p6
atp7
Rp8
.(dp0
S'model.sim'
p1
S'list'
p2
sS'model.out'
p3
S'double'
p4
sS'model.dstate'
p5
g4
sS'model.evtin'
p6
g4
sS'exprs'
p7
S'matrix'
p8
sS'graphics.exprs'
p9
NsS'model.dep_ut'
p10
S'vector_boolean'
p11
sS'gr_i'
p12
S'vector'
p13
sS'ini_c'
p14
g4
sS'x.model'
p15
NsS'base'
p16
g4
sS'graphics'
p17
S'object'
p18
sS'y'
p19
g13
sS'x'
p20
g13
sS'model'
p21
g18
sS'model.ipar'
p22
g4
sS'typ'
p23
g13
sS'x.graphics'
p24
g18
sS'model.blocktype'
p25
S'string'
p26
s.