c__builtin__
set
p0
((lp1
S'x'
p2
aS'base'
p3
aS'ini_c'
p4
atp5
Rp6
.(dp0
S'this.x'
p1
S'double'
p2
sS'model.sim'
p3
S'vector'
p4
sS'model.out'
p5
g2
sS'model.dstate'
p6
NsS'model.evtin'
p7
g2
sS'this.ini_c'
p8
g2
sS'arg1'
p9
S'object'
p10
sS'graphics.exprs'
p11
NsS'model.dep_ut'
p12
g4
sS'this.base'
p13
g2
sS'this.x.model'
p14
NsS'exprs'
p15
S'matrix'
p16
sS'gr_i'
p17
g4
sS'graphics'
p18
g10
sS'y'
p19
g4
sS'model'
p20
g2
sS'model.ipar'
p21
NsS'typ'
p22
g4
sS'this.x.graphics'
p23
g10
sS'model.blocktype'
p24
S'string'
p25
s.