c__builtin__
set
p0
((lp1
S'needcompile'
p2
aS'scicos_context.W'
p3
aS'x'
p4
aS'scicos_context.A'
p5
aS'scicos_context.F'
p6
aS'scicos_context.E'
p7
atp8
Rp9
.(dp0
S'model.odstate'
p1
S'vector'
p2
sS'this.x.model.rpar'
p3
S'object'
p4
sS'scs_m_1.objs[1-1]'
p5
S'double'
p6
sS'model.dstate'
p7
g2
sS'arg1'
p8
g4
sS'scs_m_1.objs[6-1]'
p9
g6
sS'scs_m_1.objs[5-1]'
p10
g6
sS'scs_m_1.objs[3-1]'
p11
g6
sS'scicos_context'
p12
g6
sS'model.out'
p13
g6
sS'x.model'
p14
g4
sS'scs_m_1.objs[9-1]'
p15
g6
sS'model.label'
p16
S'string'
p17
sS'Btitre'
p18
g17
sS'E'
p19
g6
sS'scs_m_1.objs[11-1]'
p20
g6
sS'model.in2'
p21
g2
sS'model.in1'
p22
g2
sS'this.x.graphics.exprs'
p23
NsS'model.nzcross'
p24
g6
sS'A'
p25
g6
sS'model.opar'
p26
g2
sS'[sblock,%w,needcompile2,ok]'
p27
g6
sS'scs_m_1'
p28
g6
sS'model.evtin'
p29
g2
sS'[PREVAR_scicos_context,ierr]'
p30
g6
sS'scs_m_1.objs[2-1]'
p31
g6
sS'this.x'
p32
g6
sS'model.sim'
p33
g17
sS'model.evtout'
p34
g2
sS'model.equations'
p35
g2
sS'scs_m_1.objs[8-1]'
p36
g6
sS'scs_m_1.objs[10-1]'
p37
g6
sS'F'
p38
g6
sS'Ss'
p39
g2
sS'Exprs0'
p40
S'matrix'
p41
sS'model.out2'
p42
g6
sS'sblock'
p43
g4
sS'model.intyp'
p44
g6
sS'model.rpar'
p45
g6
sS'model.nmode'
p46
g6
sS'scs_m_1.objs[4-1]'
p47
g6
sS'sblock.props'
p48
g4
sS'W'
p49
g6
sS'graphics'
p50
g4
sS'scs_m_1.objs[7-1]'
p51
g6
sS'model.ipar'
p52
g6
sS'typ'
p53
g2
sS'model.outtyp'
p54
g6
sS'Bitems'
p55
g41
sS'ok'
p56
S'boolean'
p57
sS'model.blocktype'
p58
g17
sS'arg1.model.ipar'
p59
g6
sS'model.dep_ut'
p60
g2
sS'exprs'
p61
g2
sS'gr_i'
p62
g2
sS'PREVAR_scicos_context'
p63
g6
sS'model.firing'
p64
g2
sS'y'
p65
g6
sS'x'
p66
g4
sS'model'
p67
g4
sS'model.state'
p68
g2
s.