c__builtin__
set
p0
((lp1
S'needcompile'
p2
aS'scicos_context.W'
p3
aS'x'
p4
aS'model'
p5
aS'scicos_context.A'
p6
aS'scicos_context.F'
p7
aS'scicos_context.E'
p8
atp9
Rp10
.(dp0
S'model.odstate'
p1
S'vector'
p2
sS'A'
p3
S'double'
p4
sS'scs_m_1.objs[1-1]'
p5
g4
sS'model.dstate'
p6
g2
sS'arg1'
p7
S'object'
p8
sS'scs_m_1.objs[6-1]'
p9
g4
sS'scs_m_1.objs[5-1]'
p10
g4
sS'scs_m_1.objs[3-1]'
p11
g4
sS'scicos_context'
p12
g4
sS'model.out'
p13
g4
sS'x.model'
p14
g8
sS'scs_m_1.objs[9-1]'
p15
g4
sS'x.model.rpar'
p16
g8
sS'Btitre'
p17
S'string'
p18
sS'E'
p19
g4
sS'scs_m_1.objs[11-1]'
p20
g4
sS'model.in2'
p21
g2
sS'model.in1'
p22
g2
sS'model.nzcross'
p23
g4
sS'model.opar'
p24
g2
sS'[sblock,%w,needcompile2,ok]'
p25
g4
sS'gr_i'
p26
g2
sS'scs_m_1'
p27
g4
sS'model.evtin'
p28
g2
sS'[PREVAR_scicos_context,ierr]'
p29
g4
sS'scs_m_1.objs[2-1]'
p30
g4
sS'model.label'
p31
g18
sS'model.sim'
p32
g18
sS'model.evtout'
p33
g2
sS'model.equations'
p34
g2
sS'scs_m_1.objs[8-1]'
p35
g4
sS'scs_m_1.objs[10-1]'
p36
g4
sS'F'
p37
g4
sS'Ss'
p38
g2
sS'Exprs0'
p39
S'matrix'
p40
sS'model.out2'
p41
g4
sS'sblock'
p42
g8
sS'model.intyp'
p43
g4
sS'model.rpar'
p44
g4
sS'model.nmode'
p45
g4
sS'scs_m_1.objs[4-1]'
p46
g4
sS'sblock.props'
p47
g8
sS'W'
p48
g4
sS'graphics'
p49
g8
sS'scs_m_1.objs[7-1]'
p50
g4
sS'model.ipar'
p51
g4
sS'typ'
p52
g2
sS'model.outtyp'
p53
g4
sS'Bitems'
p54
g40
sS'ok'
p55
S'boolean'
p56
sS'model.blocktype'
p57
g18
sS'arg1.model.ipar'
p58
g4
sS'model.dep_ut'
p59
g2
sS'exprs'
p60
g2
sS'x.graphics.exprs'
p61
NsS'PREVAR_scicos_context'
p62
g4
sS'model.firing'
p63
g2
sS'y'
p64
g4
sS'x'
p65
g4
sS'model'
p66
g8
sS'model.state'
p67
g2
s.