c__builtin__
set
p0
((lp1
S'needcompile'
p2
aS'scicos_context.W'
p3
aS'x'
p4
aS'scicos_context.A'
p5
aS'scicos_context.F'
p6
aS'scicos_context.E'
p7
atp8
Rp9
.c__builtin__
set
p0
((lp1
tp2
Rp3
.c__builtin__
set
p0
((lp1
tp2
Rp3
.c__builtin__
set
p0
((lp1
tp2
Rp3
.c__builtin__
set
p0
((lp1
tp2
Rp3
.c__builtin__
set
p0
((lp1
tp2
Rp3
.