c__builtin__
set
p0
((lp1
S'needcompile'
p2
aS'scicos_context.W'
p3
aS'exprs'
p4
aS'gr_i'
p5
aS'graphics'
p6
aS'x'
p7
aS'model'
p8
aS'scicos_context.A'
p9
aS'scicos_context.F'
p10
aS'scicos_context.E'
p11
atp12
Rp13
.(dp0
S'model.odstate'
p1
S'list'
p2
sS'A'
p3
S'double'
p4
sS'arg1.model.ipar'
p5
g4
sS'model.dstate'
p6
S'vector'
p7
sS'W'
p8
g4
sS'arg1'
p9
S'object'
p10
sS'scs_m_1.objs[6-1]'
p11
g4
sS'scs_m_1.objs[5-1]'
p12
g4
sS'scs_m_1.objs[3-1]'
p13
g4
sS'scicos_context'
p14
g4
sS'model.out'
p15
g4
sS'x.model'
p16
g10
sS'scs_m_1.objs[9-1]'
p17
g4
sS'x.model.rpar'
p18
g10
sS'Btitre'
p19
S'string'
p20
sS'E'
p21
g4
sS'scs_m_1.objs[11-1]'
p22
g4
sS'model.in2'
p23
g7
sS'model.intyp'
p24
g4
sS'model.nzcross'
p25
g4
sS'model.opar'
p26
g2
sS'gr_i'
p27
g7
sS'scs_m_1'
p28
g4
sS'model.evtin'
p29
g7
sS'scs_m_1.objs[2-1]'
p30
g4
sS'model.label'
p31
g20
sS'model.sim'
p32
g20
sS'model.evtout'
p33
g7
sS'model.equations'
p34
g2
sS'scs_m_1.objs[8-1]'
p35
g4
sS'scs_m_1.objs[10-1]'
p36
g4
sS'F'
p37
g4
sS'Ss'
p38
g2
sS'Exprs0'
p39
S'matrix'
p40
sS'model.out2'
p41
g4
sS'sblock'
p42
g10
sS'model.nmode'
p43
g4
sS'model.rpar'
p44
g4
sS'scs_m_1.objs[4-1]'
p45
g4
sS'sblock.props'
p46
g10
sS'model.in'
p47
g7
sS'graphics'
p48
g10
sS'scs_m_1.objs[7-1]'
p49
g4
sS'model.ipar'
p50
g4
sS'typ'
p51
g2
sS'model.outtyp'
p52
g4
sS'Bitems'
p53
g40
sS'ok'
p54
S'boolean'
p55
sS'model.blocktype'
p56
g20
sS'scs_m_1.objs[1-1]'
p57
g4
sS'model.dep_ut'
p58
S'vector_boolean'
p59
sS'exprs'
p60
S'vector_string'
p61
sS'x.graphics.exprs'
p62
NsS'PREVAR_scicos_context'
p63
g4
sS'model.firing'
p64
g7
sS'y'
p65
g4
sS'x'
p66
g10
sS'model'
p67
g10
sS'model.state'
p68
g7
s.