c__builtin__
set
p0
((lp1
S'needcompile'
p2
aS'Bitems'
p3
aS'scicos_context'
p4
aS'graphics'
p5
aS'Btitre'
p6
aS'x'
p7
aS'model'
p8
atp9
Rp10
.(dp0
S'model.odstate'
p1
S'list'
p2
sS'A'
p3
S'double'
p4
sS'scs_m_1.objs[9-1]'
p5
g4
sS'model.dstate'
p6
S'vector'
p7
sS'W'
p8
g4
sS'scs_m_1.objs[6-1]'
p9
g4
sS'scs_m_1.objs[5-1]'
p10
g4
sS'scs_m_1.objs[3-1]'
p11
g4
sS'scicos_context'
p12
g4
sS'model.out'
p13
g4
sS'x.model'
p14
S'object'
p15
sS'x.model.rpar'
p16
g15
sS'Btitre'
p17
S'string'
p18
sS'E'
p19
g4
sS'scs_m_1.objs[11-1]'
p20
g4
sS'model.in2'
p21
g7
sS'model.intyp'
p22
g4
sS'model.nzcross'
p23
g4
sS'model.opar'
p24
g2
sS'gr_i'
p25
g7
sS'scs_m_1'
p26
g4
sS'model.evtin'
p27
g7
sS'scs_m_1.objs[2-1]'
p28
g4
sS'model.label'
p29
g18
sS'model.sim'
p30
g18
sS'model.evtout'
p31
g7
sS'model.equations'
p32
g2
sS'scs_m_1.objs[8-1]'
p33
g4
sS'scs_m_1.objs[10-1]'
p34
g4
sS'F'
p35
g4
sS'Ss'
p36
g2
sS'Exprs0'
p37
S'matrix'
p38
sS'model.out2'
p39
g4
sS'sblock'
p40
g15
sS'model.nmode'
p41
g4
sS'model.rpar'
p42
g4
sS'scs_m_1.objs[4-1]'
p43
g4
sS'sblock.props'
p44
g15
sS'model.in'
p45
g7
sS'graphics'
p46
g15
sS'scs_m_1.objs[7-1]'
p47
g4
sS'model.ipar'
p48
g4
sS'typ'
p49
g2
sS'model.outtyp'
p50
g4
sS'Bitems'
p51
g38
sS'ok'
p52
S'boolean'
p53
sS'model.blocktype'
p54
g18
sS'scs_m_1.objs[1-1]'
p55
g4
sS'model.dep_ut'
p56
S'vector_boolean'
p57
sS'exprs'
p58
S'vector_string'
p59
sS'x.graphics.exprs'
p60
NsS'PREVAR_scicos_context'
p61
g4
sS'model.firing'
p62
g7
sS'y'
p63
g4
sS'x'
p64
g15
sS'model'
p65
g15
sS'model.state'
p66
g7
s.