c__builtin__
set
p0
((lp1
S'needcompile'
p2
aS'scicos_context.W'
p3
aS'x'
p4
aS'model'
p5
aS'scicos_context.A'
p6
aS'scicos_context.F'
p7
aS'scicos_context.E'
p8
atp9
Rp10
.(dp0
S'model.odstate'
p1
S'list'
p2
sS'A'
p3
S'double'
p4
sS'scs_m_1.objs[1-1]'
p5
g4
sS'model.dstate'
p6
S'vector'
p7
sS'arg1'
p8
S'object'
p9
sS'scs_m_1.objs[6-1]'
p10
g4
sS'scs_m_1.objs[5-1]'
p11
g4
sS'scs_m_1.objs[3-1]'
p12
g4
sS'scicos_context'
p13
g4
sS'model.out'
p14
g4
sS'x.model'
p15
g9
sS'scs_m_1.objs[9-1]'
p16
g4
sS'x.model.rpar'
p17
g9
sS'Btitre'
p18
S'string'
p19
sS'E'
p20
g4
sS'scs_m_1.objs[11-1]'
p21
g4
sS'model.in2'
p22
g7
sS'model.in1'
p23
g7
sS'model.nzcross'
p24
g4
sS'model.opar'
p25
g2
sS'[sblock,%w,needcompile2,ok]'
p26
g4
sS'gr_i'
p27
g7
sS'scs_m_1'
p28
g4
sS'model.evtin'
p29
g7
sS'[PREVAR_scicos_context,ierr]'
p30
g4
sS'scs_m_1.objs[2-1]'
p31
g4
sS'model.label'
p32
g19
sS'model.sim'
p33
g19
sS'model.evtout'
p34
g7
sS'model.equations'
p35
g2
sS'scs_m_1.objs[8-1]'
p36
g4
sS'scs_m_1.objs[10-1]'
p37
g4
sS'F'
p38
g4
sS'Ss'
p39
g2
sS'Exprs0'
p40
S'matrix'
p41
sS'model.out2'
p42
g4
sS'sblock'
p43
g9
sS'model.intyp'
p44
g4
sS'model.rpar'
p45
g4
sS'model.nmode'
p46
g4
sS'scs_m_1.objs[4-1]'
p47
g4
sS'sblock.props'
p48
g9
sS'W'
p49
g4
sS'graphics'
p50
g9
sS'scs_m_1.objs[7-1]'
p51
g4
sS'model.ipar'
p52
g4
sS'typ'
p53
g2
sS'model.outtyp'
p54
g4
sS'Bitems'
p55
g41
sS'ok'
p56
S'boolean'
p57
sS'model.blocktype'
p58
g19
sS'arg1.model.ipar'
p59
g4
sS'model.dep_ut'
p60
g7
sS'exprs'
p61
g7
sS'x.graphics.exprs'
p62
NsS'PREVAR_scicos_context'
p63
g4
sS'model.firing'
p64
g7
sS'y'
p65
g4
sS'x'
p66
g4
sS'model'
p67
g9
sS'model.state'
p68
g7
s.