c__builtin__
set
p0
((lp1
S'needcompile'
p2
aS'scicos_context.W'
p3
aS'exprs'
p4
aS'gr_i'
p5
aS'graphics'
p6
aS'x'
p7
aS'model'
p8
aS'scicos_context.A'
p9
aS'scicos_context.F'
p10
aS'scicos_context.E'
p11
atp12
Rp13
.(dp0
S'model.odstate'
p1
S'list'
p2
sS'A'
p3
S'double'
p4
sS'arg1.model.ipar'
p5
g4
sS'model.dstate'
p6
S'vector'
p7
sS'arg1'
p8
S'object'
p9
sS'scs_m_1.objs[6-1]'
p10
g4
sS'scs_m_1.objs[5-1]'
p11
g4
sS'scs_m_1.objs[3-1]'
p12
g4
sS'scicos_context'
p13
g4
sS'model.out'
p14
g4
sS'x.model'
p15
g9
sS'scs_m_1.objs[9-1]'
p16
g4
sS'x.model.rpar'
p17
g9
sS'Btitre'
p18
S'string'
p19
sS'E'
p20
g4
sS'scs_m_1.objs[11-1]'
p21
g4
sS'model.in2'
p22
g7
sS'model.in1'
p23
g7
sS'model.nzcross'
p24
g4
sS'model.opar'
p25
g2
sS'gr_i'
p26
g7
sS'scs_m_1'
p27
g4
sS'model.evtin'
p28
g7
sS'scs_m_1.objs[2-1]'
p29
g4
sS'model.label'
p30
g19
sS'model.sim'
p31
g19
sS'model.evtout'
p32
g7
sS'model.equations'
p33
g2
sS'scs_m_1.objs[8-1]'
p34
g4
sS'scs_m_1.objs[10-1]'
p35
g4
sS'F'
p36
g4
sS'Ss'
p37
g2
sS'Exprs0'
p38
S'matrix'
p39
sS'model.out2'
p40
g4
sS'sblock'
p41
g9
sS'model.intyp'
p42
g4
sS'model.rpar'
p43
g4
sS'model.nmode'
p44
g4
sS'scs_m_1.objs[4-1]'
p45
g4
sS'sblock.props'
p46
g9
sS'W'
p47
g4
sS'graphics'
p48
g9
sS'scs_m_1.objs[7-1]'
p49
g4
sS'model.ipar'
p50
g4
sS'typ'
p51
g2
sS'model.outtyp'
p52
g4
sS'Bitems'
p53
g39
sS'ok'
p54
S'boolean'
p55
sS'model.blocktype'
p56
g19
sS'scs_m_1.objs[1-1]'
p57
g4
sS'model.dep_ut'
p58
g7
sS'exprs'
p59
g7
sS'x.graphics.exprs'
p60
NsS'PREVAR_scicos_context'
p61
g4
sS'model.firing'
p62
g7
sS'y'
p63
g4
sS'x'
p64
g4
sS'model'
p65
g9
sS'model.state'
p66
g7
s.