c__builtin__
set
p0
((lp1
S'slope'
p2
aS'iout'
p3
aS'stt'
p4
aS'graphics'
p5
aS'x'
p6
aS'model'
p7
atp8
Rp9
.(dp0
S'slope'
p1
S'double'
p2
sS'graphics'
p3
S'object'
p4
sS'rpar'
p5
S'matrix'
p6
sS'x.model'
p7
NsS'model.out'
p8
g2
sS'x.graphics'
p9
g4
sS'typ'
p10
S'vector'
p11
sS'model.sim'
p12
S'list'
p13
sS'model.nmode'
p14
g2
sS'model.rpar'
p15
g6
sS'model.in'
p16
g11
sS'graphics.exprs'
p17
NsS'model.nzcross'
p18
g2
sS'model.blocktype'
p19
S'string'
p20
sS'iout'
p21
g2
sS'model.dep_ut'
p22
S'vector_boolean'
p23
sS'stt'
p24
g2
sS'exprs'
p25
S'vector_string'
p26
sS'gr_i'
p27
g11
sS'y'
p28
g11
sS'x'
p29
g11
sS'model'
p30
g4
s.