c__builtin__
set
p0
((lp1
S'slope'
p2
aS'x'
p3
aS'stt'
p4
aS'iout'
p5
atp6
Rp7
.(dp0
S'arg1'
p1
S'object'
p2
sS'graphics'
p3
g2
sS'rpar'
p4
S'matrix'
p5
sS'this.x.model'
p6
NsS'model.out'
p7
S'double'
p8
sS'this.iout'
p9
g8
sS'this.slope'
p10
g8
sS'model.in1'
p11
S'vector'
p12
sS'model.nzcross'
p13
g8
sS'this.x'
p14
g8
sS'model.sim'
p15
g12
sS'this.stt'
p16
g8
sS'model.nmode'
p17
g8
sS'model.rpar'
p18
g5
sS'graphics.exprs'
p19
NsS'this.x.graphics'
p20
g2
sS'model.blocktype'
p21
S'string'
p22
sS'typ'
p23
g12
sS'model.dep_ut'
p24
g12
sS'exprs'
p25
g12
sS'gr_i'
p26
g12
sS'y'
p27
g12
sS'model'
p28
g2
s.