c__builtin__
set
p0
((lp1
S'slope'
p2
aS'iout'
p3
aS'stt'
p4
aS'exprs'
p5
aS'gr_i'
p6
aS'graphics'
p7
aS'x'
p8
aS'model'
p9
atp10
Rp11
.(dp0
S'slope'
p1
S'double'
p2
sS'arg1'
p3
S'object'
p4
sS'graphics'
p5
g4
sS'rpar'
p6
S'matrix'
p7
sS'x.model'
p8
NsS'model.out'
p9
g2
sS'x.graphics'
p10
g4
sS'model.nzcross'
p11
g2
sS'model.sim'
p12
S'list'
p13
sS'model.nmode'
p14
g2
sS'model.rpar'
p15
g7
sS'model.in'
p16
S'vector'
p17
sS'graphics.exprs'
p18
NsS'typ'
p19
g17
sS'model.blocktype'
p20
S'string'
p21
sS'iout'
p22
g2
sS'model.dep_ut'
p23
S'vector_boolean'
p24
sS'stt'
p25
g2
sS'exprs'
p26
S'vector_string'
p27
sS'gr_i'
p28
g17
sS'y'
p29
g17
sS'x'
p30
NsS'model'
p31
g4
s.