c__builtin__
set
p0
((lp1
S'slope'
p2
aS'iout'
p3
aS'stt'
p4
aS'graphics'
p5
aS'x'
p6
aS'model'
p7
atp8
Rp9
.(dp0
S'slope'
p1
S'double'
p2
sS'arg1'
p3
S'object'
p4
sS'graphics'
p5
g4
sS'rpar'
p6
S'matrix'
p7
sS'x.model'
p8
NsS'model.out'
p9
g2
sS'model.in1'
p10
S'vector'
p11
sS'x.graphics'
p12
g4
sS'model.nzcross'
p13
g2
sS'model.sim'
p14
S'list'
p15
sS'model.nmode'
p16
g2
sS'model.rpar'
p17
g7
sS'graphics.exprs'
p18
NsS'typ'
p19
g11
sS'model.blocktype'
p20
S'string'
p21
sS'iout'
p22
g2
sS'model.dep_ut'
p23
g11
sS'stt'
p24
g2
sS'exprs'
p25
g11
sS'gr_i'
p26
g11
sS'y'
p27
g11
sS'x'
p28
g2
sS'model'
p29
g4
s.