c__builtin__
set
p0
((lp1
S'slope'
p2
aS'x'
p3
aS'stt'
p4
aS'iout'
p5
atp6
Rp7
.(dp0
S'slope'
p1
S'double'
p2
sS'arg1'
p3
S'object'
p4
sS'graphics'
p5
g4
sS'rpar'
p6
S'matrix'
p7
sS'x.model'
p8
NsS'model.out'
p9
g2
sS'model.in1'
p10
S'vector'
p11
sS'x.graphics'
p12
g4
sS'model.nzcross'
p13
g2
sS'model.sim'
p14
g11
sS'model.nmode'
p15
g2
sS'model.rpar'
p16
g7
sS'graphics.exprs'
p17
NsS'typ'
p18
g11
sS'model.blocktype'
p19
S'string'
p20
sS'iout'
p21
g2
sS'model.dep_ut'
p22
g11
sS'stt'
p23
g2
sS'exprs'
p24
g11
sS'gr_i'
p25
g11
sS'y'
p26
g11
sS'x'
p27
g2
sS'model'
p28
g4
s.