c__builtin__
set
p0
((lp1
S'a'
p2
aS'b'
p3
aS'seed_c'
p4
aS'flag'
p5
aS'x'
p6
aS'model'
p7
aS'typ'
p8
atp9
Rp10
.(dp0
S'model.dstate'
p1
S'matrix'
p2
sS'arg1'
p3
S'object'
p4
sS'graphics'
p5
g4
sS'x.model'
p6
NsS'funtyp'
p7
S'double'
p8
sS'model.out'
p9
g8
sS'out'
p10
g8
sS'model.in2'
p11
S'vector'
p12
sS'model.in1'
p13
g12
sS'x.graphics'
p14
g4
sS'exprs[9-1]'
p15
g12
sS'model.evtin'
p16
g8
sS'model.firing'
p17
g12
sS'function_name'
p18
S'string'
p19
sS'model.sim'
p20
S'list'
p21
sS'model.evtout'
p22
g12
sS'[this.model,graphics,ok]'
p23
g8
sS'model.out2'
p24
g8
sS'model.intyp'
p25
g12
sS'model.rpar'
p26
g12
sS'model.outtyp'
p27
g8
sS'flag'
p28
g8
sS'model.state'
p29
g12
sS'graphics.exprs'
p30
NsS'dt'
p31
g8
sS'model.ipar'
p32
g8
sS'typ'
p33
g12
sS'a'
p34
g8
sS'b'
p35
g8
sS'ok'
p36
S'boolean'
p37
sS'model.blocktype'
p38
g19
sS'model.dep_ut'
p39
g12
sS'exprs'
p40
g2
sS'gr_i'
p41
g12
sS'y'
p42
g12
sS'x'
p43
g8
sS'model'
p44
g4
sS'ot'
p45
g8
s.