c__builtin__
set
p0
((lp1
S'a'
p2
aS'b'
p3
aS'seed_c'
p4
aS'flag'
p5
aS'graphics'
p6
aS'x'
p7
aS'model'
p8
atp9
Rp10
.(dp0
S'model.dstate'
p1
S'matrix'
p2
sS'graphics'
p3
S'object'
p4
sS'x.model'
p5
g4
sS'model.out'
p6
S'double'
p7
sS'out'
p8
g7
sS'x.graphics'
p9
g4
sS'model.evtin'
p10
g7
sS'model.sim'
p11
S'string'
p12
sS'model.rpar'
p13
g2
sS'flag'
p14
g7
sS'graphics.exprs'
p15
g2
sS'dt'
p16
g7
sS'model.ipar'
p17
g7
sS'typ'
p18
S'vector'
p19
sS'a'
p20
g7
sS'b'
p21
g7
sS'model.blocktype'
p22
g12
sS'model.dep_ut'
p23
S'vector_boolean'
p24
sS'exprs'
p25
g2
sS'gr_i'
p26
g19
sS'y'
p27
g19
sS'x'
p28
g19
sS'model'
p29
g4
sS'nout'
p30
g7
s.