c__builtin__
set
p0
((lp1
S'a'
p2
aS'b'
p3
aS'seed_c'
p4
aS'exprs'
p5
aS'flag'
p6
aS'gr_i'
p7
aS'graphics'
p8
aS'x'
p9
aS'model'
p10
aS'typ'
p11
atp12
Rp13
.(dp0
S'model.dstate'
p1
S'matrix'
p2
sS'arg1'
p3
S'object'
p4
sS'graphics'
p5
g4
sS'x.model'
p6
NsS'funtyp'
p7
S'double'
p8
sS'model.out'
p9
g8
sS'out'
p10
g8
sS'model.in2'
p11
S'vector'
p12
sS'model.in1'
p13
g12
sS'x.graphics'
p14
g4
sS'exprs[9-1]'
p15
g12
sS'model.evtin'
p16
g8
sS'model.firing'
p17
g12
sS'function_name'
p18
S'string'
p19
sS'model.sim'
p20
S'list'
p21
sS'model.evtout'
p22
g12
sS'model.out2'
p23
g8
sS'model.intyp'
p24
g12
sS'model.rpar'
p25
g12
sS'model.outtyp'
p26
g8
sS'flag'
p27
g8
sS'model.state'
p28
g12
sS'graphics.exprs'
p29
NsS'dt'
p30
g8
sS'model.ipar'
p31
g8
sS'typ'
p32
g12
sS'a'
p33
g8
sS'b'
p34
g8
sS'ok'
p35
S'boolean'
p36
sS'model.blocktype'
p37
g19
sS'model.dep_ut'
p38
g12
sS'exprs'
p39
g2
sS'gr_i'
p40
g12
sS'y'
p41
g12
sS'x'
p42
g8
sS'model'
p43
g4
sS'ot'
p44
g8
s.