c__builtin__
set
p0
((lp1
S'a'
p2
aS'b'
p3
aS'seed_c'
p4
aS'flag'
p5
aS'x'
p6
aS'typ'
p7
atp8
Rp9
.(dp0
S'model.dstate'
p1
S'matrix'
p2
sS'arg1'
p3
S'object'
p4
sS'graphics'
p5
g4
sS'funtyp'
p6
S'double'
p7
sS'this.x.model'
p8
NsS'model.out'
p9
g7
sS'dt'
p10
g7
sS'out'
p11
g7
sS'model.in2'
p12
S'vector'
p13
sS'model.in1'
p14
g13
sS'typ'
p15
g13
sS'exprs[9-1]'
p16
g13
sS'model.evtin'
p17
g7
sS'model.firing'
p18
g13
sS'function_name'
p19
S'string'
p20
sS'this.x'
p21
g7
sS'model.sim'
p22
g13
sS'model.evtout'
p23
g13
sS'this.flag'
p24
g7
sS'model.out2'
p25
g7
sS'model.intyp'
p26
g13
sS'model.rpar'
p27
g13
sS'model.outtyp'
p28
g7
sS'model.state'
p29
g13
sS'graphics.exprs'
p30
NsS'this.a'
p31
g7
sS'this.b'
p32
g7
sS'model.ipar'
p33
NsS'this.x.graphics'
p34
g4
sS'[model,graphics,ok]'
p35
g7
sS'ok'
p36
S'boolean'
p37
sS'model.blocktype'
p38
g20
sS'model.dep_ut'
p39
g13
sS'exprs'
p40
g2
sS'gr_i'
p41
g13
sS'y'
p42
g13
sS'model'
p43
g4
sS'ot'
p44
g7
s.