c__builtin__
set
p0
((lp1
S'a'
p2
aS'b'
p3
aS'seed_c'
p4
aS'flag'
p5
aS'graphics'
p6
aS'x'
p7
aS'model'
p8
atp9
Rp10
.(dp0
S'model.dstate'
p1
S'matrix'
p2
sS'arg1'
p3
S'object'
p4
sS'graphics'
p5
g4
sS'x.model'
p6
g4
sS'model.out'
p7
S'double'
p8
sS'out'
p9
g8
sS'x.graphics'
p10
g4
sS'model.evtin'
p11
g8
sS'model.sim'
p12
S'string'
p13
sS'model.rpar'
p14
g2
sS'flag'
p15
g8
sS'graphics.exprs'
p16
g2
sS'dt'
p17
g8
sS'model.ipar'
p18
g8
sS'typ'
p19
S'vector'
p20
sS'a'
p21
g8
sS'b'
p22
g8
sS'model.blocktype'
p23
g13
sS'model.dep_ut'
p24
S'vector_boolean'
p25
sS'exprs'
p26
g2
sS'gr_i'
p27
g20
sS'y'
p28
g20
sS'x'
p29
NsS'model'
p30
g4
sS'nout'
p31
g8
s.