c__builtin__
set
p0
((lp1
S'a'
p2
aS'b'
p3
aS'seed_c'
p4
aS'flag'
p5
aS'x'
p6
aS'typ'
p7
atp8
Rp9
.c__builtin__
set
p0
((lp1
tp2
Rp3
.c__builtin__
set
p0
((lp1
tp2
Rp3
.c__builtin__
set
p0
((lp1
tp2
Rp3
.c__builtin__
set
p0
((lp1
tp2
Rp3
.c__builtin__
set
p0
((lp1
tp2
Rp3
.