c__builtin__
set
p0
((lp1
S'a'
p2
aS'x'
p3
aS'flag'
p4
aS'b'
p5
aS'seed_c'
p6
atp7
Rp8
.(dp0
S'model.dstate'
p1
S'matrix'
p2
sS'arg1'
p3
S'object'
p4
sS'graphics'
p5
g4
sS'x.model'
p6
g4
sS'model.out'
p7
S'double'
p8
sS'out'
p9
g8
sS'x.graphics'
p10
g4
sS'model.evtin'
p11
g8
sS'model.sim'
p12
S'string'
p13
sS'model.rpar'
p14
g2
sS'flag'
p15
g8
sS'graphics.exprs'
p16
g2
sS'dt'
p17
g8
sS'model.ipar'
p18
g8
sS'typ'
p19
S'vector'
p20
sS'a'
p21
g8
sS'b'
p22
g8
sS'model.blocktype'
p23
g13
sS'model.dep_ut'
p24
g20
sS'exprs'
p25
g2
sS'gr_i'
p26
g20
sS'y'
p27
g20
sS'x'
p28
g8
sS'model'
p29
g4
sS'nout'
p30
g8
s.