c__builtin__
set
p0
((lp1
S'a'
p2
aS'b'
p3
aS'seed_c'
p4
aS'flag'
p5
aS'graphics'
p6
aS'x'
p7
aS'model'
p8
aS'typ'
p9
atp10
Rp11
.(dp0
S'model.dstate'
p1
S'matrix'
p2
sS'exprs[9-1]'
p3
S'vector'
p4
sS'graphics'
p5
S'object'
p6
sS'x.model'
p7
NsS'funtyp'
p8
S'double'
p9
sS'model.out'
p10
g9
sS'out'
p11
g9
sS'model.in2'
p12
g4
sS'model.intyp'
p13
g4
sS'x.graphics'
p14
g6
sS'model.evtin'
p15
g9
sS'model.firing'
p16
g4
sS'function_name'
p17
S'string'
p18
sS'model.sim'
p19
S'list'
p20
sS'model.evtout'
p21
g4
sS'model.out2'
p22
g9
sS'model.rpar'
p23
g4
sS'model.outtyp'
p24
g9
sS'flag'
p25
g9
sS'model.state'
p26
g4
sS'model.in'
p27
g4
sS'graphics.exprs'
p28
NsS'dt'
p29
g9
sS'model.ipar'
p30
g9
sS'typ'
p31
g4
sS'a'
p32
g9
sS'b'
p33
g9
sS'ok'
p34
S'boolean'
p35
sS'model.blocktype'
p36
g18
sS'model.dep_ut'
p37
S'vector_boolean'
p38
sS'exprs'
p39
g2
sS'gr_i'
p40
g4
sS'y'
p41
g4
sS'x'
p42
g4
sS'model'
p43
g6
sS'ot'
p44
g9
s.