c__builtin__
set
p0
((lp1
S'a'
p2
aS'x'
p3
aS'flag'
p4
aS'b'
p5
aS'seed_c'
p6
atp7
Rp8
.(dp0
S'model.dstate'
p1
S'matrix'
p2
sS'arg1'
p3
S'object'
p4
sS'graphics'
p5
g4
sS'this.x.model'
p6
g4
sS'model.out'
p7
S'double'
p8
sS'this.b'
p9
g8
sS'out'
p10
g8
sS'typ'
p11
S'vector'
p12
sS'model.evtin'
p13
g8
sS'this.x'
p14
g8
sS'model.sim'
p15
S'string'
p16
sS'this.flag'
p17
g8
sS'model.rpar'
p18
g2
sS'graphics.exprs'
p19
g2
sS'this.a'
p20
g8
sS'dt'
p21
g8
sS'model.ipar'
p22
NsS'this.x.graphics'
p23
g4
sS'model.blocktype'
p24
g16
sS'model.dep_ut'
p25
g12
sS'exprs'
p26
g2
sS'gr_i'
p27
g12
sS'y'
p28
g12
sS'model'
p29
g4
sS'nout'
p30
g8
s.