c__builtin__
set
p0
((lp1
S'_str2code'
p2
aS'fname1'
p3
aS'N'
p4
aS'alreadyran'
p5
aS'x'
p6
aS'swap'
p7
atp8
Rp9
.(dp0
S'tmask'
p1
S'vector'
p2
sS'model.dstate'
p3
S'matrix'
p4
sS'arg1'
p5
S'object'
p6
sS'this.swap'
p7
S'double'
p8
sS'graphics'
p9
g6
sS'dstate'
p10
g4
sS'this.x.model'
p11
g6
sS'model.out'
p12
g8
sS'out'
p13
NsS'graphics.exprs'
p14
NsS'this.x.graphics'
p15
g6
sS'lunit'
p16
g8
sS'this.fname1'
p17
g8
sS'fname'
p18
S'string'
p19
sS'frmt'
p20
g19
sS'model.evtin'
p21
g8
sS'tmask1'
p22
g2
sS'this.x'
p23
g8
sS'model.sim'
p24
g2
sS'this.N'
p25
g8
sS'M'
p26
g8
sS'offset'
p27
g8
sS'model.ipar'
p28
g4
sS'typ'
p29
g2
sS'imask'
p30
g8
sS'[model,graphics,ok]'
p31
g8
sS'model.blocktype'
p32
g19
sS'outmask'
p33
g8
sS'frmt1'
p34
g19
sS'model.dep_ut'
p35
g2
sS'exprs'
p36
g4
sS'gr_i'
p37
g2
sS'ievt'
p38
g8
sS'ipar'
p39
g4
sS'y'
p40
g2
sS'model'
p41
g6
sS'nout'
p42
g8
s.