c__builtin__
set
p0
((lp1
S'_str2code'
p2
aS'outmask'
p3
aS'M'
p4
aS'frmt1'
p5
aS'fname1'
p6
aS'N'
p7
aS'swap'
p8
aS'offset'
p9
aS'x'
p10
aS'tmask1'
p11
aS'alreadyran'
p12
atp13
Rp14
.c__builtin__
set
p0
((lp1
tp2
Rp3
.c__builtin__
set
p0
((lp1
tp2
Rp3
.c__builtin__
set
p0
((lp1
tp2
Rp3
.c__builtin__
set
p0
((lp1
tp2
Rp3
.c__builtin__
set
p0
((lp1
tp2
Rp3
.