c__builtin__
set
p0
((lp1
S'_str2code'
p2
aS'outmask'
p3
aS'M'
p4
aS'frmt1'
p5
aS'fname1'
p6
aS'N'
p7
aS'exprs'
p8
aS'gr_i'
p9
aS'swap'
p10
aS'offset'
p11
aS'graphics'
p12
aS'x'
p13
aS'model'
p14
aS'tmask1'
p15
aS'alreadyran'
p16
atp17
Rp18
.(dp0
S'tmask'
p1
S'double'
p2
sS'model.dstate'
p3
S'matrix'
p4
sS'arg1'
p5
S'object'
p6
sS'graphics.exprs'
p7
NsS'dstate'
p8
g4
sS'rpar'
p9
S'vector'
p10
sS'x.model'
p11
g6
sS'model.dep_ut'
p12
S'vector_boolean'
p13
sS'model.out'
p14
g2
sS'outpt'
p15
g2
sS'out'
p16
g2
sS'x.graphics'
p17
g6
sS'lunit'
p18
g2
sS'offset'
p19
g2
sS'swap'
p20
g2
sS'fname'
p21
S'string'
p22
sS'frmt'
p23
g22
sS'model.evtin'
p24
g2
sS'tmask1'
p25
g2
sS'model.firing'
p26
g2
sS'model.sim'
p27
S'list'
p28
sS'model.evtout'
p29
g10
sS'M'
p30
g2
sS'fmts'
p31
g10
sS'N'
p32
g2
sS'graphics'
p33
g6
sS'model.ipar'
p34
g4
sS'typ'
p35
g10
sS'imask'
p36
g2
sS'model.blocktype'
p37
g22
sS'outmask'
p38
g2
sS'frmt1'
p39
g22
sS'fname1'
p40
g2
sS'exprs'
p41
g4
sS'gr_i'
p42
g10
sS'ievt'
p43
g2
sS'ipar'
p44
g4
sS'y'
p45
g10
sS'x'
p46
g6
sS'model'
p47
g6
sS'nout'
p48
g2
s.