c__builtin__
set
p0
((lp1
S'_str2code'
p2
aS'fname1'
p3
aS'N'
p4
aS'alreadyran'
p5
aS'x'
p6
aS'model'
p7
aS'swap'
p8
atp9
Rp10
.(dp0
S'tmask'
p1
S'vector'
p2
sS'model.dstate'
p3
S'matrix'
p4
sS'arg1'
p5
S'object'
p6
sS'graphics'
p7
g6
sS'dstate'
p8
g4
sS'x.model'
p9
g6
sS'model.dep_ut'
p10
g2
sS'model.out'
p11
S'double'
p12
sS'out'
p13
NsS'x.graphics'
p14
g6
sS'lunit'
p15
g12
sS'swap'
p16
g12
sS'fname'
p17
S'string'
p18
sS'frmt'
p19
g18
sS'model.evtin'
p20
g12
sS'tmask1'
p21
g2
sS'graphics.exprs'
p22
NsS'model.sim'
p23
g2
sS'M'
p24
g12
sS'N'
p25
g12
sS'offset'
p26
g12
sS'model.ipar'
p27
g4
sS'typ'
p28
g2
sS'imask'
p29
g12
sS'[model,graphics,ok]'
p30
g12
sS'model.blocktype'
p31
g18
sS'outmask'
p32
g12
sS'frmt1'
p33
g18
sS'fname1'
p34
g12
sS'exprs'
p35
g4
sS'gr_i'
p36
g2
sS'ievt'
p37
g12
sS'ipar'
p38
g4
sS'y'
p39
g2
sS'x'
p40
g12
sS'model'
p41
g6
sS'nout'
p42
g12
s.