c__builtin__
set
p0
((lp1
S'_str2code'
p2
aS'outmask'
p3
aS'M'
p4
aS'frmt1'
p5
aS'fname1'
p6
aS'N'
p7
aS'swap'
p8
aS'offset'
p9
aS'graphics'
p10
aS'x'
p11
aS'model'
p12
aS'tmask1'
p13
aS'alreadyran'
p14
atp15
Rp16
.(dp0
S'tmask'
p1
S'double'
p2
sS'model.dstate'
p3
S'matrix'
p4
sS'graphics.exprs'
p5
NsS'dstate'
p6
g4
sS'rpar'
p7
S'vector'
p8
sS'x.model'
p9
S'object'
p10
sS'model.dep_ut'
p11
S'vector_boolean'
p12
sS'model.out'
p13
g2
sS'outpt'
p14
g2
sS'out'
p15
g2
sS'x.graphics'
p16
g10
sS'lunit'
p17
g2
sS'offset'
p18
g2
sS'swap'
p19
g2
sS'fname'
p20
S'string'
p21
sS'frmt'
p22
g21
sS'model.evtin'
p23
g2
sS'tmask1'
p24
g2
sS'model.firing'
p25
g2
sS'model.sim'
p26
S'list'
p27
sS'model.evtout'
p28
g8
sS'M'
p29
g2
sS'fmts'
p30
S'vector_string'
p31
sS'N'
p32
g2
sS'graphics'
p33
g10
sS'model.ipar'
p34
g4
sS'typ'
p35
g8
sS'imask'
p36
g2
sS'model.blocktype'
p37
g21
sS'outmask'
p38
g2
sS'frmt1'
p39
g21
sS'fname1'
p40
g2
sS'exprs'
p41
g4
sS'gr_i'
p42
g8
sS'ievt'
p43
g2
sS'ipar'
p44
g4
sS'y'
p45
g8
sS'x'
p46
g10
sS'model'
p47
g10
sS'nout'
p48
g2
s.