c__builtin__
set
p0
((lp1
S'_str2code'
p2
aS'outmask'
p3
aS'M'
p4
aS'frmt1'
p5
aS'fname1'
p6
aS'N'
p7
aS'swap'
p8
aS'offset'
p9
aS'x'
p10
aS'model'
p11
aS'tmask1'
p12
aS'alreadyran'
p13
atp14
Rp15
.(dp0
S'tmask'
p1
S'double'
p2
sS'model.dstate'
p3
S'matrix'
p4
sS'arg1'
p5
S'object'
p6
sS'graphics.exprs'
p7
NsS'dstate'
p8
g4
sS'rpar'
p9
S'vector'
p10
sS'x.model'
p11
g6
sS'model.dep_ut'
p12
g10
sS'model.out'
p13
g2
sS'outpt'
p14
g2
sS'out'
p15
g2
sS'x.graphics'
p16
g6
sS'lunit'
p17
g2
sS'offset'
p18
g2
sS'swap'
p19
g2
sS'fname'
p20
S'string'
p21
sS'frmt'
p22
g21
sS'model.evtin'
p23
g2
sS'tmask1'
p24
g2
sS'model.firing'
p25
g2
sS'model.sim'
p26
S'list'
p27
sS'model.evtout'
p28
g10
sS'M'
p29
g2
sS'fmts'
p30
g10
sS'N'
p31
g2
sS'graphics'
p32
g6
sS'model.ipar'
p33
g4
sS'typ'
p34
g10
sS'imask'
p35
g2
sS'[model,graphics,ok]'
p36
g2
sS'model.blocktype'
p37
g21
sS'outmask'
p38
g2
sS'frmt1'
p39
g21
sS'fname1'
p40
g2
sS'exprs'
p41
g4
sS'gr_i'
p42
g10
sS'ievt'
p43
g2
sS'ipar'
p44
g4
sS'y'
p45
g10
sS'x'
p46
g2
sS'model'
p47
g6
sS'nout'
p48
g2
s.