c__builtin__
set
p0
((lp1
S'_str2code'
p2
aS'fname1'
p3
aS'N'
p4
aS'alreadyran'
p5
aS'x'
p6
aS'swap'
p7
atp8
Rp9
.c__builtin__
set
p0
((lp1
tp2
Rp3
.c__builtin__
set
p0
((lp1
tp2
Rp3
.c__builtin__
set
p0
((lp1
tp2
Rp3
.c__builtin__
set
p0
((lp1
tp2
Rp3
.c__builtin__
set
p0
((lp1
tp2
Rp3
.