c__builtin__
set
p0
((lp1
S'_str2code'
p2
aS'fname1'
p3
aS'N'
p4
aS'alreadyran'
p5
aS'x'
p6
aS'model'
p7
aS'swap'
p8
atp9
Rp10
.(dp0
S'tmask'
p1
S'vector'
p2
sS'model.dstate'
p3
S'matrix'
p4
sS'arg1'
p5
S'object'
p6
sS'graphics'
p7
g6
sS'dstate'
p8
g4
sS'x.model'
p9
g6
sS'model.dep_ut'
p10
g2
sS'model.out'
p11
S'double'
p12
sS'out'
p13
NsS'x.graphics'
p14
g6
sS'lunit'
p15
g12
sS'swap'
p16
g12
sS'fname'
p17
S'string'
p18
sS'frmt'
p19
g18
sS'model.evtin'
p20
g12
sS'tmask1'
p21
g2
sS'graphics.exprs'
p22
NsS'model.sim'
p23
S'list'
p24
sS'[this.model,graphics,ok]'
p25
g24
sS'M'
p26
g12
sS'N'
p27
g12
sS'offset'
p28
g12
sS'model.ipar'
p29
g4
sS'typ'
p30
g2
sS'imask'
p31
g12
sS'model.blocktype'
p32
g18
sS'outmask'
p33
g12
sS'frmt1'
p34
g18
sS'fname1'
p35
g12
sS'exprs'
p36
g4
sS'gr_i'
p37
g2
sS'ievt'
p38
g12
sS'ipar'
p39
g4
sS'y'
p40
g2
sS'x'
p41
g12
sS'model'
p42
g6
sS'nout'
p43
g12
s.