c__builtin__
set
p0
((lp1
S'_str2code'
p2
aS'fname1'
p3
aS'N'
p4
aS'swap'
p5
aS'graphics'
p6
aS'x'
p7
aS'model'
p8
aS'alreadyran'
p9
atp10
Rp11
.(dp0
S'tmask'
p1
S'vector'
p2
sS'model.dstate'
p3
S'matrix'
p4
sS'arg1'
p5
S'object'
p6
sS'graphics'
p7
g6
sS'dstate'
p8
g4
sS'x.model'
p9
g6
sS'model.dep_ut'
p10
S'vector_boolean'
p11
sS'model.out'
p12
S'double'
p13
sS'out'
p14
NsS'x.graphics'
p15
g6
sS'lunit'
p16
g13
sS'swap'
p17
g13
sS'fname'
p18
S'string'
p19
sS'frmt'
p20
g19
sS'model.evtin'
p21
g13
sS'tmask1'
p22
g2
sS'graphics.exprs'
p23
NsS'model.sim'
p24
S'list'
p25
sS'M'
p26
g13
sS'N'
p27
g13
sS'offset'
p28
g13
sS'model.ipar'
p29
g4
sS'typ'
p30
g2
sS'imask'
p31
g13
sS'model.blocktype'
p32
g19
sS'outmask'
p33
g13
sS'frmt1'
p34
g19
sS'fname1'
p35
g13
sS'exprs'
p36
g4
sS'gr_i'
p37
g2
sS'ievt'
p38
g13
sS'ipar'
p39
g4
sS'y'
p40
g2
sS'x'
p41
NsS'model'
p42
g6
sS'nout'
p43
g13
s.