c__builtin__
set
p0
((lp1
S'_str2code'
p2
aS'outmask'
p3
aS'M'
p4
aS'frmt1'
p5
aS'fname1'
p6
aS'N'
p7
aS'swap'
p8
aS'offset'
p9
aS'graphics'
p10
aS'x'
p11
aS'model'
p12
aS'tmask1'
p13
aS'alreadyran'
p14
atp15
Rp16
.(dp0
S'tmask'
p1
S'double'
p2
sS'model.dstate'
p3
S'matrix'
p4
sS'arg1'
p5
S'object'
p6
sS'graphics.exprs'
p7
NsS'dstate'
p8
g4
sS'rpar'
p9
S'vector'
p10
sS'x.model'
p11
g6
sS'model.dep_ut'
p12
S'vector_boolean'
p13
sS'model.out'
p14
g2
sS'outpt'
p15
g2
sS'out'
p16
g2
sS'x.graphics'
p17
g6
sS'lunit'
p18
g2
sS'offset'
p19
g2
sS'swap'
p20
g2
sS'fname'
p21
S'string'
p22
sS'frmt'
p23
g22
sS'model.evtin'
p24
g2
sS'tmask1'
p25
g2
sS'model.firing'
p26
g2
sS'model.sim'
p27
S'list'
p28
sS'model.evtout'
p29
g10
sS'M'
p30
g2
sS'fmts'
p31
S'vector_string'
p32
sS'N'
p33
g2
sS'graphics'
p34
g6
sS'model.ipar'
p35
g4
sS'typ'
p36
g10
sS'imask'
p37
g2
sS'model.blocktype'
p38
g22
sS'outmask'
p39
g2
sS'frmt1'
p40
g22
sS'fname1'
p41
g2
sS'exprs'
p42
g4
sS'gr_i'
p43
g10
sS'ievt'
p44
g2
sS'ipar'
p45
g4
sS'y'
p46
g10
sS'x'
p47
g6
sS'model'
p48
g6
sS'nout'
p49
g2
s.