c__builtin__
set
p0
((lp1
S'_str2code'
p2
aS'fname1'
p3
aS'N'
p4
aS'swap'
p5
aS'graphics'
p6
aS'x'
p7
aS'model'
p8
aS'alreadyran'
p9
atp10
Rp11
.(dp0
S'tmask'
p1
S'vector'
p2
sS'model.dstate'
p3
S'matrix'
p4
sS'offset'
p5
S'double'
p6
sS'dstate'
p7
g4
sS'x.model'
p8
S'object'
p9
sS'model.dep_ut'
p10
S'vector_boolean'
p11
sS'model.out'
p12
g6
sS'out'
p13
NsS'graphics'
p14
g9
sS'x.graphics'
p15
g9
sS'lunit'
p16
g6
sS'swap'
p17
g6
sS'fname'
p18
S'string'
p19
sS'frmt'
p20
g19
sS'model.evtin'
p21
g6
sS'tmask1'
p22
g2
sS'model.sim'
p23
S'list'
p24
sS'M'
p25
g6
sS'N'
p26
g6
sS'graphics.exprs'
p27
NsS'model.ipar'
p28
g4
sS'typ'
p29
g2
sS'imask'
p30
g6
sS'model.blocktype'
p31
g19
sS'outmask'
p32
g6
sS'frmt1'
p33
g19
sS'fname1'
p34
g6
sS'exprs'
p35
g4
sS'gr_i'
p36
g2
sS'ievt'
p37
g6
sS'ipar'
p38
g4
sS'y'
p39
g2
sS'x'
p40
g2
sS'model'
p41
g9
sS'nout'
p42
g6
s.