c__builtin__
set
p0
((lp1
S'_str2code'
p2
aS'outmask'
p3
aS'M'
p4
aS'frmt1'
p5
aS'fname1'
p6
aS'N'
p7
aS'swap'
p8
aS'offset'
p9
aS'x'
p10
aS'tmask1'
p11
aS'alreadyran'
p12
atp13
Rp14
.(dp0
S'tmask'
p1
S'double'
p2
sS'model.dstate'
p3
S'matrix'
p4
sS'arg1'
p5
S'object'
p6
sS'this.swap'
p7
g2
sS'graphics.exprs'
p8
NsS'dstate'
p9
g4
sS'rpar'
p10
S'vector'
p11
sS'this.tmask1'
p12
g2
sS'this.x.model'
p13
g6
sS'model.out'
p14
g2
sS'outpt'
p15
g2
sS'out'
p16
g2
sS'this.x.graphics'
p17
g6
sS'lunit'
p18
g2
sS'this.fname1'
p19
g2
sS'this.outmask'
p20
g2
sS'fname'
p21
S'string'
p22
sS'frmt'
p23
g22
sS'model.evtin'
p24
g2
sS'model.firing'
p25
g2
sS'this.x'
p26
g2
sS'model.sim'
p27
g11
sS'model.evtout'
p28
g11
sS'this.N'
p29
g2
sS'fmts'
p30
g11
sS'this.frmt1'
p31
g22
sS'graphics'
p32
g6
sS'this.offset'
p33
g2
sS'model.ipar'
p34
g4
sS'typ'
p35
g11
sS'imask'
p36
g2
sS'[model,graphics,ok]'
p37
g2
sS'model.blocktype'
p38
g22
sS'model.dep_ut'
p39
g11
sS'exprs'
p40
g4
sS'gr_i'
p41
g11
sS'ievt'
p42
g2
sS'this.M'
p43
g2
sS'ipar'
p44
g4
sS'y'
p45
g11
sS'x'
p46
g6
sS'model'
p47
g6
sS'nout'
p48
g2
s.