c__builtin__
set
p0
((lp1
S'_str2code'
p2
aS'outmask'
p3
aS'frmt1'
p4
aS'fname1'
p5
aS'N'
p6
aS'x'
p7
aS'tmask1'
p8
atp9
Rp10
.c__builtin__
set
p0
((lp1
tp2
Rp3
.c__builtin__
set
p0
((lp1
tp2
Rp3
.c__builtin__
set
p0
((lp1
tp2
Rp3
.c__builtin__
set
p0
((lp1
tp2
Rp3
.c__builtin__
set
p0
((lp1
tp2
Rp3
.