c__builtin__
set
p0
((lp1
S'_str2code'
p2
aS'outmask'
p3
aS'frmt1'
p4
aS'fname1'
p5
aS'N'
p6
aS'exprs'
p7
aS'gr_i'
p8
aS'graphics'
p9
aS'x'
p10
aS'model'
p11
aS'tmask1'
p12
atp13
Rp14
.(dp0
S'tmask'
p1
S'double'
p2
sS'model.dstate'
p3
S'matrix'
p4
sS'cout'
p5
g2
sS'model.sim'
p6
S'string'
p7
sS'arg1'
p8
S'object'
p9
sS'graphics.exprs'
p10
NsS'dstate'
p11
g4
sS'rpar'
p12
S'vector'
p13
sS'x.model'
p14
g9
sS'model.dep_ut'
p15
S'vector_boolean'
p16
sS'model.out'
p17
g2
sS'out'
p18
g2
sS'x.graphics'
p19
g9
sS'lunit'
p20
g2
sS'fname'
p21
g7
sS'frmt'
p22
g7
sS'model.evtin'
p23
g2
sS'tmask1'
p24
g2
sS'model.firing'
p25
g2
sS'exprs[6-1]'
p26
g13
sS'N'
p27
g2
sS'graphics'
p28
g9
sS'model.ipar'
p29
g4
sS'typ'
p30
g13
sS'imask'
p31
g2
sS'model.blocktype'
p32
g7
sS'outmask'
p33
g2
sS'frmt1'
p34
g2
sS'fname1'
p35
g2
sS'exprs'
p36
g4
sS'gr_i'
p37
g13
sS'ievt'
p38
g2
sS'ipar'
p39
g4
sS'y'
p40
g13
sS'x'
p41
NsS'model'
p42
g9
sS'nout'
p43
g2
s.