c__builtin__
set
p0
((lp1
S'_str2code'
p2
aS'outmask'
p3
aS'frmt1'
p4
aS'fname1'
p5
aS'N'
p6
aS'graphics'
p7
aS'x'
p8
aS'model'
p9
aS'tmask1'
p10
atp11
Rp12
.(dp0
S'tmask'
p1
S'double'
p2
sS'model.dstate'
p3
S'matrix'
p4
sS'cout'
p5
g2
sS'model.sim'
p6
S'string'
p7
sS'graphics.exprs'
p8
NsS'dstate'
p9
g4
sS'rpar'
p10
S'vector'
p11
sS'x.model'
p12
S'object'
p13
sS'model.dep_ut'
p14
S'vector_boolean'
p15
sS'model.out'
p16
g2
sS'out'
p17
g2
sS'x.graphics'
p18
g13
sS'lunit'
p19
g2
sS'fname'
p20
g7
sS'frmt'
p21
g7
sS'model.evtin'
p22
g2
sS'tmask1'
p23
g2
sS'model.firing'
p24
g2
sS'exprs[6-1]'
p25
g11
sS'N'
p26
g2
sS'graphics'
p27
g13
sS'model.ipar'
p28
g4
sS'typ'
p29
g11
sS'imask'
p30
g2
sS'model.blocktype'
p31
g7
sS'outmask'
p32
g2
sS'frmt1'
p33
g2
sS'fname1'
p34
g2
sS'exprs'
p35
g4
sS'gr_i'
p36
g11
sS'ievt'
p37
g2
sS'ipar'
p38
g4
sS'y'
p39
g11
sS'x'
p40
g11
sS'model'
p41
g13
sS'nout'
p42
g2
s.