c__builtin__
set
p0
((lp1
S'_str2code'
p2
aS'outmask'
p3
aS'frmt1'
p4
aS'fname1'
p5
aS'N'
p6
aS'x'
p7
aS'model'
p8
aS'tmask1'
p9
atp10
Rp11
.(dp0
S'tmask'
p1
S'double'
p2
sS'model.dstate'
p3
S'matrix'
p4
sS'cout'
p5
g2
sS'model.sim'
p6
S'string'
p7
sS'arg1'
p8
S'object'
p9
sS'graphics.exprs'
p10
NsS'dstate'
p11
g4
sS'rpar'
p12
S'vector'
p13
sS'x.model'
p14
g9
sS'model.dep_ut'
p15
g13
sS'model.out'
p16
g2
sS'out'
p17
g2
sS'x.graphics'
p18
g9
sS'lunit'
p19
g2
sS'fname'
p20
g7
sS'frmt'
p21
g7
sS'model.evtin'
p22
g2
sS'tmask1'
p23
g2
sS'model.firing'
p24
g2
sS'exprs[6-1]'
p25
g13
sS'[this.model,graphics,ok]'
p26
S'list'
p27
sS'N'
p28
g2
sS'graphics'
p29
g9
sS'model.ipar'
p30
g4
sS'typ'
p31
g13
sS'imask'
p32
g2
sS'model.blocktype'
p33
g7
sS'outmask'
p34
g2
sS'frmt1'
p35
g2
sS'fname1'
p36
g2
sS'exprs'
p37
g4
sS'gr_i'
p38
g13
sS'ievt'
p39
g2
sS'ipar'
p40
g4
sS'y'
p41
g13
sS'x'
p42
g2
sS'model'
p43
g9
sS'nout'
p44
g2
s.