c__builtin__
set
p0
((lp1
S'_str2code'
p2
aS'outmask'
p3
aS'frmt1'
p4
aS'fname1'
p5
aS'N'
p6
aS'x'
p7
aS'tmask1'
p8
atp9
Rp10
.(dp0
S'tmask'
p1
S'double'
p2
sS'model.dstate'
p3
S'matrix'
p4
sS'cout'
p5
g2
sS'model.sim'
p6
S'string'
p7
sS'arg1'
p8
S'object'
p9
sS'graphics.exprs'
p10
NsS'dstate'
p11
g4
sS'rpar'
p12
S'vector'
p13
sS'this.tmask1'
p14
g2
sS'this.x.model'
p15
g9
sS'model.out'
p16
g2
sS'out'
p17
g2
sS'this.x.graphics'
p18
g9
sS'lunit'
p19
g2
sS'this.fname1'
p20
g2
sS'this.outmask'
p21
g2
sS'fname'
p22
g7
sS'frmt'
p23
g7
sS'model.evtin'
p24
g2
sS'model.firing'
p25
g2
sS'this.x'
p26
g2
sS'exprs[6-1]'
p27
g13
sS'this.N'
p28
g2
sS'this.frmt1'
p29
g2
sS'N'
p30
g2
sS'graphics'
p31
g9
sS'model.ipar'
p32
g4
sS'typ'
p33
g13
sS'imask'
p34
g2
sS'[model,graphics,ok]'
p35
g2
sS'model.blocktype'
p36
g7
sS'model.dep_ut'
p37
g13
sS'exprs'
p38
g4
sS'gr_i'
p39
g13
sS'ievt'
p40
g2
sS'ipar'
p41
g4
sS'y'
p42
g13
sS'model'
p43
g9
sS'nout'
p44
g2
s.