c__builtin__
set
p0
((lp1
S'x'
p2
aS'model'
p3
aS'offset'
p4
aS'frequ'
p5
aS'graphics'
p6
atp7
Rp8
.(dp0
S'needcompile'
p1
S'double'
p2
sS'model.sim'
p3
S'string'
p4
sS'model.evtout'
p5
g2
sS'ok'
p6
S'boolean'
p7
sS'model.blocktype'
p8
g4
sS'x.graphics'
p9
S'object'
p10
sS'graphics.exprs'
p11
NsS'model.rpar'
p12
S'vector'
p13
sS'exprs'
p14
S'matrix'
p15
sS'x.model'
p16
g10
sS'model.dep_ut'
p17
S'vector_boolean'
p18
sS'graphics'
p19
g10
sS'y'
p20
g2
sS'x'
p21
g13
sS'model'
p22
g10
sS'typ'
p23
g13
sS'model.firing'
p24
g2
s.