c__builtin__
set
p0
((lp1
S'x'
p2
aS'frequ'
p3
aS'offset'
p4
atp5
Rp6
.(dp0
S'this.x'
p1
S'double'
p2
sS'needcompile'
p3
g2
sS'model.evtout'
p4
g2
sS'ok'
p5
S'boolean'
p6
sS'model.blocktype'
p7
S'string'
p8
sS'model.sim'
p9
g8
sS'this.x.graphics'
p10
S'object'
p11
sS'arg1'
p12
g11
sS'graphics.exprs'
p13
NsS'model.rpar'
p14
S'vector'
p15
sS'this.x.model'
p16
g11
sS'exprs'
p17
S'matrix'
p18
sS'model.dep_ut'
p19
g15
sS'graphics'
p20
g11
sS'y'
p21
g2
sS'model'
p22
g2
sS'typ'
p23
g15
sS'model.firing'
p24
g2
s.