c__builtin__
set
p0
((lp1
S'frequ'
p2
aS'offset'
p3
aS'exprs'
p4
aS'gr_i'
p5
aS'graphics'
p6
aS'x'
p7
aS'model'
p8
atp9
Rp10
.(dp0
S'needcompile'
p1
S'double'
p2
sS'model.sim'
p3
S'string'
p4
sS'model.evtout'
p5
g2
sS'ok'
p6
S'boolean'
p7
sS'model.blocktype'
p8
g4
sS'x.graphics'
p9
S'object'
p10
sS'arg1'
p11
g10
sS'graphics.exprs'
p12
NsS'model.rpar'
p13
S'vector'
p14
sS'exprs'
p15
S'matrix'
p16
sS'x.model'
p17
g10
sS'model.dep_ut'
p18
S'vector_boolean'
p19
sS'graphics'
p20
g10
sS'y'
p21
g2
sS'x'
p22
NsS'model'
p23
g10
sS'typ'
p24
g14
sS'model.firing'
p25
g2
s.