c__builtin__
set
p0
((lp1
S'x'
p2
aS'model'
p3
aS'gr_i'
p4
aS'exprs'
p5
aS'graphics'
p6
atp7
Rp8
.(dp0
S'model.sim'
p1
S'string'
p2
sS'model.dstate'
p3
S'double'
p4
sS'model.blocktype'
p5
g2
sS'exprs'
p6
g2
sS'model.evtin'
p7
g4
sS'model.dep_ut'
p8
S'vector_boolean'
p9
sS'model.out'
p10
g4
sS'gr_i'
p11
S'vector'
p12
sS'y'
p13
g12
sS'x'
p14
NsS'model'
p15
S'object'
p16
sS'typ'
p17
g12
s.