c__builtin__
set
p0
((lp1
S'x'
p2
atp3
Rp4
.(dp0
S'model.sim'
p1
S'string'
p2
sS'model.dstate'
p3
S'double'
p4
sS'model.blocktype'
p5
g2
sS'exprs'
p6
g2
sS'model.evtin'
p7
g4
sS'model.dep_ut'
p8
S'vector'
p9
sS'model.out'
p10
g4
sS'gr_i'
p11
g9
sS'y'
p12
g9
sS'x'
p13
g4
sS'model'
p14
S'object'
p15
sS'typ'
p16
g9
s.