c__builtin__
set
p0
((lp1
S'xxn'
p2
aS'y'
p3
aS'x'
p4
aS'N'
p5
aS'ORDER2'
p6
aS'order'
p7
atp8
Rp9
.(dp0
S'Y[j-1]'
p1
S'double'
p2
sS'j'
p3
S'string'
p4
sS'A[j+1-1][i+2*this.N-1]'
p5
g2
sS'ppath'
p6
S'vector'
p7
sS'arg1'
p8
S'object'
p9
sS'scs_m_1.objs[6-1]'
p10
g2
sS'scs_m_1.objs[3-1]'
p11
g2
sS'NP'
p12
g2
sS'A[j+2-1][i+this.N+1-1]'
p13
g2
sS'xx'
p14
g9
sS'B'
p15
g2
sS'y[this.N-1]'
p16
g2
sS'spath[$+1-1]'
p17
g2
sS'X'
p18
S'matrix'
p19
sS'eq'
p20
g9
sS'Zt'
p21
g19
sS'Q[i-1][i-1]'
p22
g2
sS'Bt'
p23
g19
sS'orpar'
p24
g7
sS'Q[i+this.N-1][i-1]'
p25
g2
sS'A[j+1-1][i-1]'
p26
g2
sS'A[j+2-1][i-1]'
p27
g2
sS'newpar[size(newpar)+1-1]'
p28
NsS'Q[i+this.N-1][i+this.N-1]'
p29
g2
sS'scs_m_1'
p30
g2
sS'eqn'
p31
g9
sS'np'
p32
g2
sS'METHOD'
p33
g4
sS'scs_m_1.objs[2-1]'
p34
g2
sS'A'
p35
g2
sS'C'
p36
g7
sS'spath'
p37
g7
sS'scs_m_1.objs[8-1]'
p38
g2
sS'newpar'
p39
g7
sS'A[j+2-1][i+this.N-1]'
p40
g2
sS'A[j+1-1][i+this.N-1]'
p41
g2
sS'model_n'
p42
g9
sS'arg1[spath-1]'
p43
g9
sS'scs_m_1.objs[4-1]'
p44
g2
sS'ppath[1-1]'
p45
NsS'scs_m_1.objs[5-1]'
p46
g2
sS'Y'
p47
g2
sS'scs_m_1.objs[7-1]'
p48
g2
sS'Z'
p49
g7
sS'typ'
p50
g7
sS'xxn'
p51
g9
sS'needcompile'
p52
g2
sS'Q'
p53
g2
sS'arg1.model'
p54
g9
sS'A[j-1][i+2*this.N-1]'
p55
g2
sS'd'
p56
g2
sS'B[j-1]'
p57
g2
sS'Q[i-1][i+this.N-1]'
p58
g2
sS'scs_m_1.objs[1-1]'
p59
g2
sS'modified'
p60
g2
sS'o'
p61
g9
sS'B[j+1-1]'
p62
g2
sS'N'
p63
g2
sS'gr_i'
p64
g7
sS'At'
p65
g19
sS'y'
p66
g2
sS'x'
p67
g2
sS'model'
p68
g9
sS'arg1.model.rpar'
p69
g9
s.