c__builtin__
set
p0
((lp1
S'xxn'
p2
aS'y'
p3
aS'x'
p4
aS'N'
p5
aS'ORDER2'
p6
aS'order'
p7
atp8
Rp9
.(dp0
S'Y[j-1]'
p1
S'double'
p2
sS'A'
p3
g2
sS'j'
p4
S'string'
p5
sS'A[j+1-1][i+2*this.N-1]'
p6
g2
sS'ppath'
p7
S'vector'
p8
sS'arg1'
p9
S'object'
p10
sS'scs_m_1.objs[6-1]'
p11
g2
sS'scs_m_1.objs[3-1]'
p12
g2
sS'NP'
p13
g2
sS'A[j+2-1][i+this.N+1-1]'
p14
g2
sS'xx'
p15
g10
sS'B'
p16
g2
sS'spath[$+1-1]'
p17
g2
sS'X'
p18
S'matrix'
p19
sS'eq'
p20
g10
sS'this.y[this.N-1]'
p21
g2
sS'Q[i-1][i-1]'
p22
g2
sS'Bt'
p23
g19
sS'orpar'
p24
g8
sS'Q[i+this.N-1][i-1]'
p25
g2
sS'A[j+1-1][i-1]'
p26
g2
sS'Zt'
p27
g19
sS'A[j+2-1][i-1]'
p28
g2
sS'newpar[size(newpar)+1-1]'
p29
NsS'Q[i+this.N-1][i+this.N-1]'
p30
g2
sS'scs_m_1'
p31
g2
sS'eqn'
p32
g10
sS'np'
p33
g2
sS'METHOD'
p34
g5
sS'scs_m_1.objs[2-1]'
p35
g2
sS'this.x'
p36
g2
sS'C'
p37
g8
sS'spath'
p38
g8
sS'scs_m_1.objs[8-1]'
p39
g2
sS'newpar'
p40
g8
sS'A[j+2-1][i+this.N-1]'
p41
g2
sS'A[j+1-1][i+this.N-1]'
p42
g2
sS'model_n'
p43
g10
sS'arg1[spath-1]'
p44
g10
sS'scs_m_1.objs[4-1]'
p45
g2
sS'ppath[1-1]'
p46
NsS'scs_m_1.objs[5-1]'
p47
g2
sS'Y'
p48
g2
sS'scs_m_1.objs[7-1]'
p49
g2
sS'Z'
p50
g8
sS'typ'
p51
g8
sS'xxn'
p52
g10
sS'needcompile'
p53
g2
sS'Q'
p54
g2
sS'arg1.model'
p55
g10
sS'A[j-1][i+2*this.N-1]'
p56
g2
sS'd'
p57
g2
sS'B[j-1]'
p58
g2
sS'Q[i-1][i+this.N-1]'
p59
g2
sS'scs_m_1.objs[1-1]'
p60
g2
sS'modified'
p61
g2
sS'o'
p62
g10
sS'B[j+1-1]'
p63
g2
sS'gr_i'
p64
g8
sS'At'
p65
g19
sS'this.N'
p66
g2
sS'y'
p67
g2
sS'model'
p68
g10
sS'arg1.model.rpar'
p69
g10
s.