c__builtin__
set
p0
((lp1
S'N'
p2
aS'exprs'
p3
aS'gr_i'
p4
aS'graphics'
p5
aS'y'
p6
aS'x'
p7
aS'model'
p8
aS'order'
p9
aS'ORDER2'
p10
aS'xxn'
p11
atp12
Rp13
.(dp0
S'Y[j-1]'
p1
S'double'
p2
sS'j'
p3
S'string'
p4
sS'A[j+1-1][i+2*this.N-1]'
p5
g2
sS'ppath'
p6
S'list'
p7
sS'arg1'
p8
S'object'
p9
sS'scs_m_1.objs[6-1]'
p10
g2
sS'scs_m_1.objs[3-1]'
p11
g2
sS'NP'
p12
g2
sS'A[j+2-1][i+this.N+1-1]'
p13
g2
sS'xx'
p14
g9
sS'B'
p15
g2
sS'y[this.N-1]'
p16
g2
sS'spath[$+1-1]'
p17
g2
sS'X'
p18
S'matrix'
p19
sS'eq'
p20
g9
sS'Zt'
p21
g19
sS'Q[i-1][i-1]'
p22
g2
sS'Bt'
p23
g19
sS'orpar'
p24
S'vector'
p25
sS'Q[i+this.N-1][i-1]'
p26
g2
sS'A[j+1-1][i-1]'
p27
g2
sS'A[j+2-1][i-1]'
p28
g2
sS'newpar[size(newpar)+1-1]'
p29
NsS'Q[i+this.N-1][i+this.N-1]'
p30
g2
sS'scs_m_1'
p31
g2
sS'eqn'
p32
g9
sS'np'
p33
g2
sS'METHOD'
p34
g4
sS'scs_m_1.objs[2-1]'
p35
g2
sS'A'
p36
g2
sS'C'
p37
g25
sS'spath'
p38
g7
sS'scs_m_1.objs[8-1]'
p39
g2
sS'newpar'
p40
g7
sS'A[j+2-1][i+this.N-1]'
p41
g2
sS'A[j+1-1][i+this.N-1]'
p42
g2
sS'model_n'
p43
g9
sS'arg1[spath-1]'
p44
g9
sS'scs_m_1.objs[4-1]'
p45
g2
sS'ppath[1-1]'
p46
NsS'scs_m_1.objs[5-1]'
p47
g2
sS'Y'
p48
g2
sS'scs_m_1.objs[7-1]'
p49
g2
sS'Z'
p50
g25
sS'typ'
p51
g7
sS'xxn'
p52
g9
sS'needcompile'
p53
g2
sS'Q'
p54
g2
sS'arg1.model'
p55
g9
sS'A[j-1][i+2*this.N-1]'
p56
g2
sS'd'
p57
g2
sS'B[j-1]'
p58
g2
sS'Q[i-1][i+this.N-1]'
p59
g2
sS'scs_m_1.objs[1-1]'
p60
g2
sS'modified'
p61
g2
sS'o'
p62
g9
sS'B[j+1-1]'
p63
g2
sS'N'
p64
g2
sS'gr_i'
p65
g25
sS'At'
p66
g19
sS'y'
p67
g2
sS'x'
p68
g9
sS'model'
p69
g9
sS'arg1.model.rpar'
p70
g9
s.