c__builtin__
set
p0
((lp1
S'N'
p2
aS'xxn'
p3
aS'graphics'
p4
aS'y'
p5
aS'x'
p6
aS'model'
p7
aS'ORDER2'
p8
aS'order'
p9
atp10
Rp11
.(dp0
S'Y[j-1]'
p1
S'double'
p2
sS'j'
p3
S'string'
p4
sS'A[j+1-1][i+2*this.N-1]'
p5
g2
sS'ppath'
p6
S'list'
p7
sS'scs_m_1.objs[6-1]'
p8
g2
sS'scs_m_1.objs[3-1]'
p9
g2
sS'NP'
p10
g2
sS'A[j+2-1][i+this.N+1-1]'
p11
g2
sS'xx'
p12
S'object'
p13
sS'B'
p14
g2
sS'y[this.N-1]'
p15
g2
sS'spath[$+1-1]'
p16
g2
sS'X'
p17
S'matrix'
p18
sS'eq'
p19
g13
sS'Zt'
p20
g18
sS'Q[i-1][i-1]'
p21
g2
sS'Bt'
p22
g18
sS'orpar'
p23
S'vector'
p24
sS'Q[i+this.N-1][i-1]'
p25
g2
sS'A[j+1-1][i-1]'
p26
g2
sS'A[j+2-1][i-1]'
p27
g2
sS'newpar[size(newpar)+1-1]'
p28
NsS'Q[i+this.N-1][i+this.N-1]'
p29
g2
sS'scs_m_1'
p30
g2
sS'eqn'
p31
g13
sS'np'
p32
g2
sS'METHOD'
p33
g4
sS'scs_m_1.objs[2-1]'
p34
g2
sS'A'
p35
g2
sS'C'
p36
g24
sS'spath'
p37
g7
sS'scs_m_1.objs[8-1]'
p38
g2
sS'newpar'
p39
g7
sS'A[j+2-1][i+this.N-1]'
p40
g2
sS'A[j+1-1][i+this.N-1]'
p41
g2
sS'model.rpar'
p42
g13
sS'model_n'
p43
g13
sS'Q'
p44
g2
sS'scs_m_1.objs[4-1]'
p45
g2
sS'ppath[1-1]'
p46
NsS'scs_m_1.objs[5-1]'
p47
g2
sS'Y'
p48
g2
sS'scs_m_1.objs[7-1]'
p49
g2
sS'Z'
p50
g24
sS'typ'
p51
g7
sS'xxn'
p52
g13
sS'needcompile'
p53
g2
sS'A[j-1][i+2*this.N-1]'
p54
g2
sS'd'
p55
g2
sS'B[j-1]'
p56
g2
sS'Q[i-1][i+this.N-1]'
p57
g2
sS'scs_m_1.objs[1-1]'
p58
g2
sS'modified'
p59
g2
sS'o'
p60
g13
sS'B[j+1-1]'
p61
g2
sS'N'
p62
g2
sS'gr_i'
p63
g24
sS'At'
p64
g18
sS'y'
p65
g2
sS'x'
p66
g24
sS'model'
p67
g13
s.