c__builtin__
set
p0
((lp1
S'exprs'
p2
aS'gr_i'
p3
aS'graphics'
p4
aS'x'
p5
aS'model'
p6
aS'xxn'
p7
atp8
Rp9
.(dp0
S'lnk.ct'
p1
S'vector'
p2
sS'graphics.peout'
p3
S'double'
p4
sS'lnk'
p5
g4
sS'ppath'
p6
S'list'
p7
sS'arg1'
p8
S'object'
p9
sS'graphics.exprs'
p10
g2
sS'scs_m_1.objs[3-1]'
p11
g4
sS'xx'
p12
g9
sS'spath[$+1-1]'
p13
g4
sS'model.out'
p14
g4
sS'eq'
p15
g9
sS'graphics.orig'
p16
g2
sS'model.ipar'
p17
g4
sS'blk'
p18
g9
sS'newpar[size(newpar)+1-1]'
p19
NsS'scs_m_1'
p20
g9
sS'eqn'
p21
g9
sS'np'
p22
g4
sS'blk.model'
p23
NsS'graphics.pein'
p24
g4
sS'lnk.from'
p25
g2
sS'scs_m_1.objs[2-1]'
p26
g9
sS'model.sim'
p27
S'string'
p28
sS'spath'
p29
g7
sS'newpar'
p30
g7
sS'lnk.yy'
p31
g2
sS'model.out2'
p32
g4
sS'graphics.pout'
p33
g4
sS'model.rpar'
p34
g9
sS'model_n'
p35
g9
sS'arg1[spath-1]'
p36
g9
sS'scs_m_1.objs[4-1]'
p37
g4
sS'graphics.pin'
p38
g4
sS'graphics'
p39
NsS'model.outtyp'
p40
g4
sS'graphics.sz'
p41
g2
sS'typ'
p42
g7
sS'xxn'
p43
g9
sS'lnk.xx'
p44
g2
sS'needcompile'
p45
g4
sS'arg1.model'
p46
g9
sS'scs_m_1.objs[1-1]'
p47
g9
sS'modified'
p48
g4
sS'o'
p49
g9
sS'gr_i'
p50
g2
sS'blk.graphics'
p51
NsS'y'
p52
g4
sS'x'
p53
g9
sS'model'
p54
g9
sS'lnk.to'
p55
g2
sS'arg1.model.rpar'
p56
g9
s.