c__builtin__
set
p0
((lp1
S'graphics'
p2
aS'in1'
p3
aS'temps'
p4
aS'fi'
p5
aS'x'
p6
aS'model'
p7
atp8
Rp9
.(dp0
S'graphics.exprs'
p1
NsS'rpar'
p2
S'matrix'
p3
sS'x.model'
p4
NsS'in'
p5
S'string'
p6
sS'model.out'
p7
S'double'
p8
sS'x.graphics'
p9
S'object'
p10
sS'model.evtin'
p11
g8
sS'model.firing'
p12
g8
sS'model.sim'
p13
S'list'
p14
sS'model.evtout'
p15
g8
sS'model.out2'
p16
g8
sS'model.rpar'
p17
g3
sS'model.outtyp'
p18
g8
sS'graphics'
p19
g10
sS'fi'
p20
g6
sS'typ'
p21
S'vector'
p22
sS'ok'
p23
S'boolean'
p24
sS'model.blocktype'
p25
g6
sS'model.dep_ut'
p26
S'vector_boolean'
p27
sS'exprs'
p28
g3
sS'gr_i'
p29
g22
sS'y'
p30
g22
sS'x'
p31
g22
sS'model'
p32
g10
s.