c__builtin__
set
p0
((lp1
S'x'
p2
aS'xxn'
p3
atp4
Rp5
.(dp0
S'lnk.ct'
p1
S'vector'
p2
sS'graphics.peout'
p3
S'double'
p4
sS'lnk'
p5
g4
sS'ppath'
p6
g2
sS'arg1'
p7
S'object'
p8
sS'graphics.exprs'
p9
g2
sS'scs_m_1.objs[3-1]'
p10
g4
sS'xx'
p11
g8
sS'spath[$+1-1]'
p12
g4
sS'model.out'
p13
g4
sS'eq'
p14
g8
sS'graphics.orig'
p15
g2
sS'model.ipar'
p16
g4
sS'blk'
p17
g8
sS'newpar[size(newpar)+1-1]'
p18
NsS'scs_m_1'
p19
g8
sS'eqn'
p20
g8
sS'np'
p21
g4
sS'blk.model'
p22
NsS'graphics.pein'
p23
g4
sS'lnk.from'
p24
g2
sS'scs_m_1.objs[2-1]'
p25
g8
sS'model.sim'
p26
S'string'
p27
sS'spath'
p28
g2
sS'newpar'
p29
g2
sS'lnk.yy'
p30
g2
sS'model.out2'
p31
g4
sS'graphics.pout'
p32
g4
sS'model.rpar'
p33
g8
sS'model_n'
p34
g8
sS'arg1[spath-1]'
p35
g8
sS'scs_m_1.objs[4-1]'
p36
g4
sS'graphics.pin'
p37
g4
sS'graphics'
p38
NsS'model.outtyp'
p39
g4
sS'graphics.sz'
p40
g2
sS'typ'
p41
g2
sS'xxn'
p42
g8
sS'lnk.xx'
p43
g2
sS'needcompile'
p44
g4
sS'arg1.model'
p45
g8
sS'scs_m_1.objs[1-1]'
p46
g8
sS'modified'
p47
g4
sS'o'
p48
g8
sS'gr_i'
p49
g2
sS'blk.graphics'
p50
NsS'y'
p51
g4
sS'x'
p52
g4
sS'model'
p53
g8
sS'lnk.to'
p54
g2
sS'arg1.model.rpar'
p55
g8
s.