c__builtin__
set
p0
((lp1
S'x'
p2
aS'model'
p3
aS'xxn'
p4
aS'graphics'
p5
atp6
Rp7
.(dp0
S'lnk.ct'
p1
S'vector'
p2
sS'graphics.peout'
p3
S'double'
p4
sS'lnk'
p5
g4
sS'ppath'
p6
S'list'
p7
sS'graphics.exprs'
p8
S'vector_string'
p9
sS'scs_m_1.objs[3-1]'
p10
g4
sS'xx'
p11
S'object'
p12
sS'spath[$+1-1]'
p13
g4
sS'model.out'
p14
g4
sS'eq'
p15
g12
sS'graphics.orig'
p16
g2
sS'model.ipar'
p17
g4
sS'blk'
p18
g12
sS'newpar[size(newpar)+1-1]'
p19
NsS'scs_m_1'
p20
g12
sS'eqn'
p21
g12
sS'np'
p22
g4
sS'blk.model'
p23
NsS'graphics.pein'
p24
g4
sS'lnk.from'
p25
g2
sS'scs_m_1.objs[2-1]'
p26
g12
sS'model.sim'
p27
S'string'
p28
sS'spath'
p29
g7
sS'newpar'
p30
g7
sS'lnk.yy'
p31
g2
sS'model.out2'
p32
g4
sS'model.rpar'
p33
g12
sS'model_n'
p34
g12
sS'scs_m_1.objs[4-1]'
p35
g4
sS'graphics.pin'
p36
g4
sS'graphics'
p37
NsS'model.outtyp'
p38
g4
sS'graphics.sz'
p39
g2
sS'typ'
p40
g7
sS'xxn'
p41
g12
sS'lnk.xx'
p42
g2
sS'needcompile'
p43
g4
sS'graphics.pout'
p44
g4
sS'scs_m_1.objs[1-1]'
p45
g12
sS'modified'
p46
g4
sS'o'
p47
g12
sS'gr_i'
p48
g2
sS'y'
p49
g4
sS'x'
p50
g2
sS'model'
p51
g12
sS'lnk.to'
p52
g2
sS'blk.graphics'
p53
Ns.