c__builtin__
set
p0
((lp1
S'temps'
p2
aS'x'
p3
aS'in1'
p4
aS'fi'
p5
atp6
Rp7
.(dp0
S'arg1'
p1
S'object'
p2
sS'graphics'
p3
g2
sS'rpar'
p4
S'matrix'
p5
sS'x.model'
p6
NsS'model.out'
p7
S'double'
p8
sS'x.graphics'
p9
g2
sS'model.evtin'
p10
g8
sS'model.firing'
p11
g8
sS'model.sim'
p12
S'vector'
p13
sS'model.evtout'
p14
g8
sS'model.out2'
p15
g8
sS'in1'
p16
S'string'
p17
sS'model.rpar'
p18
g5
sS'model.outtyp'
p19
g8
sS'graphics.exprs'
p20
NsS'fi'
p21
g17
sS'typ'
p22
g13
sS'[model,graphics,ok]'
p23
g8
sS'ok'
p24
S'boolean'
p25
sS'model.blocktype'
p26
g17
sS'model.dep_ut'
p27
g13
sS'exprs'
p28
g5
sS'gr_i'
p29
g13
sS'y'
p30
g13
sS'x'
p31
g8
sS'model'
p32
g2
s.