c__builtin__
set
p0
((lp1
S'graphics'
p2
aS'in1'
p3
aS'temps'
p4
aS'fi'
p5
aS'x'
p6
aS'model'
p7
atp8
Rp9
.(dp0
S'graphics'
p1
S'object'
p2
sS'rpar'
p3
S'matrix'
p4
sS'x.model'
p5
NsS'model.out'
p6
S'double'
p7
sS'x.graphics'
p8
g2
sS'model.evtin'
p9
g7
sS'model.firing'
p10
g7
sS'model.sim'
p11
S'list'
p12
sS'model.evtout'
p13
g7
sS'model.out2'
p14
g7
sS'in1'
p15
S'string'
p16
sS'model.rpar'
p17
g4
sS'model.outtyp'
p18
g7
sS'graphics.exprs'
p19
NsS'fi'
p20
g16
sS'typ'
p21
S'vector'
p22
sS'ok'
p23
S'boolean'
p24
sS'model.blocktype'
p25
g16
sS'model.dep_ut'
p26
S'vector_boolean'
p27
sS'exprs'
p28
g4
sS'gr_i'
p29
g22
sS'y'
p30
g22
sS'x'
p31
g22
sS'model'
p32
g2
s.