c__builtin__
set
p0
((lp1
S'temps'
p2
aS'x'
p3
aS'model'
p4
aS'in1'
p5
aS'fi'
p6
atp7
Rp8
.(dp0
S'arg1'
p1
S'object'
p2
sS'graphics'
p3
g2
sS'rpar'
p4
S'matrix'
p5
sS'x.model'
p6
NsS'model.out'
p7
S'double'
p8
sS'x.graphics'
p9
g2
sS'model.evtin'
p10
g8
sS'model.firing'
p11
g8
sS'model.sim'
p12
S'list'
p13
sS'model.evtout'
p14
g8
sS'[this.model,graphics,ok]'
p15
g13
sS'model.out2'
p16
g8
sS'in1'
p17
S'string'
p18
sS'model.rpar'
p19
g5
sS'model.outtyp'
p20
g8
sS'graphics.exprs'
p21
NsS'fi'
p22
g18
sS'typ'
p23
S'vector'
p24
sS'ok'
p25
S'boolean'
p26
sS'model.blocktype'
p27
g18
sS'model.dep_ut'
p28
g24
sS'exprs'
p29
g5
sS'gr_i'
p30
g24
sS'y'
p31
g24
sS'x'
p32
g8
sS'model'
p33
g2
s.