c__builtin__
set
p0
((lp1
S'temps'
p2
aS'x'
p3
aS'model'
p4
aS'in1'
p5
aS'fi'
p6
atp7
Rp8
.(dp0
S'arg1'
p1
S'object'
p2
sS'graphics'
p3
g2
sS'rpar'
p4
S'matrix'
p5
sS'x.model'
p6
NsS'model.out'
p7
S'double'
p8
sS'x.graphics'
p9
g2
sS'model.evtin'
p10
g8
sS'model.firing'
p11
g8
sS'model.sim'
p12
S'list'
p13
sS'model.evtout'
p14
g8
sS'model.out2'
p15
g8
sS'in1'
p16
S'string'
p17
sS'model.rpar'
p18
g5
sS'model.outtyp'
p19
g8
sS'graphics.exprs'
p20
NsS'fi'
p21
g17
sS'typ'
p22
S'vector'
p23
sS'[model,graphics,ok]'
p24
g8
sS'ok'
p25
S'boolean'
p26
sS'model.blocktype'
p27
g17
sS'model.dep_ut'
p28
g23
sS'exprs'
p29
g5
sS'gr_i'
p30
g23
sS'y'
p31
g23
sS'x'
p32
g8
sS'model'
p33
g2
s.