c__builtin__
set
p0
((lp1
S'x'
p2
aS'model'
p3
aS'xxn'
p4
aS'graphics'
p5
atp6
Rp7
.(dp0
S'lnk.ct'
p1
S'vector'
p2
sS'graphics.peout'
p3
S'double'
p4
sS'lnk'
p5
g4
sS'ppath'
p6
S'list'
p7
sS'arg1'
p8
S'object'
p9
sS'graphics.exprs'
p10
S'vector_string'
p11
sS'scs_m_1.objs[3-1]'
p12
g4
sS'xx'
p13
g9
sS'spath[$+1-1]'
p14
g4
sS'model.out'
p15
g4
sS'eq'
p16
g9
sS'graphics.orig'
p17
g2
sS'model.ipar'
p18
g4
sS'blk'
p19
g9
sS'newpar[size(newpar)+1-1]'
p20
NsS'scs_m_1'
p21
g9
sS'eqn'
p22
g9
sS'np'
p23
g4
sS'blk.model'
p24
NsS'graphics.pein'
p25
g4
sS'lnk.from'
p26
g2
sS'scs_m_1.objs[2-1]'
p27
g9
sS'model.sim'
p28
S'string'
p29
sS'spath'
p30
g7
sS'newpar'
p31
g7
sS'lnk.yy'
p32
g2
sS'model.out2'
p33
g4
sS'graphics.pout'
p34
g4
sS'model.rpar'
p35
g9
sS'model_n'
p36
g9
sS'arg1[spath-1]'
p37
g9
sS'scs_m_1.objs[4-1]'
p38
g4
sS'graphics.pin'
p39
g4
sS'graphics'
p40
NsS'model.outtyp'
p41
g4
sS'graphics.sz'
p42
g2
sS'typ'
p43
g7
sS'xxn'
p44
g9
sS'lnk.xx'
p45
g2
sS'needcompile'
p46
g4
sS'arg1.model'
p47
g9
sS'scs_m_1.objs[1-1]'
p48
g9
sS'modified'
p49
g4
sS'o'
p50
g9
sS'gr_i'
p51
g2
sS'blk.graphics'
p52
NsS'y'
p53
g4
sS'x'
p54
g9
sS'model'
p55
g9
sS'lnk.to'
p56
g2
sS'arg1.model.rpar'
p57
g9
s.