c__builtin__
set
p0
((lp1
S'temps'
p2
aS'x'
p3
aS'in1'
p4
aS'fi'
p5
atp6
Rp7
.(dp0
S'arg1'
p1
S'object'
p2
sS'graphics'
p3
g2
sS'rpar'
p4
S'matrix'
p5
sS'this.in1'
p6
S'string'
p7
sS'this.x.model'
p8
NsS'model.out'
p9
S'double'
p10
sS'typ'
p11
S'vector'
p12
sS'model.evtin'
p13
g10
sS'model.firing'
p14
g10
sS'this.x'
p15
g10
sS'model.sim'
p16
g12
sS'model.evtout'
p17
g10
sS'model.out2'
p18
g10
sS'model.rpar'
p19
g5
sS'y'
p20
g12
sS'graphics.exprs'
p21
NsS'this.x.graphics'
p22
g2
sS'[model,graphics,ok]'
p23
g10
sS'ok'
p24
S'boolean'
p25
sS'model.blocktype'
p26
g7
sS'this.fi'
p27
g7
sS'model.dep_ut'
p28
g12
sS'exprs'
p29
g5
sS'gr_i'
p30
g12
sS'model.outtyp'
p31
g10
sS'model'
p32
g10
s.