c__builtin__
set
p0
((lp1
S'x'
p2
atp3
Rp4
.(dp0
S'model.sim'
p1
S'string'
p2
sS'model.blocktype'
p3
g2
sS'model.dep_ut'
p4
S'vector'
p5
sS'model.out'
p6
S'double'
p7
sS'gr_i'
p8
g5
sS'y'
p9
g5
sS'x'
p10
g7
sS'model'
p11
S'object'
p12
sS'typ'
p13
g5
s.