c__builtin__
set
p0
((lp1
S'x'
p2
atp3
Rp4
.(dp0
S'this.x'
p1
S'double'
p2
sS'model.sim'
p3
S'string'
p4
sS'model.blocktype'
p5
g4
sS'model.dep_ut'
p6
S'vector'
p7
sS'model.out'
p8
g2
sS'gr_i'
p9
g7
sS'y'
p10
g7
sS'model'
p11
S'object'
p12
sS'typ'
p13
g7
s.