c__builtin__
set
p0
((lp1
S'a'
p2
aS'x'
p3
aS'b'
p4
aS'f'
p5
atp6
Rp7
.(dp0
S'this.x'
p1
S'double'
p2
sS'model.sim'
p3
S'vector'
p4
sS'model.out'
p5
g2
sS'model.evtin'
p6
g2
sS'this.x.graphics'
p7
S'object'
p8
sS'arg1'
p9
g8
sS'graphics.exprs'
p10
NsS'model.rpar'
p11
S'matrix'
p12
sS'this.x.model'
p13
NsS'exprs'
p14
g12
sS'gr_i'
p15
g4
sS'model.dep_ut'
p16
g4
sS'graphics'
p17
g8
sS'y'
p18
g4
sS'this.a'
p19
g2
sS'model'
p20
g2
sS'typ'
p21
g4
sS'this.b'
p22
g2
sS'this.f'
p23
g2
sS'model.blocktype'
p24
S'string'
p25
s.