c__builtin__
set
p0
((lp1
S'a'
p2
aS'b'
p3
aS'f'
p4
aS'graphics'
p5
aS'x'
p6
aS'model'
p7
atp8
Rp9
.(dp0
S'a'
p1
S'double'
p2
sS'model.sim'
p3
S'list'
p4
sS'model.out'
p5
g2
sS'b'
p6
g2
sS'model.evtin'
p7
g2
sS'f'
p8
g2
sS'x.graphics'
p9
S'object'
p10
sS'graphics'
p11
g10
sS'model.rpar'
p12
S'matrix'
p13
sS'exprs'
p14
g13
sS'x.model'
p15
NsS'gr_i'
p16
S'vector'
p17
sS'model.dep_ut'
p18
S'vector_boolean'
p19
sS'graphics.exprs'
p20
NsS'y'
p21
g17
sS'x'
p22
g17
sS'model'
p23
g10
sS'typ'
p24
g17
sS'model.blocktype'
p25
S'string'
p26
s.