c__builtin__
set
p0
((lp1
S'a'
p2
aS'x'
p3
aS'model'
p4
aS'b'
p5
aS'f'
p6
atp7
Rp8
.(dp0
S'a'
p1
S'double'
p2
sS'model.sim'
p3
S'vector'
p4
sS'model.out'
p5
g2
sS'b'
p6
g2
sS'model.evtin'
p7
g2
sS'f'
p8
g2
sS'x.graphics'
p9
S'object'
p10
sS'arg1'
p11
g10
sS'graphics.exprs'
p12
NsS'model.rpar'
p13
S'matrix'
p14
sS'exprs'
p15
g14
sS'x.model'
p16
NsS'gr_i'
p17
g4
sS'model.dep_ut'
p18
g4
sS'graphics'
p19
g10
sS'y'
p20
g4
sS'x'
p21
g2
sS'model'
p22
g10
sS'typ'
p23
g4
sS'model.blocktype'
p24
S'string'
p25
s.