c__builtin__
set
p0
((lp1
S'a'
p2
aS'b'
p3
aS'f'
p4
aS'graphics'
p5
aS'x'
p6
aS'model'
p7
atp8
Rp9
.(dp0
S'a'
p1
S'double'
p2
sS'model.sim'
p3
S'list'
p4
sS'model.out'
p5
g2
sS'b'
p6
g2
sS'model.evtin'
p7
g2
sS'f'
p8
g2
sS'x.graphics'
p9
S'object'
p10
sS'arg1'
p11
g10
sS'graphics.exprs'
p12
NsS'model.rpar'
p13
S'matrix'
p14
sS'exprs'
p15
g14
sS'x.model'
p16
NsS'gr_i'
p17
S'vector'
p18
sS'model.dep_ut'
p19
S'vector_boolean'
p20
sS'graphics'
p21
g10
sS'y'
p22
g18
sS'x'
p23
NsS'model'
p24
g10
sS'typ'
p25
g18
sS'model.blocktype'
p26
S'string'
p27
s.