c__builtin__
set
p0
((lp1
S'C'
p2
aS'v'
p3
aS'exprs'
p4
aS'gr_i'
p5
aS'graphics'
p6
aS'x'
p7
aS'model'
p8
atp9
Rp10
.(dp0
S'arg1'
p1
S'object'
p2
sS'graphics'
p3
g2
sS'mo.model'
p4
S'string'
p5
sS'x.model'
p6
NsS'model.out'
p7
S'double'
p8
sS'x.graphics'
p9
g2
sS'mo.inputs'
p10
g5
sS'x.graphics.in_implicit'
p11
S'vector_string'
p12
sS'mo.parameters'
p13
S'list'
p14
sS'model.sim'
p15
g5
sS'C'
p16
g8
sS'model.equations'
p17
g8
sS'mo.outputs'
p18
g5
sS'x.graphics.out_implicit'
p19
g12
sS'model.rpar'
p20
S'matrix'
p21
sS'model.in'
p22
g8
sS'graphics.exprs'
p23
NsS'typ'
p24
S'vector'
p25
sS'model.blocktype'
p26
g5
sS'mo'
p27
g2
sS'model.dep_ut'
p28
S'vector_boolean'
p29
sS'model.equations.parameters[2-1]'
p30
g14
sS'exprs'
p31
g5
sS'gr_i'
p32
g25
sS'v'
p33
g8
sS'y'
p34
g25
sS'x'
p35
NsS'model'
p36
g2
s.