c__builtin__
set
p0
((lp1
S'x'
p2
aS'C'
p3
aS'v'
p4
atp5
Rp6
.(dp0
S'arg1'
p1
S'object'
p2
sS'graphics'
p3
g2
sS'mo.model'
p4
S'string'
p5
sS'x.model'
p6
NsS'model.out'
p7
S'double'
p8
sS'model.in1'
p9
g8
sS'x.graphics'
p10
g2
sS'mo.inputs'
p11
g5
sS'x.graphics.in_implicit'
p12
S'vector'
p13
sS'mo.parameters'
p14
g13
sS'model.sim'
p15
g5
sS'C'
p16
g8
sS'model.equations'
p17
g8
sS'mo.outputs'
p18
g5
sS'x.graphics.out_implicit'
p19
g13
sS'model.rpar'
p20
S'matrix'
p21
sS'graphics.exprs'
p22
NsS'typ'
p23
g13
sS'model.blocktype'
p24
g5
sS'mo'
p25
g2
sS'model.dep_ut'
p26
g13
sS'model.equations.parameters[2-1]'
p27
g13
sS'exprs'
p28
g5
sS'gr_i'
p29
g13
sS'v'
p30
g8
sS'y'
p31
g13
sS'x'
p32
g8
sS'model'
p33
g2
s.