c__builtin__
set
p0
((lp1
S'x'
p2
aS'model'
p3
aS'C'
p4
aS'v'
p5
atp6
Rp7
.(dp0
S'arg1'
p1
S'object'
p2
sS'graphics'
p3
g2
sS'mo.model'
p4
S'string'
p5
sS'x.model'
p6
NsS'model.out'
p7
S'double'
p8
sS'model.in1'
p9
g8
sS'x.graphics'
p10
g2
sS'mo.inputs'
p11
g5
sS'x.graphics.in_implicit'
p12
S'vector'
p13
sS'mo.parameters'
p14
S'list'
p15
sS'model.sim'
p16
g5
sS'C'
p17
g8
sS'model.equations'
p18
g8
sS'model.equations.parameters[2]'
p19
g15
sS'mo.outputs'
p20
g5
sS'x.graphics.out_implicit'
p21
g13
sS'model.rpar'
p22
S'matrix'
p23
sS'graphics.exprs'
p24
NsS'typ'
p25
g13
sS'model.blocktype'
p26
g5
sS'mo'
p27
g2
sS'model.dep_ut'
p28
g13
sS'exprs'
p29
g5
sS'gr_i'
p30
g13
sS'v'
p31
g8
sS'y'
p32
g13
sS'x'
p33
g8
sS'model'
p34
g2
s.