c__builtin__
set
p0
((lp1
S'x'
p2
aS'C'
p3
aS'v'
p4
atp5
Rp6
.(dp0
S'arg1'
p1
S'object'
p2
sS'graphics'
p3
g2
sS'mo.model'
p4
S'string'
p5
sS'this.x.model'
p6
NsS'model.out'
p7
S'double'
p8
sS'model.in1'
p9
g8
sS'typ'
p10
S'vector'
p11
sS'mo.inputs'
p12
g5
sS'mo.parameters'
p13
g11
sS'this.x'
p14
g8
sS'model.sim'
p15
g5
sS'model.equations'
p16
g8
sS'mo.outputs'
p17
g5
sS'model.rpar'
p18
S'matrix'
p19
sS'this.v'
p20
g8
sS'graphics.exprs'
p21
NsS'this.x.graphics'
p22
g2
sS'this.x.graphics.in_implicit'
p23
g11
sS'model.blocktype'
p24
g5
sS'mo'
p25
g2
sS'model.dep_ut'
p26
g11
sS'model.equations.parameters[2-1]'
p27
g11
sS'exprs'
p28
g5
sS'gr_i'
p29
g11
sS'this.x.graphics.out_implicit'
p30
g11
sS'y'
p31
g11
sS'model'
p32
g8
sS'this.C'
p33
g8
s.