c__builtin__
set
p0
((lp1
S'x'
p2
aS'model'
p3
aS'v'
p4
aS'C'
p5
aS'graphics'
p6
atp7
Rp8
.(dp0
S'graphics'
p1
S'object'
p2
sS'mo.model'
p3
S'string'
p4
sS'x.model'
p5
NsS'model.out'
p6
S'double'
p7
sS'x.graphics'
p8
g2
sS'mo.inputs'
p9
g4
sS'x.graphics.in_implicit'
p10
S'vector_string'
p11
sS'mo.parameters'
p12
S'list'
p13
sS'model.sim'
p14
g4
sS'C'
p15
g7
sS'model.equations'
p16
g7
sS'mo.outputs'
p17
g4
sS'x.graphics.out_implicit'
p18
g11
sS'model.rpar'
p19
S'matrix'
p20
sS'model.in'
p21
g7
sS'graphics.exprs'
p22
NsS'typ'
p23
S'vector'
p24
sS'model.blocktype'
p25
g4
sS'mo'
p26
g2
sS'model.dep_ut'
p27
S'vector_boolean'
p28
sS'model.equations.parameters[2-1]'
p29
g13
sS'exprs'
p30
g4
sS'gr_i'
p31
g24
sS'v'
p32
g7
sS'y'
p33
g24
sS'x'
p34
g24
sS'model'
p35
g2
s.