c__builtin__
set
p0
((lp1
S'C'
p2
aS'v'
p3
aS'exprs'
p4
aS'gr_i'
p5
aS'graphics'
p6
aS'x'
p7
aS'model'
p8
atp9
Rp10
.(dp0
S'arg1'
p1
S'object'
p2
sS'graphics'
p3
g2
sS'mo.model'
p4
S'string'
p5
sS'x.model'
p6
NsS'model.out'
p7
S'double'
p8
sS'model.in1'
p9
g8
sS'x.graphics'
p10
g2
sS'mo.inputs'
p11
g5
sS'x.graphics.in_implicit'
p12
S'vector'
p13
sS'mo.parameters'
p14
S'list'
p15
sS'model.sim'
p16
g5
sS'C'
p17
g8
sS'model.equations'
p18
g8
sS'mo.outputs'
p19
g5
sS'x.graphics.out_implicit'
p20
g13
sS'model.rpar'
p21
S'matrix'
p22
sS'graphics.exprs'
p23
NsS'typ'
p24
g13
sS'model.blocktype'
p25
g5
sS'mo'
p26
g2
sS'model.dep_ut'
p27
g13
sS'model.equations.parameters[2-1]'
p28
g15
sS'exprs'
p29
g5
sS'gr_i'
p30
g13
sS'v'
p31
g8
sS'y'
p32
g13
sS'x'
p33
g8
sS'model'
p34
g2
s.