c__builtin__
set
p0
((lp1
S'x'
p2
aS'model'
p3
aS'gr_i'
p4
aS'exprs'
p5
aS'graphics'
p6
atp7
Rp8
.(dp0
S'arg1'
p1
S'object'
p2
sS'mo.model'
p3
S'string'
p4
sS'PrametersValue'
p5
S'vector'
p6
sS'model.equations'
p7
S'double'
p8
sS'model.out'
p9
g8
sS'mo.inputs'
p10
S'matrix'
p11
sS'Typeout'
p12
g11
sS'x.graphics.in_implicit'
p13
g11
sS'mo.parameters'
p14
S'list'
p15
sS'model.sim'
p16
g4
sS'ModelName'
p17
g4
sS'y'
p18
g6
sS'mo.outputs'
p19
g11
sS'Typein'
p20
g11
sS'x.graphics.out_implicit'
p21
g11
sS'model.rpar'
p22
g6
sS'P'
p23
g11
sS'model.in'
p24
g8
sS'graphics'
p25
g2
sS'typ'
p26
g6
sS'model.blocktype'
p27
g4
sS'MO'
p28
g11
sS'MI'
p29
g11
sS'model.dep_ut'
p30
g6
sS'exprs'
p31
g6
sS'gr_i'
p32
g6
sS'PortName'
p33
g11
sS'x'
p34
g2
sS'model'
p35
g2
sS'ParametersName'
p36
g6
sS'mo'
p37
g8
s.