c__builtin__
set
p0
((lp1
S'x'
p2
aS'model'
p3
aS'V'
p4
aS'graphics'
p5
atp6
Rp7
.(dp0
S'graphics.exprs'
p1
NsS'mo.model'
p2
S'string'
p3
sS'x.model'
p4
NsS'model.out'
p5
S'double'
p6
sS'graphics'
p7
S'object'
p8
sS'x.graphics'
p9
g8
sS'mo.inputs'
p10
g3
sS'x.graphics.in_implicit'
p11
S'vector_string'
p12
sS'mo.parameters'
p13
S'list'
p14
sS'model.sim'
p15
g3
sS'model.equations'
p16
g6
sS'mo.outputs'
p17
g3
sS'x.graphics.out_implicit'
p18
g12
sS'model.rpar'
p19
g6
sS'model.in'
p20
g6
sS'V'
p21
g6
sS'typ'
p22
S'vector'
p23
sS'model.blocktype'
p24
g3
sS'mo'
p25
g6
sS'model.dep_ut'
p26
S'vector_boolean'
p27
sS'model.equations.parameters[2-1]'
p28
g14
sS'exprs'
p29
g3
sS'gr_i'
p30
g23
sS'y'
p31
g23
sS'x'
p32
g23
sS'model'
p33
g8
s.