c__builtin__
set
p0
((lp1
S'graphics'
p2
aS'exprs'
p3
aS'gr_i'
p4
aS'V'
p5
aS'x'
p6
aS'model'
p7
atp8
Rp9
.(dp0
S'arg1'
p1
S'object'
p2
sS'graphics.exprs'
p3
NsS'mo.model'
p4
S'string'
p5
sS'x.model'
p6
NsS'model.out'
p7
S'double'
p8
sS'graphics'
p9
g2
sS'x.graphics'
p10
g2
sS'mo.inputs'
p11
g5
sS'x.graphics.in_implicit'
p12
S'vector_string'
p13
sS'mo.parameters'
p14
S'list'
p15
sS'model.sim'
p16
g5
sS'model.equations'
p17
g8
sS'mo.outputs'
p18
g5
sS'x.graphics.out_implicit'
p19
g13
sS'model.rpar'
p20
g8
sS'model.in'
p21
g8
sS'V'
p22
g8
sS'typ'
p23
S'vector'
p24
sS'model.blocktype'
p25
g5
sS'mo'
p26
g8
sS'model.dep_ut'
p27
S'vector_boolean'
p28
sS'model.equations.parameters[2-1]'
p29
g15
sS'exprs'
p30
g5
sS'gr_i'
p31
g24
sS'y'
p32
g24
sS'x'
p33
NsS'model'
p34
g2
s.