c__builtin__
set
p0
((lp1
S'x'
p2
aS'V'
p3
atp4
Rp5
.(dp0
S'arg1'
p1
S'object'
p2
sS'graphics'
p3
g2
sS'mo.model'
p4
S'string'
p5
sS'this.V'
p6
S'double'
p7
sS'this.x.model'
p8
NsS'model.out'
p9
g7
sS'model.in1'
p10
g7
sS'typ'
p11
S'vector'
p12
sS'mo.inputs'
p13
g5
sS'mo.parameters'
p14
g12
sS'this.x'
p15
g7
sS'model.sim'
p16
g5
sS'model.equations'
p17
g7
sS'mo.outputs'
p18
g5
sS'model.rpar'
p19
NsS'graphics.exprs'
p20
NsS'this.x.graphics'
p21
g2
sS'this.x.graphics.in_implicit'
p22
g12
sS'model.blocktype'
p23
g5
sS'mo'
p24
g7
sS'model.dep_ut'
p25
g12
sS'model.equations.parameters[2-1]'
p26
g12
sS'exprs'
p27
g5
sS'gr_i'
p28
g12
sS'this.x.graphics.out_implicit'
p29
g12
sS'y'
p30
g12
sS'model'
p31
g2
s.