c__builtin__
set
p0
((lp1
S'x'
p2
aS'V'
p3
atp4
Rp5
.(dp0
S'arg1'
p1
S'object'
p2
sS'graphics.exprs'
p3
NsS'mo.model'
p4
S'string'
p5
sS'x.model'
p6
NsS'model.out'
p7
S'double'
p8
sS'model.in1'
p9
g8
sS'x.graphics'
p10
g2
sS'mo.inputs'
p11
g5
sS'x.graphics.in_implicit'
p12
S'vector'
p13
sS'mo.parameters'
p14
g13
sS'model.sim'
p15
g5
sS'model.equations'
p16
g8
sS'mo.outputs'
p17
g5
sS'x.graphics.out_implicit'
p18
g13
sS'model.rpar'
p19
g8
sS'V'
p20
g8
sS'typ'
p21
g13
sS'graphics'
p22
g2
sS'model.blocktype'
p23
g5
sS'mo'
p24
g8
sS'model.dep_ut'
p25
g13
sS'model.equations.parameters[2-1]'
p26
g13
sS'exprs'
p27
g5
sS'gr_i'
p28
g13
sS'y'
p29
g13
sS'x'
p30
g8
sS'model'
p31
g2
s.