c__builtin__
set
p0
((lp1
S'x'
p2
atp3
Rp4
.(dp0
S'this.x'
p1
S'double'
p2
sS'model.sim'
p3
S'string'
p4
sS'model.in1'
p5
g2
sS'model.equations'
p6
g2
sS'model.blocktype'
p7
g4
sS'exprs'
p8
S'vector'
p9
sS'this.x.graphics.out_implicit'
p10
S'matrix'
p11
sS'mo'
p12
g2
sS'mo.inputs'
p13
g4
sS'mo.model'
p14
g4
sS'model.dep_ut'
p15
g9
sS'model.out'
p16
g11
sS'gr_i'
p17
g9
sS'y'
p18
g9
sS'model'
p19
S'object'
p20
sS'this.x.graphics.in_implicit'
p21
g9
sS'typ'
p22
g9
sS'mo.outputs'
p23
g11
s.