c__builtin__
set
p0
((lp1
S'x'
p2
atp3
Rp4
.(dp0
S'arg1'
p1
S'object'
p2
sS'mo.model'
p3
S'string'
p4
sS'PrametersValue'
p5
S'vector'
p6
sS'model.equations'
p7
S'double'
p8
sS'model.out'
p9
g8
sS'model.in1'
p10
g8
sS'this.x.graphics.out_implicit'
p11
S'matrix'
p12
sS'mo.inputs'
p13
g12
sS'Typeout'
p14
g12
sS'mo.parameters'
p15
g6
sS'this.x'
p16
g8
sS'model.sim'
p17
g4
sS'ModelName'
p18
g4
sS'y'
p19
g6
sS'mo.outputs'
p20
g12
sS'Typein'
p21
g12
sS'model.rpar'
p22
g6
sS'P'
p23
g12
sS'graphics'
p24
g2
sS'typ'
p25
g6
sS'this.x.graphics.in_implicit'
p26
g12
sS'model.blocktype'
p27
g4
sS'MO'
p28
g12
sS'MI'
p29
g12
sS'model.dep_ut'
p30
g6
sS'exprs'
p31
g6
sS'gr_i'
p32
g6
sS'PortName'
p33
g12
sS'model'
p34
g2
sS'ParametersName'
p35
g6
sS'mo'
p36
g8
s.