c__builtin__
set
p0
((lp1
S'x'
p2
aS'model'
p3
aS'graphics'
p4
atp5
Rp6
.(dp0
S'mo.model'
p1
S'string'
p2
sS'PrametersValue'
p3
S'vector'
p4
sS'model.equations'
p5
S'double'
p6
sS'model.out'
p7
g6
sS'mo.inputs'
p8
S'matrix'
p9
sS'Typeout'
p10
g9
sS'x.graphics.in_implicit'
p11
g9
sS'mo.parameters'
p12
S'list'
p13
sS'model.sim'
p14
g2
sS'ModelName'
p15
g2
sS'y'
p16
g4
sS'mo.outputs'
p17
g9
sS'Typein'
p18
g9
sS'x.graphics.out_implicit'
p19
g9
sS'model.rpar'
p20
g4
sS'P'
p21
g9
sS'model.in'
p22
g6
sS'graphics'
p23
S'object'
p24
sS'typ'
p25
g4
sS'model.blocktype'
p26
g2
sS'MO'
p27
g9
sS'MI'
p28
g9
sS'model.dep_ut'
p29
S'vector_boolean'
p30
sS'exprs'
p31
g4
sS'gr_i'
p32
g4
sS'PortName'
p33
g9
sS'x'
p34
g4
sS'model'
p35
g24
sS'ParametersName'
p36
g4
sS'mo'
p37
g6
s.