c__builtin__
set
p0
((lp1
S'Ids'
p2
aS'Maxexp'
p3
aS'R'
p4
aS'Vt'
p5
aS'x'
p6
aS'model'
p7
atp8
Rp9
.(dp0
S'arg1'
p1
S'object'
p2
sS'graphics'
p3
g2
sS'Maxexp'
p4
S'double'
p5
sS'x.model'
p6
NsS'model.out'
p7
g5
sS'model.in1'
p8
g5
sS'x.graphics'
p9
g2
sS'mo.inputs'
p10
S'string'
p11
sS'x.graphics.in_implicit'
p12
S'vector'
p13
sS'mo.parameters'
p14
g13
sS'model.sim'
p15
g11
sS'model.equations'
p16
g5
sS'mo.outputs'
p17
g11
sS'x.graphics.out_implicit'
p18
g13
sS'Ids'
p19
g5
sS'model.rpar'
p20
S'matrix'
p21
sS'mo.model'
p22
g11
sS'R'
p23
g5
sS'graphics.exprs'
p24
NsS'typ'
p25
g13
sS'model.equations.parameters'
p26
g13
sS'model.blocktype'
p27
g11
sS'mo'
p28
g5
sS'model.dep_ut'
p29
g13
sS'exprs'
p30
g11
sS'gr_i'
p31
g13
sS'Vt'
p32
g5
sS'y'
p33
g13
sS'x'
p34
g5
sS'model'
p35
g2
s.