c__builtin__
set
p0
((lp1
S'Maxexp'
p2
aS'Ids'
p3
aS'R'
p4
aS'Vt'
p5
aS'graphics'
p6
aS'x'
p7
aS'model'
p8
atp9
Rp10
.(dp0
S'arg1'
p1
S'object'
p2
sS'graphics'
p3
g2
sS'Maxexp'
p4
S'double'
p5
sS'x.model'
p6
NsS'model.out'
p7
g5
sS'model.in1'
p8
g5
sS'x.graphics'
p9
g2
sS'mo.inputs'
p10
S'string'
p11
sS'x.graphics.in_implicit'
p12
S'vector'
p13
sS'mo.parameters'
p14
S'list'
p15
sS'model.sim'
p16
g11
sS'model.equations'
p17
g5
sS'mo.outputs'
p18
g11
sS'x.graphics.out_implicit'
p19
g13
sS'Ids'
p20
g5
sS'model.rpar'
p21
S'matrix'
p22
sS'mo.model'
p23
g11
sS'R'
p24
g5
sS'graphics.exprs'
p25
NsS'typ'
p26
g13
sS'model.equations.parameters'
p27
g15
sS'model.blocktype'
p28
g11
sS'mo'
p29
g5
sS'model.dep_ut'
p30
g13
sS'exprs'
p31
g11
sS'gr_i'
p32
g13
sS'Vt'
p33
g5
sS'y'
p34
g13
sS'x'
p35
g5
sS'model'
p36
g2
s.