c__builtin__
set
p0
((lp1
S'R'
p2
aS'Ids'
p3
aS'Maxexp'
p4
aS'exprs'
p5
aS'gr_i'
p6
aS'Vt'
p7
aS'graphics'
p8
aS'x'
p9
aS'model'
p10
atp11
Rp12
.(dp0
S'arg1'
p1
S'object'
p2
sS'graphics'
p3
g2
sS'Maxexp'
p4
S'double'
p5
sS'x.model'
p6
NsS'model.out'
p7
g5
sS'x.graphics'
p8
g2
sS'mo.inputs'
p9
S'string'
p10
sS'x.graphics.in_implicit'
p11
S'vector'
p12
sS'mo.parameters'
p13
S'list'
p14
sS'model.sim'
p15
g10
sS'model.equations'
p16
g5
sS'mo.outputs'
p17
g10
sS'x.graphics.out_implicit'
p18
g12
sS'Ids'
p19
g5
sS'model.rpar'
p20
S'matrix'
p21
sS'mo.model'
p22
g10
sS'R'
p23
g5
sS'model.in'
p24
g5
sS'graphics.exprs'
p25
NsS'typ'
p26
g12
sS'model.equations.parameters'
p27
g14
sS'model.blocktype'
p28
g10
sS'mo'
p29
g5
sS'model.dep_ut'
p30
S'vector_boolean'
p31
sS'exprs'
p32
g10
sS'gr_i'
p33
g12
sS'Vt'
p34
g5
sS'y'
p35
g12
sS'x'
p36
NsS'model'
p37
g2
s.