c__builtin__
set
p0
((lp1
S'x'
p2
aS'R'
p3
aS'Vt'
p4
aS'Ids'
p5
aS'Maxexp'
p6
atp7
Rp8
.(dp0
S'arg1'
p1
S'object'
p2
sS'graphics'
p3
g2
sS'mo.model'
p4
S'string'
p5
sS'model.dep_ut'
p6
S'vector'
p7
sS'this.x.model'
p8
NsS'model.out'
p9
S'double'
p10
sS'model.in1'
p11
g10
sS'typ'
p12
g7
sS'mo.inputs'
p13
g5
sS'mo.parameters'
p14
g7
sS'this.x'
p15
g10
sS'model.sim'
p16
g5
sS'model.equations'
p17
g10
sS'mo.outputs'
p18
g5
sS'this.Vt'
p19
g10
sS'model.rpar'
p20
S'matrix'
p21
sS'y'
p22
g7
sS'graphics.exprs'
p23
NsS'this.x.graphics'
p24
g2
sS'model.equations.parameters'
p25
g7
sS'this.x.graphics.in_implicit'
p26
g7
sS'model.blocktype'
p27
g5
sS'this.R'
p28
g10
sS'this.Maxexp'
p29
g10
sS'exprs'
p30
g5
sS'gr_i'
p31
g7
sS'this.x.graphics.out_implicit'
p32
g7
sS'this.Ids'
p33
g10
sS'model'
p34
g10
sS'mo'
p35
g10
s.