c__builtin__
set
p0
((lp1
S'Maxexp'
p2
aS'Ids'
p3
aS'R'
p4
aS'Vt'
p5
aS'graphics'
p6
aS'x'
p7
aS'model'
p8
atp9
Rp10
.(dp0
S'graphics'
p1
S'object'
p2
sS'mo.model'
p3
S'string'
p4
sS'x.model'
p5
NsS'model.out'
p6
S'double'
p7
sS'x.graphics'
p8
g2
sS'mo.inputs'
p9
g4
sS'x.graphics.in_implicit'
p10
S'vector_string'
p11
sS'mo.parameters'
p12
S'list'
p13
sS'model.sim'
p14
g4
sS'model.equations'
p15
g7
sS'mo.outputs'
p16
g4
sS'x.graphics.out_implicit'
p17
g11
sS'Ids'
p18
g7
sS'model.rpar'
p19
S'matrix'
p20
sS'Maxexp'
p21
g7
sS'R'
p22
g7
sS'model.in'
p23
g7
sS'graphics.exprs'
p24
NsS'typ'
p25
S'vector'
p26
sS'model.equations.parameters'
p27
g13
sS'model.blocktype'
p28
g4
sS'mo'
p29
g7
sS'model.dep_ut'
p30
S'vector_boolean'
p31
sS'exprs'
p32
g4
sS'gr_i'
p33
g26
sS'Vt'
p34
g7
sS'y'
p35
g26
sS'x'
p36
g26
sS'model'
p37
g2
s.