c__builtin__
set
p0
((lp1
S'R'
p2
aS'Ids'
p3
aS'Maxexp'
p4
aS'exprs'
p5
aS'gr_i'
p6
aS'Vt'
p7
aS'graphics'
p8
aS'x'
p9
aS'model'
p10
atp11
Rp12
.(dp0
S'arg1'
p1
S'object'
p2
sS'graphics'
p3
g2
sS'Maxexp'
p4
S'double'
p5
sS'x.model'
p6
NsS'model.out'
p7
g5
sS'x.graphics'
p8
g2
sS'mo.inputs'
p9
S'string'
p10
sS'x.graphics.in_implicit'
p11
S'vector_string'
p12
sS'mo.parameters'
p13
S'list'
p14
sS'model.sim'
p15
g10
sS'model.equations'
p16
g5
sS'mo.outputs'
p17
g10
sS'x.graphics.out_implicit'
p18
g12
sS'Ids'
p19
g5
sS'model.rpar'
p20
S'matrix'
p21
sS'mo.model'
p22
g10
sS'R'
p23
g5
sS'model.in'
p24
g5
sS'graphics.exprs'
p25
NsS'typ'
p26
S'vector'
p27
sS'model.equations.parameters'
p28
g14
sS'model.blocktype'
p29
g10
sS'mo'
p30
g5
sS'model.dep_ut'
p31
S'vector_boolean'
p32
sS'exprs'
p33
g10
sS'gr_i'
p34
g27
sS'Vt'
p35
g5
sS'y'
p36
g27
sS'x'
p37
NsS'model'
p38
g2
s.