c__builtin__
set
p0
((lp1
S'x'
p2
atp3
Rp4
.(dp0
S'this.x'
p1
S'double'
p2
sS'model.sim'
p3
S'string'
p4
sS'model.in1'
p5
S'vector'
p6
sS'model.equations'
p7
g2
sS'model.blocktype'
p8
g4
sS'exprs'
p9
g4
sS'this.x.graphics.out_implicit'
p10
g6
sS'mo'
p11
g2
sS'mo.inputs'
p12
g4
sS'mo.model'
p13
g4
sS'model.dep_ut'
p14
g6
sS'model.out'
p15
g6
sS'gr_i'
p16
g6
sS'y'
p17
g6
sS'model'
p18
S'object'
p19
sS'this.x.graphics.in_implicit'
p20
g6
sS'typ'
p21
g6
s.