c__builtin__
set
p0
((lp1
S'x'
p2
aS'model'
p3
aS'gr_i'
p4
aS'exprs'
p5
aS'graphics'
p6
atp7
Rp8
.(dp0
S'model.sim'
p1
S'string'
p2
sS'model.equations'
p3
S'double'
p4
sS'model.blocktype'
p5
g2
sS'exprs'
p6
g2
sS'x.graphics.out_implicit'
p7
S'vector'
p8
sS'mo'
p9
g4
sS'mo.inputs'
p10
g2
sS'mo.model'
p11
g2
sS'model.dep_ut'
p12
g8
sS'model.out'
p13
g8
sS'gr_i'
p14
g8
sS'x.graphics.in_implicit'
p15
g8
sS'model.in'
p16
g8
sS'y'
p17
g8
sS'x'
p18
g4
sS'model'
p19
S'object'
p20
sS'typ'
p21
g8
s.