c__builtin__
set
p0
((lp1
S'x'
p2
aS'model'
p3
aS'G2'
p4
aS'G1'
p5
atp6
Rp7
.(dp0
S'x.model.equations.parameters[2-1]'
p1
S'vector'
p2
sS'arg1'
p3
S'object'
p4
sS'mo.model'
p5
S'string'
p6
sS'PrametersValue'
p7
S'matrix'
p8
sS'model.equations'
p9
S'double'
p10
sS'model.out'
p11
g10
sS'model.in1'
p12
g10
sS'x.graphics'
p13
g4
sS'mo.inputs'
p14
g8
sS'Typeout'
p15
g8
sS'x.graphics.in_implicit'
p16
g8
sS'mo.parameters'
p17
g2
sS'model.sim'
p18
g6
sS'ModelName'
p19
g6
sS'y'
p20
g2
sS'mo.outputs'
p21
g8
sS'Typein'
p22
g8
sS'x.graphics.out_implicit'
p23
g8
sS'model.rpar'
p24
g8
sS'P'
p25
g8
sS'graphics'
p26
g4
sS'typ'
p27
g2
sS'model.blocktype'
p28
g6
sS'mo'
p29
g10
sS'gr_i'
p30
g2
sS'MI'
p31
g8
sS'model.dep_ut'
p32
g2
sS'exprs'
p33
g8
sS'x.graphics.exprs'
p34
NsS'PortName'
p35
g8
sS'x'
p36
g10
sS'model'
p37
g4
sS'ParametersName'
p38
g8
sS'MO'
p39
g8
s.