c__builtin__
set
p0
((lp1
S'x'
p2
aS'G2'
p3
aS'G1'
p4
atp5
Rp6
.(dp0
S'this.x.model.equations.parameters[2-1]'
p1
S'vector'
p2
sS'arg1'
p3
S'object'
p4
sS'mo.model'
p5
S'string'
p6
sS'PrametersValue'
p7
S'matrix'
p8
sS'model.equations'
p9
S'double'
p10
sS'model.out'
p11
g10
sS'model.in1'
p12
g10
sS'x.graphics'
p13
g4
sS'this.x.graphics.exprs'
p14
NsS'this.x.graphics.out_implicit'
p15
g8
sS'mo.inputs'
p16
g8
sS'Typeout'
p17
g8
sS'mo.parameters'
p18
g2
sS'this.x'
p19
g10
sS'model.sim'
p20
g6
sS'ModelName'
p21
g6
sS'y'
p22
g2
sS'mo.outputs'
p23
g8
sS'Typein'
p24
g8
sS'model.rpar'
p25
g8
sS'P'
p26
g8
sS'graphics'
p27
g4
sS'typ'
p28
g2
sS'this.x.graphics.in_implicit'
p29
g8
sS'model.blocktype'
p30
g6
sS'MO'
p31
g8
sS'MI'
p32
g8
sS'model.dep_ut'
p33
g2
sS'exprs'
p34
g8
sS'gr_i'
p35
g2
sS'PortName'
p36
g8
sS'x'
p37
g4
sS'model'
p38
g4
sS'ParametersName'
p39
g8
sS'mo'
p40
g10
s.