c__builtin__
set
p0
((lp1
S'G2'
p2
aS'G1'
p3
aS'exprs'
p4
aS'gr_i'
p5
aS'graphics'
p6
aS'x'
p7
aS'model'
p8
atp9
Rp10
.(dp0
S'x.model.equations.parameters[2-1]'
p1
S'list'
p2
sS'arg1'
p3
S'object'
p4
sS'mo.model'
p5
S'string'
p6
sS'PrametersValue'
p7
S'matrix'
p8
sS'model.equations'
p9
S'double'
p10
sS'model.out'
p11
g10
sS'x.graphics'
p12
g4
sS'mo.inputs'
p13
g8
sS'Typeout'
p14
g8
sS'x.graphics.in_implicit'
p15
g8
sS'mo.parameters'
p16
g2
sS'model.sim'
p17
g6
sS'ModelName'
p18
g6
sS'y'
p19
S'vector'
p20
sS'mo.outputs'
p21
g8
sS'Typein'
p22
g8
sS'x.graphics.out_implicit'
p23
g8
sS'model.rpar'
p24
g8
sS'P'
p25
g8
sS'model.in'
p26
g10
sS'graphics'
p27
g4
sS'typ'
p28
g20
sS'model.blocktype'
p29
g6
sS'mo'
p30
g10
sS'gr_i'
p31
g20
sS'MI'
p32
g8
sS'model.dep_ut'
p33
g20
sS'exprs'
p34
g8
sS'x.graphics.exprs'
p35
NsS'PortName'
p36
g8
sS'x'
p37
g4
sS'model'
p38
g4
sS'ParametersName'
p39
g8
sS'MO'
p40
g8
s.