c__builtin__
set
p0
((lp1
S'x'
p2
aS'G2'
p3
aS'G1'
p4
atp5
Rp6
.c__builtin__
set
p0
((lp1
tp2
Rp3
.c__builtin__
set
p0
((lp1
tp2
Rp3
.c__builtin__
set
p0
((lp1
tp2
Rp3
.c__builtin__
set
p0
((lp1
tp2
Rp3
.c__builtin__
set
p0
((lp1
tp2
Rp3
.