c__builtin__
set
p0
((lp1
S'N'
p2
aS'exprs'
p3
aS'gr_i'
p4
aS'graphics'
p5
aS'x'
p6
aS'model'
p7
atp8
Rp9
.(dp0
S'x.model.equations.parameters[2-1]'
p1
S'list'
p2
sS'arg1'
p3
S'object'
p4
sS'mo.model'
p5
S'string'
p6
sS'PrametersValue'
p7
S'vector'
p8
sS'model.equations'
p9
S'double'
p10
sS'model.out'
p11
g10
sS'x.graphics'
p12
g4
sS'mo.inputs'
p13
S'matrix'
p14
sS'Typeout'
p15
g14
sS'x.graphics.in_implicit'
p16
g14
sS'mo.parameters'
p17
g2
sS'model.sim'
p18
g6
sS'ModelName'
p19
g6
sS'y'
p20
g8
sS'mo.outputs'
p21
g14
sS'Typein'
p22
g14
sS'x.graphics.out_implicit'
p23
g14
sS'model.rpar'
p24
g8
sS'P'
p25
g14
sS'model.in'
p26
g10
sS'graphics'
p27
g4
sS'typ'
p28
g8
sS'model.blocktype'
p29
g6
sS'mo'
p30
g10
sS'gr_i'
p31
g8
sS'MI'
p32
g14
sS'model.dep_ut'
p33
S'vector_boolean'
p34
sS'exprs'
p35
g8
sS'x.graphics.exprs'
p36
NsS'PortName'
p37
g14
sS'x'
p38
g4
sS'model'
p39
g4
sS'ParametersName'
p40
g8
sS'MO'
p41
g14
s.