c__builtin__
set
p0
((lp1
S'x'
p2
aS'model'
p3
aS'N'
p4
aS'graphics'
p5
atp6
Rp7
.(dp0
S'x.model.equations.parameters[2-1]'
p1
S'list'
p2
sS'mo.model'
p3
S'string'
p4
sS'PrametersValue'
p5
S'vector'
p6
sS'model.equations'
p7
S'double'
p8
sS'model.out'
p9
g8
sS'x.graphics'
p10
S'object'
p11
sS'mo.inputs'
p12
S'matrix'
p13
sS'Typeout'
p14
g13
sS'x.graphics.in_implicit'
p15
g13
sS'mo.parameters'
p16
g2
sS'model.sim'
p17
g4
sS'ModelName'
p18
g4
sS'y'
p19
g6
sS'mo.outputs'
p20
g13
sS'Typein'
p21
g13
sS'x.graphics.out_implicit'
p22
g13
sS'model.rpar'
p23
g6
sS'P'
p24
g13
sS'model.in'
p25
g8
sS'graphics'
p26
g11
sS'typ'
p27
g6
sS'model.blocktype'
p28
g4
sS'mo'
p29
g8
sS'gr_i'
p30
g6
sS'MI'
p31
g13
sS'model.dep_ut'
p32
S'vector_boolean'
p33
sS'exprs'
p34
S'vector_string'
p35
sS'x.graphics.exprs'
p36
NsS'PortName'
p37
g13
sS'x'
p38
g11
sS'model'
p39
g11
sS'ParametersName'
p40
g35
sS'MO'
p41
g13
s.