c__builtin__
set
p0
((lp1
S'x'
p2
aS'model'
p3
aS'N'
p4
aS'graphics'
p5
atp6
Rp7
.(dp0
S'x.model.equations.parameters[2-1]'
p1
S'list'
p2
sS'arg1'
p3
S'object'
p4
sS'mo.model'
p5
S'string'
p6
sS'PrametersValue'
p7
S'vector'
p8
sS'model.equations'
p9
S'double'
p10
sS'model.out'
p11
g10
sS'model.in1'
p12
g10
sS'x.graphics'
p13
g4
sS'mo.inputs'
p14
S'matrix'
p15
sS'Typeout'
p16
g15
sS'x.graphics.in_implicit'
p17
g15
sS'mo.parameters'
p18
g2
sS'model.sim'
p19
g6
sS'ModelName'
p20
g6
sS'y'
p21
g8
sS'mo.outputs'
p22
g15
sS'Typein'
p23
g15
sS'x.graphics.out_implicit'
p24
g15
sS'model.rpar'
p25
g8
sS'P'
p26
g15
sS'graphics'
p27
g4
sS'typ'
p28
g8
sS'model.blocktype'
p29
g6
sS'mo'
p30
g10
sS'gr_i'
p31
g8
sS'MI'
p32
g15
sS'model.dep_ut'
p33
g8
sS'exprs'
p34
g8
sS'x.graphics.exprs'
p35
NsS'PortName'
p36
g15
sS'x'
p37
g10
sS'model'
p38
g4
sS'ParametersName'
p39
g8
sS'MO'
p40
g15
s.