c__builtin__
set
p0
((lp1
S'x'
p2
aS'L'
p3
atp4
Rp5
.(dp0
S'arg1'
p1
S'object'
p2
sS'graphics'
p3
g2
sS'mo.model'
p4
S'string'
p5
sS'this.x.model'
p6
NsS'model.out'
p7
S'vector'
p8
sS'model.in1'
p9
g8
sS'typ'
p10
g8
sS'mo.inputs'
p11
g5
sS'mo.parameters'
p12
g8
sS'this.x'
p13
S'double'
p14
sS'model.sim'
p15
g5
sS'model.equations'
p16
g14
sS'mo.outputs'
p17
g5
sS'model.rpar'
p18
NsS'graphics.exprs'
p19
NsS'this.x.graphics'
p20
g2
sS'this.x.graphics.in_implicit'
p21
g8
sS'model.blocktype'
p22
g5
sS'mo'
p23
g14
sS'model.dep_ut'
p24
g8
sS'model.equations.parameters[2-1]'
p25
g8
sS'exprs'
p26
g5
sS'gr_i'
p27
g8
sS'this.L'
p28
g14
sS'this.x.graphics.out_implicit'
p29
g8
sS'y'
p30
g8
sS'model'
p31
g14
s.