c__builtin__
set
p0
((lp1
S'x'
p2
aS'model'
p3
aS'L'
p4
atp5
Rp6
.(dp0
S'arg1'
p1
S'object'
p2
sS'graphics'
p3
g2
sS'mo.model'
p4
S'string'
p5
sS'x.model'
p6
NsS'model.out'
p7
S'vector'
p8
sS'model.in1'
p9
g8
sS'exprs'
p10
g5
sS'mo.inputs'
p11
g5
sS'x.graphics.in_implicit'
p12
g8
sS'mo.parameters'
p13
g8
sS'model.sim'
p14
g5
sS'model.equations'
p15
S'double'
p16
sS'mo.outputs'
p17
g5
sS'x.graphics.out_implicit'
p18
g8
sS'L'
p19
g16
sS'model.rpar'
p20
g16
sS'graphics.exprs'
p21
NsS'typ'
p22
g8
sS'model.blocktype'
p23
g5
sS'mo'
p24
g16
sS'x.graphics'
p25
g2
sS'model.dep_ut'
p26
g8
sS"model.equations.parameters[('2', 'double')]"
p27
g8
sS'gr_i'
p28
g8
sS'y'
p29
g8
sS'x'
p30
g16
sS'model'
p31
g2
s.