c__builtin__
set
p0
((lp1
S'L'
p2
aS'exprs'
p3
aS'gr_i'
p4
aS'graphics'
p5
aS'x'
p6
aS'model'
p7
atp8
Rp9
.(dp0
S'arg1'
p1
S'object'
p2
sS'graphics'
p3
g2
sS'mo.model'
p4
S'string'
p5
sS'x.model'
p6
NsS'model.out'
p7
S'vector'
p8
sS'model.in1'
p9
g8
sS'x.graphics'
p10
g2
sS'mo.inputs'
p11
g5
sS'x.graphics.in_implicit'
p12
g8
sS'mo.parameters'
p13
S'list'
p14
sS'model.sim'
p15
g5
sS'model.equations'
p16
S'double'
p17
sS'mo.outputs'
p18
g5
sS'x.graphics.out_implicit'
p19
g8
sS'L'
p20
g17
sS'model.rpar'
p21
g17
sS'graphics.exprs'
p22
NsS'typ'
p23
g8
sS'model.blocktype'
p24
g5
sS'mo'
p25
g17
sS'model.dep_ut'
p26
g8
sS'model.equations.parameters[2-1]'
p27
g14
sS'exprs'
p28
g5
sS'gr_i'
p29
g8
sS'y'
p30
g8
sS'x'
p31
g17
sS'model'
p32
g2
s.