c__builtin__
set
p0
((lp1
S'x'
p2
aS'model'
p3
aS'L'
p4
aS'graphics'
p5
atp6
Rp7
.(dp0
S'graphics'
p1
S'object'
p2
sS'mo.model'
p3
S'string'
p4
sS'x.model'
p5
NsS'model.out'
p6
S'vector'
p7
sS'x.graphics'
p8
g2
sS'mo.inputs'
p9
g4
sS'x.graphics.in_implicit'
p10
S'vector_string'
p11
sS'mo.parameters'
p12
S'list'
p13
sS'model.sim'
p14
g4
sS'model.equations'
p15
S'double'
p16
sS'mo.outputs'
p17
g4
sS'x.graphics.out_implicit'
p18
g11
sS'L'
p19
g16
sS'model.rpar'
p20
g16
sS'model.in'
p21
g7
sS'graphics.exprs'
p22
NsS'typ'
p23
g7
sS'model.blocktype'
p24
g4
sS'mo'
p25
g16
sS'model.dep_ut'
p26
S'vector_boolean'
p27
sS'model.equations.parameters[2-1]'
p28
g13
sS'exprs'
p29
g4
sS'gr_i'
p30
g7
sS'y'
p31
g7
sS'x'
p32
g7
sS'model'
p33
g2
s.