c__builtin__
set
p0
((lp1
S'x'
p2
aS'model'
p3
aS'L'
p4
atp5
Rp6
.(dp0
S'arg1'
p1
S'object'
p2
sS'graphics'
p3
g2
sS'mo.model'
p4
S'string'
p5
sS'x.model'
p6
NsS'model.out'
p7
S'vector'
p8
sS'model.in1'
p9
g8
sS'x.graphics'
p10
g2
sS'mo.inputs'
p11
g5
sS'x.graphics.in_implicit'
p12
g8
sS'mo.parameters'
p13
S'list'
p14
sS'model.sim'
p15
g5
sS'model.equations'
p16
S'double'
p17
sS'model.equations.parameters[2]'
p18
g14
sS'mo.outputs'
p19
g5
sS'x.graphics.out_implicit'
p20
g8
sS'L'
p21
g17
sS'model.rpar'
p22
g17
sS'graphics.exprs'
p23
NsS'typ'
p24
g8
sS'model.blocktype'
p25
g5
sS'mo'
p26
g17
sS'model.dep_ut'
p27
g8
sS'exprs'
p28
g5
sS'gr_i'
p29
g8
sS'y'
p30
g8
sS'x'
p31
g17
sS'model'
p32
g2
s.