c__builtin__
set
p0
((lp1
S'x'
p2
atp3
Rp4
.(dp0
S'this.x'
p1
S'double'
p2
sS'model.sim'
p3
S'string'
p4
sS'model.in1'
p5
S'vector'
p6
sS'model.blocktype'
p7
g4
sS'exprs'
p8
g4
sS'this.x.graphics.out_implicit'
p9
S'matrix'
p10
sS'model.dep_ut'
p11
g6
sS'model.out'
p12
g10
sS'gr_i'
p13
g6
sS'y'
p14
g6
sS'model'
p15
S'object'
p16
sS'this.x.graphics.in_implicit'
p17
g6
sS'typ'
p18
g6
s.