c__builtin__
set
p0
((lp1
S'x'
p2
aS'model'
p3
aS'gr_i'
p4
aS'exprs'
p5
aS'graphics'
p6
atp7
Rp8
.(dp0
S'model.sim'
p1
S'string'
p2
sS'model.blocktype'
p3
g2
sS'exprs'
p4
g2
sS'x.graphics.out_implicit'
p5
S'matrix'
p6
sS'model.dep_ut'
p7
S'vector_boolean'
p8
sS'model.out'
p9
g6
sS'gr_i'
p10
S'vector'
p11
sS'x.graphics.in_implicit'
p12
g11
sS'model.in'
p13
g11
sS'y'
p14
g11
sS'x'
p15
NsS'model'
p16
S'object'
p17
sS'typ'
p18
g11
s.