c__builtin__
set
p0
((lp1
S'x'
p2
atp3
Rp4
.(dp0
S'model.sim'
p1
S'string'
p2
sS'model.in1'
p3
S'vector'
p4
sS'model.blocktype'
p5
g2
sS'exprs'
p6
g2
sS'x.graphics.out_implicit'
p7
S'matrix'
p8
sS'model.dep_ut'
p9
g4
sS'model.out'
p10
g8
sS'gr_i'
p11
g4
sS'x.graphics.in_implicit'
p12
g4
sS'y'
p13
g4
sS'x'
p14
S'double'
p15
sS'model'
p16
S'object'
p17
sS'typ'
p18
g4
s.