c__builtin__
set
p0
((lp1
S'x'
p2
aS'model'
p3
aS'graphics'
p4
atp5
Rp6
.(dp0
S'model.sim'
p1
S'string'
p2
sS'model.blocktype'
p3
g2
sS'exprs'
p4
g2
sS'x.graphics.out_implicit'
p5
S'matrix'
p6
sS'model.dep_ut'
p7
S'vector_boolean'
p8
sS'model.out'
p9
g6
sS'gr_i'
p10
S'vector'
p11
sS'x.graphics.in_implicit'
p12
S'vector_string'
p13
sS'model.in'
p14
g11
sS'y'
p15
g11
sS'x'
p16
g11
sS'model'
p17
S'object'
p18
sS'typ'
p19
g11
s.