c__builtin__
set
p0
((lp1
S'dL'
p2
aS'K5'
p3
aS'RDS'
p4
aS'L'
p5
aS'K2'
p6
aS'Beta'
p7
aS'Vt'
p8
aS'W'
p9
aS'graphics'
p10
aS'x'
p11
aS'model'
p12
aS'dW'
p13
atp14
Rp15
.(dp0
S'model.in'
p1
S'double'
p2
sS'graphics'
p3
S'object'
p4
sS'mo.model'
p5
S'string'
p6
sS'K2'
p7
g2
sS'x.model'
p8
NsS'K5'
p9
g2
sS'model.out'
p10
g2
sS'x.graphics'
p11
g4
sS'mo.inputs'
p12
g6
sS'Beta'
p13
g2
sS'x.graphics.in_implicit'
p14
S'vector_string'
p15
sS'mo.parameters'
p16
S'list'
p17
sS'model.sim'
p18
g6
sS'model.equations'
p19
g2
sS'RDS'
p20
g2
sS'mo.outputs'
p21
S'matrix'
p22
sS'x.graphics.out_implicit'
p23
g22
sS'L'
p24
g2
sS'W'
p25
g2
sS'graphics.exprs'
p26
NsS'typ'
p27
S'vector'
p28
sS'dW'
p29
g2
sS'dL'
p30
g2
sS'model.blocktype'
p31
g6
sS'mo'
p32
g4
sS'model.dep_ut'
p33
S'vector_boolean'
p34
sS'model.equations.parameters[2-1]'
p35
g17
sS'exprs'
p36
g22
sS'gr_i'
p37
g28
sS'Vt'
p38
g2
sS'y'
p39
g28
sS'x'
p40
g28
sS'model'
p41
g4
s.