c__builtin__
set
p0
((lp1
S'Me'
p2
aS'Vak'
p3
aS'Bf'
p4
aS'Gbe'
p5
aS'Tauf'
p6
aS'Gbc'
p7
aS'Mc'
p8
aS'Phic'
p9
aS'Cjc'
p10
aS'Is'
p11
aS'Phie'
p12
aS'Ccs'
p13
aS'Cje'
p14
aS'Taur'
p15
aS'Vt'
p16
aS'Br'
p17
aS'graphics'
p18
aS'EMinMax'
p19
aS'x'
p20
aS'model'
p21
atp22
Rp23
.(dp0
S'x.model.equations.parameters[2-1]'
p1
S'list'
p2
sS'arg1'
p3
S'object'
p4
sS'mo.model'
p5
S'string'
p6
sS'PrametersValue'
p7
S'matrix'
p8
sS'model.equations'
p9
S'double'
p10
sS'model.out'
p11
g10
sS'model.in1'
p12
g10
sS'x.graphics'
p13
g4
sS'mo.inputs'
p14
g8
sS'Typeout'
p15
g8
sS'x.graphics.in_implicit'
p16
g8
sS'mo.parameters'
p17
g2
sS'model.sim'
p18
g6
sS'ModelName'
p19
g6
sS'y'
p20
S'vector'
p21
sS'mo.outputs'
p22
g8
sS'Typein'
p23
g8
sS'x.graphics.out_implicit'
p24
g8
sS'model.rpar'
p25
g8
sS'P'
p26
g8
sS'graphics'
p27
g4
sS'typ'
p28
g21
sS'model.blocktype'
p29
g6
sS'mo'
p30
g10
sS'gr_i'
p31
g21
sS'MI'
p32
g8
sS'model.dep_ut'
p33
g21
sS'exprs'
p34
g8
sS'x.graphics.exprs'
p35
NsS'PortName'
p36
g8
sS'x'
p37
g10
sS'model'
p38
g4
sS'ParametersName'
p39
g8
sS'MO'
p40
g8
s.