c__builtin__
set
p0
((lp1
S'Me'
p2
aS'Vak'
p3
aS'Bf'
p4
aS'Gbe'
p5
aS'Tauf'
p6
aS'Gbc'
p7
aS'Mc'
p8
aS'Phic'
p9
aS'Cjc'
p10
aS'Is'
p11
aS'Phie'
p12
aS'Ccs'
p13
aS'Cje'
p14
aS'Taur'
p15
aS'Vt'
p16
aS'Br'
p17
aS'graphics'
p18
aS'EMinMax'
p19
aS'x'
p20
aS'model'
p21
atp22
Rp23
.(dp0
S'x.model.equations.parameters[2-1]'
p1
S'list'
p2
sS'mo.model'
p3
S'string'
p4
sS'PrametersValue'
p5
S'matrix'
p6
sS'model.equations'
p7
S'double'
p8
sS'model.out'
p9
g8
sS'x.graphics'
p10
S'object'
p11
sS'mo.inputs'
p12
g6
sS'Typeout'
p13
g6
sS'x.graphics.in_implicit'
p14
g6
sS'mo.parameters'
p15
g2
sS'model.sim'
p16
g4
sS'ModelName'
p17
g4
sS'y'
p18
S'vector'
p19
sS'mo.outputs'
p20
g6
sS'Typein'
p21
g6
sS'x.graphics.out_implicit'
p22
g6
sS'model.rpar'
p23
g6
sS'P'
p24
g6
sS'model.in'
p25
g8
sS'graphics'
p26
g11
sS'typ'
p27
g19
sS'model.blocktype'
p28
g4
sS'mo'
p29
g8
sS'gr_i'
p30
g19
sS'MI'
p31
g6
sS'model.dep_ut'
p32
S'vector_boolean'
p33
sS'exprs'
p34
g6
sS'x.graphics.exprs'
p35
NsS'PortName'
p36
g6
sS'x'
p37
g11
sS'model'
p38
g11
sS'ParametersName'
p39
g6
sS'MO'
p40
g6
s.