c__builtin__
set
p0
((lp1
S'OLGain'
p2
aS'graphics'
p3
aS'SatH'
p4
aS'x'
p5
aS'model'
p6
aS'SatL'
p7
atp8
Rp9
.(dp0
S'graphics'
p1
S'object'
p2
sS'mo.model'
p3
S'string'
p4
sS'x.model'
p5
NsS'model.out'
p6
S'double'
p7
sS'x.graphics'
p8
g2
sS'mo.inputs'
p9
S'matrix'
p10
sS'x.graphics.in_implicit'
p11
g10
sS'mo.parameters'
p12
S'list'
p13
sS'model.sim'
p14
g4
sS'model.equations'
p15
g7
sS'mo.outputs'
p16
S'vector_string'
p17
sS'x.graphics.out_implicit'
p18
g17
sS'model.rpar'
p19
S'vector'
p20
sS'S'
p21
g20
sS'model.in'
p22
g7
sS'graphics.exprs'
p23
NsS'Z'
p24
g20
sS'typ'
p25
g20
sS'model.blocktype'
p26
g4
sS'mo'
p27
g2
sS'model.dep_ut'
p28
S'vector_boolean'
p29
sS'model.equations.parameters[2-1]'
p30
g13
sS'exprs'
p31
g4
sS'gr_i'
p32
g20
sS'y'
p33
g20
sS'x'
p34
g20
sS'model'
p35
g2
s.