c__builtin__
set
p0
((lp1
S'OLGain'
p2
aS'exprs'
p3
aS'gr_i'
p4
aS'graphics'
p5
aS'SatH'
p6
aS'x'
p7
aS'model'
p8
aS'SatL'
p9
atp10
Rp11
.(dp0
S'arg1'
p1
S'object'
p2
sS'graphics'
p3
g2
sS'mo.model'
p4
S'string'
p5
sS'x.model'
p6
NsS'model.out'
p7
S'double'
p8
sS'model.in1'
p9
g8
sS'x.graphics'
p10
g2
sS'mo.inputs'
p11
S'matrix'
p12
sS'x.graphics.in_implicit'
p13
g12
sS'mo.parameters'
p14
S'list'
p15
sS'model.sim'
p16
g5
sS'model.equations'
p17
g8
sS'mo.outputs'
p18
S'vector'
p19
sS'x.graphics.out_implicit'
p20
g19
sS'model.rpar'
p21
g19
sS'S'
p22
g19
sS'graphics.exprs'
p23
NsS'Z'
p24
g19
sS'typ'
p25
g19
sS'model.blocktype'
p26
g5
sS'mo'
p27
g2
sS'model.dep_ut'
p28
g19
sS'model.equations.parameters[2-1]'
p29
g15
sS'exprs'
p30
g5
sS'gr_i'
p31
g19
sS'y'
p32
g19
sS'x'
p33
g8
sS'model'
p34
g2
s.