c__builtin__
set
p0
((lp1
S'SatH'
p2
aS'x'
p3
aS'model'
p4
aS'SatL'
p5
aS'OLGain'
p6
atp7
Rp8
.(dp0
S'arg1'
p1
S'object'
p2
sS'graphics'
p3
g2
sS'mo.model'
p4
S'string'
p5
sS'x.model'
p6
NsS'model.out'
p7
S'double'
p8
sS'model.in1'
p9
g8
sS'x.graphics'
p10
g2
sS'mo.inputs'
p11
S'matrix'
p12
sS'x.graphics.in_implicit'
p13
g12
sS'mo.parameters'
p14
S'list'
p15
sS'model.sim'
p16
g5
sS'model.equations'
p17
g8
sS'model.equations.parameters[2]'
p18
g15
sS'mo.outputs'
p19
S'vector'
p20
sS'x.graphics.out_implicit'
p21
g20
sS'model.rpar'
p22
g20
sS'S'
p23
g20
sS'graphics.exprs'
p24
NsS'Z'
p25
g20
sS'typ'
p26
g20
sS'model.blocktype'
p27
g5
sS'mo'
p28
g2
sS'model.dep_ut'
p29
g20
sS'exprs'
p30
g5
sS'gr_i'
p31
g20
sS'y'
p32
g20
sS'x'
p33
g8
sS'model'
p34
g2
s.