c__builtin__
set
p0
((lp1
S'SatH'
p2
aS'x'
p3
aS'model'
p4
aS'SatL'
p5
aS'OLGain'
p6
atp7
Rp8
.(dp0
S'arg1'
p1
S'object'
p2
sS'graphics'
p3
g2
sS'mo.model'
p4
S'string'
p5
sS'x.model'
p6
NsS'model.out'
p7
S'double'
p8
sS'model.in1'
p9
g8
sS'exprs'
p10
g5
sS'mo.inputs'
p11
S'matrix'
p12
sS'x.graphics.in_implicit'
p13
g12
sS'mo.parameters'
p14
S'vector'
p15
sS'model.sim'
p16
g5
sS'model.equations'
p17
g8
sS'mo.outputs'
p18
g15
sS'x.graphics.out_implicit'
p19
g15
sS'model.rpar'
p20
g15
sS'S'
p21
g15
sS'graphics.exprs'
p22
NsS'Z'
p23
g15
sS'typ'
p24
g15
sS'model.blocktype'
p25
g5
sS'mo'
p26
g2
sS'x.graphics'
p27
g2
sS'model.dep_ut'
p28
g15
sS"model.equations.parameters[('2', 'double')]"
p29
g15
sS'gr_i'
p30
g15
sS'y'
p31
g15
sS'x'
p32
g8
sS'model'
p33
g2
s.