c__builtin__
set
p0
((lp1
S'SatH'
p2
aS'x'
p3
aS'OLGain'
p4
aS'SatL'
p5
atp6
Rp7
.(dp0
S'arg1'
p1
S'object'
p2
sS'graphics'
p3
g2
sS'mo.model'
p4
S'string'
p5
sS'this.x.model'
p6
NsS'model.out'
p7
S'double'
p8
sS'model.in1'
p9
g8
sS'typ'
p10
S'vector'
p11
sS'mo.inputs'
p12
S'matrix'
p13
sS'mo.parameters'
p14
g11
sS'this.x'
p15
g8
sS'model.sim'
p16
g5
sS'model.equations'
p17
g8
sS'mo.outputs'
p18
g11
sS'model.rpar'
p19
g11
sS'S'
p20
g11
sS'graphics.exprs'
p21
NsS'Z'
p22
g11
sS'this.x.graphics'
p23
g2
sS'this.x.graphics.in_implicit'
p24
g13
sS'model.blocktype'
p25
g5
sS'mo'
p26
g2
sS'model.dep_ut'
p27
g11
sS'model.equations.parameters[2-1]'
p28
g11
sS'exprs'
p29
g5
sS'gr_i'
p30
g11
sS'this.x.graphics.out_implicit'
p31
g11
sS'y'
p32
g11
sS'model'
p33
g2
s.