c__builtin__
set
p0
((lp1
S'OLGain'
p2
aS'exprs'
p3
aS'gr_i'
p4
aS'graphics'
p5
aS'SatH'
p6
aS'x'
p7
aS'model'
p8
aS'SatL'
p9
atp10
Rp11
.(dp0
S'arg1'
p1
S'object'
p2
sS'graphics'
p3
g2
sS'mo.model'
p4
S'string'
p5
sS'x.model'
p6
NsS'model.out'
p7
S'double'
p8
sS'x.graphics'
p9
g2
sS'mo.inputs'
p10
S'matrix'
p11
sS'x.graphics.in_implicit'
p12
g11
sS'mo.parameters'
p13
S'list'
p14
sS'model.sim'
p15
g5
sS'model.equations'
p16
g8
sS'mo.outputs'
p17
S'vector'
p18
sS'x.graphics.out_implicit'
p19
g18
sS'model.rpar'
p20
g18
sS'S'
p21
g18
sS'model.in'
p22
g8
sS'graphics.exprs'
p23
NsS'Z'
p24
g18
sS'typ'
p25
g18
sS'model.blocktype'
p26
g5
sS'mo'
p27
g2
sS'model.dep_ut'
p28
S'vector_boolean'
p29
sS'model.equations.parameters[2-1]'
p30
g14
sS'exprs'
p31
g5
sS'gr_i'
p32
g18
sS'y'
p33
g18
sS'x'
p34
NsS'model'
p35
g2
s.