c__builtin__
set
p0
((lp1
S'dL'
p2
aS'K5'
p3
aS'RDS'
p4
aS'L'
p5
aS'K2'
p6
aS'Beta'
p7
aS'Vt'
p8
aS'W'
p9
aS'graphics'
p10
aS'x'
p11
aS'model'
p12
aS'dW'
p13
atp14
Rp15
.(dp0
S'model.in'
p1
S'double'
p2
sS'arg1'
p3
S'object'
p4
sS'graphics'
p5
g4
sS'mo.model'
p6
S'string'
p7
sS'K2'
p8
g2
sS'x.model'
p9
NsS'K5'
p10
g2
sS'model.out'
p11
g2
sS'x.graphics'
p12
g4
sS'mo.inputs'
p13
g7
sS'Beta'
p14
g2
sS'x.graphics.in_implicit'
p15
S'vector_string'
p16
sS'mo.parameters'
p17
S'list'
p18
sS'model.sim'
p19
g7
sS'model.equations'
p20
g2
sS'RDS'
p21
g2
sS'mo.outputs'
p22
S'matrix'
p23
sS'x.graphics.out_implicit'
p24
g23
sS'L'
p25
g2
sS'W'
p26
g2
sS'graphics.exprs'
p27
NsS'typ'
p28
S'vector'
p29
sS'dW'
p30
g2
sS'dL'
p31
g2
sS'model.blocktype'
p32
g7
sS'mo'
p33
g4
sS'model.dep_ut'
p34
S'vector_boolean'
p35
sS'model.equations.parameters[2-1]'
p36
g18
sS'exprs'
p37
g23
sS'gr_i'
p38
g29
sS'Vt'
p39
g2
sS'y'
p40
g29
sS'x'
p41
NsS'model'
p42
g4
s.