c__builtin__
set
p0
((lp1
S'dL'
p2
aS'K5'
p3
aS'RDS'
p4
aS'L'
p5
aS'K2'
p6
aS'Beta'
p7
aS'Vt'
p8
aS'W'
p9
aS'dW'
p10
aS'x'
p11
aS'model'
p12
atp13
Rp14
.(dp0
S'arg1'
p1
S'object'
p2
sS'graphics'
p3
g2
sS'mo.model'
p4
S'string'
p5
sS'K2'
p6
S'double'
p7
sS'x.model'
p8
NsS'K5'
p9
g7
sS'model.out'
p10
g7
sS'model.in1'
p11
g7
sS'x.graphics'
p12
g2
sS'mo.inputs'
p13
g5
sS'Beta'
p14
g7
sS'x.graphics.in_implicit'
p15
S'vector'
p16
sS'mo.parameters'
p17
S'list'
p18
sS'model.sim'
p19
g5
sS'model.equations'
p20
g7
sS'RDS'
p21
g7
sS'model.equations.parameters[2]'
p22
g18
sS'mo.outputs'
p23
S'matrix'
p24
sS'x.graphics.out_implicit'
p25
g24
sS'L'
p26
g7
sS'W'
p27
g7
sS'graphics.exprs'
p28
NsS'typ'
p29
g16
sS'dW'
p30
g7
sS'dL'
p31
g7
sS'model.blocktype'
p32
g5
sS'mo'
p33
g2
sS'model.dep_ut'
p34
g16
sS'exprs'
p35
g24
sS'gr_i'
p36
g16
sS'Vt'
p37
g7
sS'y'
p38
g16
sS'x'
p39
g7
sS'model'
p40
g2
s.