c__builtin__
set
p0
((lp1
S'dL'
p2
aS'K5'
p3
aS'RDS'
p4
aS'K2'
p5
aS'L'
p6
aS'exprs'
p7
aS'Beta'
p8
aS'gr_i'
p9
aS'Vt'
p10
aS'W'
p11
aS'graphics'
p12
aS'x'
p13
aS'model'
p14
aS'dW'
p15
atp16
Rp17
.(dp0
S'arg1'
p1
S'object'
p2
sS'graphics'
p3
g2
sS'mo.model'
p4
S'string'
p5
sS'K2'
p6
S'double'
p7
sS'x.model'
p8
NsS'K5'
p9
g7
sS'model.out'
p10
g7
sS'model.in1'
p11
g7
sS'x.graphics'
p12
g2
sS'mo.inputs'
p13
g5
sS'Beta'
p14
g7
sS'x.graphics.in_implicit'
p15
S'vector'
p16
sS'mo.parameters'
p17
S'list'
p18
sS'model.sim'
p19
g5
sS'model.equations'
p20
g7
sS'RDS'
p21
g7
sS'mo.outputs'
p22
S'matrix'
p23
sS'x.graphics.out_implicit'
p24
g23
sS'L'
p25
g7
sS'W'
p26
g7
sS'graphics.exprs'
p27
NsS'typ'
p28
g16
sS'dW'
p29
g7
sS'dL'
p30
g7
sS'model.blocktype'
p31
g5
sS'mo'
p32
g2
sS'model.dep_ut'
p33
g16
sS'model.equations.parameters[2-1]'
p34
g18
sS'exprs'
p35
g23
sS'gr_i'
p36
g16
sS'Vt'
p37
g7
sS'y'
p38
g16
sS'x'
p39
g7
sS'model'
p40
g2
s.