c__builtin__
set
p0
((lp1
S'dL'
p2
aS'K5'
p3
aS'RDS'
p4
aS'K2'
p5
aS'L'
p6
aS'exprs'
p7
aS'Beta'
p8
aS'gr_i'
p9
aS'Vt'
p10
aS'W'
p11
aS'graphics'
p12
aS'x'
p13
aS'model'
p14
aS'dW'
p15
atp16
Rp17
.(dp0
S'model.in'
p1
S'double'
p2
sS'arg1'
p3
S'object'
p4
sS'graphics'
p5
g4
sS'mo.model'
p6
S'string'
p7
sS'K2'
p8
g2
sS'x.model'
p9
NsS'K5'
p10
g2
sS'model.out'
p11
g2
sS'x.graphics'
p12
g4
sS'mo.inputs'
p13
g7
sS'Beta'
p14
g2
sS'x.graphics.in_implicit'
p15
S'vector'
p16
sS'mo.parameters'
p17
S'list'
p18
sS'model.sim'
p19
g7
sS'model.equations'
p20
g2
sS'RDS'
p21
g2
sS'mo.outputs'
p22
S'matrix'
p23
sS'x.graphics.out_implicit'
p24
g23
sS'L'
p25
g2
sS'W'
p26
g2
sS'graphics.exprs'
p27
NsS'typ'
p28
g16
sS'dW'
p29
g2
sS'dL'
p30
g2
sS'model.blocktype'
p31
g7
sS'mo'
p32
g4
sS'model.dep_ut'
p33
S'vector_boolean'
p34
sS'model.equations.parameters[2-1]'
p35
g18
sS'exprs'
p36
g23
sS'gr_i'
p37
g16
sS'Vt'
p38
g2
sS'y'
p39
g16
sS'x'
p40
NsS'model'
p41
g4
s.