c__builtin__
set
p0
((lp1
S'dL'
p2
aS'K5'
p3
aS'RDS'
p4
aS'L'
p5
aS'K2'
p6
aS'Beta'
p7
aS'Vt'
p8
aS'W'
p9
aS'dW'
p10
aS'x'
p11
aS'model'
p12
atp13
Rp14
.(dp0
S'arg1'
p1
S'object'
p2
sS'graphics'
p3
g2
sS'mo.model'
p4
S'string'
p5
sS'K2'
p6
S'double'
p7
sS'x.model'
p8
NsS'K5'
p9
g7
sS'model.out'
p10
g7
sS'model.in1'
p11
g7
sS'exprs'
p12
S'matrix'
p13
sS'mo.inputs'
p14
g5
sS'Beta'
p15
g7
sS'x.graphics.in_implicit'
p16
S'vector'
p17
sS'mo.parameters'
p18
g17
sS'model.sim'
p19
g5
sS'model.equations'
p20
g7
sS'RDS'
p21
g7
sS'mo.outputs'
p22
g13
sS'x.graphics.out_implicit'
p23
g13
sS'L'
p24
g7
sS'W'
p25
g7
sS'graphics.exprs'
p26
NsS'typ'
p27
g17
sS'dW'
p28
g7
sS'dL'
p29
g7
sS'model.blocktype'
p30
g5
sS'mo'
p31
g2
sS'x.graphics'
p32
g2
sS'model.dep_ut'
p33
g17
sS"model.equations.parameters[('2', 'double')]"
p34
g17
sS'gr_i'
p35
g17
sS'Vt'
p36
g7
sS'y'
p37
g17
sS'x'
p38
g7
sS'model'
p39
g2
s.