c__builtin__
set
p0
((lp1
S'dL'
p2
aS'K5'
p3
aS'RDS'
p4
aS'L'
p5
aS'K2'
p6
aS'Beta'
p7
aS'Vt'
p8
aS'W'
p9
aS'dW'
p10
aS'x'
p11
atp12
Rp13
.(dp0
S'arg1'
p1
S'object'
p2
sS'graphics'
p3
g2
sS'mo.model'
p4
S'string'
p5
sS'this.x.model'
p6
NsS'model.out'
p7
S'double'
p8
sS'this.W'
p9
g8
sS'model.in1'
p10
g8
sS'typ'
p11
S'vector'
p12
sS'this.K2'
p13
g8
sS'mo.inputs'
p14
g5
sS'this.K5'
p15
g8
sS'mo.parameters'
p16
g12
sS'this.Beta'
p17
g8
sS'this.x'
p18
g8
sS'model.sim'
p19
g5
sS'model.equations'
p20
g8
sS'this.dL'
p21
g8
sS'mo.outputs'
p22
S'matrix'
p23
sS'this.Vt'
p24
g8
sS'graphics.exprs'
p25
NsS'this.RDS'
p26
g8
sS'this.x.graphics'
p27
g2
sS'this.dW'
p28
g8
sS'this.x.graphics.in_implicit'
p29
g12
sS'model.blocktype'
p30
g5
sS'mo'
p31
g2
sS'model.dep_ut'
p32
g12
sS'model.equations.parameters[2-1]'
p33
g12
sS'exprs'
p34
g23
sS'gr_i'
p35
g12
sS'this.L'
p36
g8
sS'this.x.graphics.out_implicit'
p37
g23
sS'y'
p38
g12
sS'model'
p39
g8
s.