c__builtin__
set
p0
((lp1
S'dL'
p2
aS'K5'
p3
aS'RDS'
p4
aS'L'
p5
aS'K2'
p6
aS'Beta'
p7
aS'Vt'
p8
aS'W'
p9
aS'dW'
p10
aS'x'
p11
aS'model'
p12
atp13
Rp14
.(dp0
S'arg1'
p1
S'object'
p2
sS'graphics'
p3
g2
sS'mo.model'
p4
S'string'
p5
sS'K2'
p6
S'double'
p7
sS'x.model'
p8
NsS'K5'
p9
g7
sS'model.out'
p10
g7
sS'model.in1'
p11
g7
sS'exprs'
p12
S'matrix'
p13
sS'mo.inputs'
p14
g5
sS'Beta'
p15
g7
sS'x.graphics.in_implicit'
p16
S'vector'
p17
sS'mo.parameters'
p18
S'list'
p19
sS'model.sim'
p20
g5
sS'model.equations'
p21
g7
sS'RDS'
p22
g7
sS'mo.outputs'
p23
g13
sS'x.graphics.out_implicit'
p24
g13
sS'L'
p25
g7
sS'W'
p26
g7
sS'graphics.exprs'
p27
NsS'typ'
p28
g17
sS'dW'
p29
g7
sS'dL'
p30
g7
sS'model.blocktype'
p31
g5
sS'mo'
p32
g2
sS'x.graphics'
p33
g2
sS'model.dep_ut'
p34
g17
sS"model.equations.parameters[('2', 'double')]"
p35
g19
sS'gr_i'
p36
g17
sS'Vt'
p37
g7
sS'y'
p38
g17
sS'x'
p39
g7
sS'model'
p40
g2
s.