c__builtin__
set
p0
((lp1
S'x'
p2
atp3
Rp4
.(dp0
S'model.sim'
p1
S'string'
p2
sS'model.in1'
p3
S'vector'
p4
sS'model.equations'
p5
S'double'
p6
sS'model.blocktype'
p7
g2
sS'x.graphics.out_implicit'
p8
g4
sS'mo'
p9
g6
sS'mo.inputs'
p10
g2
sS'mo.model'
p11
g2
sS'model.rpar'
p12
g4
sS'model.out'
p13
g4
sS'gr_i'
p14
g4
sS'x.graphics.in_implicit'
p15
g4
sS'model.dep_ut'
p16
g4
sS'y'
p17
g4
sS'x'
p18
g6
sS'model'
p19
S'object'
p20
sS'typ'
p21
g4
sS'mo.outputs'
p22
g4
s.