c__builtin__
set
p0
((lp1
S'x'
p2
aS'model'
p3
aS'gr_i'
p4
aS'exprs'
p5
aS'graphics'
p6
atp7
Rp8
.(dp0
S'model.sim'
p1
S'string'
p2
sS'model.equations'
p3
S'double'
p4
sS'model.blocktype'
p5
g2
sS'x.graphics.out_implicit'
p6
S'vector_string'
p7
sS'mo'
p8
g4
sS'mo.inputs'
p9
g2
sS'mo.model'
p10
g2
sS'model.rpar'
p11
S'vector'
p12
sS'model.out'
p13
g12
sS'gr_i'
p14
g12
sS'x.graphics.in_implicit'
p15
g7
sS'model.dep_ut'
p16
S'vector_boolean'
p17
sS'model.in'
p18
g12
sS'y'
p19
g12
sS'x'
p20
NsS'model'
p21
S'object'
p22
sS'typ'
p23
g12
sS'mo.outputs'
p24
g7
s.