c__builtin__
set
p0
((lp1
S'x'
p2
aS'model'
p3
aS'gr_i'
p4
aS'exprs'
p5
aS'graphics'
p6
atp7
Rp8
.(dp0
S'model.sim'
p1
S'string'
p2
sS'model.equations'
p3
S'double'
p4
sS'model.blocktype'
p5
g2
sS'x.graphics.out_implicit'
p6
S'vector'
p7
sS'mo'
p8
g4
sS'mo.inputs'
p9
g2
sS'mo.model'
p10
g2
sS'model.rpar'
p11
g7
sS'model.out'
p12
g7
sS'gr_i'
p13
g7
sS'x.graphics.in_implicit'
p14
g7
sS'model.dep_ut'
p15
S'vector_boolean'
p16
sS'model.in'
p17
g7
sS'y'
p18
g7
sS'x'
p19
NsS'model'
p20
S'object'
p21
sS'typ'
p22
g7
sS'mo.outputs'
p23
g7
s.