c__builtin__
set
p0
((lp1
S'x'
p2
aS'model'
p3
aS'R'
p4
atp5
Rp6
.(dp0
S'arg1'
p1
S'object'
p2
sS'graphics'
p3
g2
sS'mo.model'
p4
S'string'
p5
sS'x.model'
p6
NsS'model.out'
p7
S'double'
p8
sS'model.in1'
p9
g8
sS'exprs'
p10
g5
sS'mo.inputs'
p11
g5
sS'x.graphics.in_implicit'
p12
S'vector'
p13
sS'mo.parameters'
p14
S'list'
p15
sS'model.sim'
p16
g5
sS'model.equations'
p17
g8
sS'mo.outputs'
p18
g5
sS'x.graphics.out_implicit'
p19
g13
sS'model.rpar'
p20
g8
sS'R'
p21
g8
sS'graphics.exprs'
p22
NsS'typ'
p23
g13
sS'model.blocktype'
p24
g5
sS'mo'
p25
g2
sS'x.graphics'
p26
g2
sS'model.dep_ut'
p27
g13
sS"model.equations.parameters[('2', 'double')]"
p28
g15
sS'gr_i'
p29
g13
sS'y'
p30
g13
sS'x'
p31
g8
sS'model'
p32
g2
s.