c__builtin__
set
p0
((lp1
S'x'
p2
aS'model'
p3
aS'R'
p4
atp5
Rp6
.(dp0
S'arg1'
p1
S'object'
p2
sS'graphics'
p3
g2
sS'mo.model'
p4
S'string'
p5
sS'x.model'
p6
NsS'model.out'
p7
S'double'
p8
sS'model.in1'
p9
g8
sS'exprs'
p10
g5
sS'mo.inputs'
p11
g5
sS'x.graphics.in_implicit'
p12
S'vector'
p13
sS'mo.parameters'
p14
g13
sS'model.sim'
p15
g5
sS'model.equations'
p16
g8
sS'mo.outputs'
p17
g5
sS'x.graphics.out_implicit'
p18
g13
sS'model.rpar'
p19
g8
sS'R'
p20
g8
sS'graphics.exprs'
p21
NsS'typ'
p22
g13
sS'model.blocktype'
p23
g5
sS'mo'
p24
g2
sS'x.graphics'
p25
g2
sS'model.dep_ut'
p26
g13
sS"model.equations.parameters[('2', 'double')]"
p27
g13
sS'gr_i'
p28
g13
sS'y'
p29
g13
sS'x'
p30
g8
sS'model'
p31
g2
s.