c__builtin__
set
p0
((lp1
S'x'
p2
aS'R'
p3
atp4
Rp5
.(dp0
S'arg1'
p1
S'object'
p2
sS'graphics'
p3
g2
sS'mo.model'
p4
S'string'
p5
sS'this.x.model'
p6
NsS'model.out'
p7
S'double'
p8
sS'model.in1'
p9
g8
sS'typ'
p10
S'vector'
p11
sS'mo.inputs'
p12
g5
sS'mo.parameters'
p13
g11
sS'this.x'
p14
g8
sS'model.sim'
p15
g5
sS'model.equations'
p16
g8
sS'mo.outputs'
p17
g5
sS'model.rpar'
p18
NsS'graphics.exprs'
p19
NsS'this.x.graphics'
p20
g2
sS'this.x.graphics.in_implicit'
p21
g11
sS'model.blocktype'
p22
g5
sS'this.R'
p23
g8
sS'model.dep_ut'
p24
g11
sS'model.equations.parameters[2-1]'
p25
g11
sS'exprs'
p26
g5
sS'gr_i'
p27
g11
sS'this.x.graphics.out_implicit'
p28
g11
sS'y'
p29
g11
sS'model'
p30
g2
sS'mo'
p31
g2
s.