c__builtin__
set
p0
((lp1
S'R'
p2
aS'exprs'
p3
aS'gr_i'
p4
aS'graphics'
p5
aS'x'
p6
aS'model'
p7
atp8
Rp9
.(dp0
S'arg1'
p1
S'object'
p2
sS'graphics'
p3
g2
sS'mo.model'
p4
S'string'
p5
sS'x.model'
p6
NsS'model.out'
p7
S'double'
p8
sS'x.graphics'
p9
g2
sS'mo.inputs'
p10
g5
sS'x.graphics.in_implicit'
p11
S'vector'
p12
sS'mo.parameters'
p13
S'list'
p14
sS'model.sim'
p15
g5
sS'model.equations'
p16
g8
sS'mo.outputs'
p17
g5
sS'x.graphics.out_implicit'
p18
g12
sS'model.rpar'
p19
g8
sS'R'
p20
g8
sS'model.in'
p21
g8
sS'graphics.exprs'
p22
NsS'typ'
p23
g12
sS'model.blocktype'
p24
g5
sS'mo'
p25
g2
sS'model.dep_ut'
p26
S'vector_boolean'
p27
sS'model.equations.parameters[2-1]'
p28
g14
sS'exprs'
p29
g5
sS'gr_i'
p30
g12
sS'y'
p31
g12
sS'x'
p32
NsS'model'
p33
g2
s.