c__builtin__
set
p0
((lp1
S'x'
p2
aS'model'
p3
aS'R'
p4
aS'graphics'
p5
atp6
Rp7
.(dp0
S'arg1'
p1
S'object'
p2
sS'graphics'
p3
g2
sS'mo.model'
p4
S'string'
p5
sS'x.model'
p6
NsS'model.out'
p7
S'double'
p8
sS'x.graphics'
p9
g2
sS'mo.inputs'
p10
g5
sS'x.graphics.in_implicit'
p11
S'vector_string'
p12
sS'mo.parameters'
p13
S'list'
p14
sS'model.sim'
p15
g5
sS'model.equations'
p16
g8
sS'mo.outputs'
p17
g5
sS'x.graphics.out_implicit'
p18
g12
sS'model.rpar'
p19
g8
sS'R'
p20
g8
sS'model.in'
p21
g8
sS'graphics.exprs'
p22
NsS'typ'
p23
S'vector'
p24
sS'model.blocktype'
p25
g5
sS'mo'
p26
g2
sS'model.dep_ut'
p27
S'vector_boolean'
p28
sS'model.equations.parameters[2-1]'
p29
g14
sS'exprs'
p30
g5
sS'gr_i'
p31
g24
sS'y'
p32
g24
sS'x'
p33
NsS'model'
p34
g2
s.