c__builtin__
set
p0
((lp1
S'V'
p2
aS'start'
p3
aS'frq'
p4
aS'offset'
p5
aS'x'
p6
aS'model'
p7
aS'ph'
p8
atp9
Rp10
.(dp0
S'arg1'
p1
S'object'
p2
sS'offset'
p3
S'double'
p4
sS'mo.model'
p5
S'string'
p6
sS'x.model'
p7
NsS'model.out'
p8
S'vector'
p9
sS'model.in1'
p10
g9
sS'exprs'
p11
S'matrix'
p12
sS'mo.inputs'
p13
g6
sS'start'
p14
g4
sS'frq'
p15
g4
sS'x.graphics.in_implicit'
p16
g9
sS'ph'
p17
g4
sS'mo.parameters'
p18
g9
sS'model.sim'
p19
g6
sS'V'
p20
g4
sS'model.equations'
p21
g4
sS'mo.outputs'
p22
g6
sS'x.graphics.out_implicit'
p23
g9
sS'model.rpar'
p24
g12
sS'graphics.exprs'
p25
NsS'typ'
p26
g9
sS'model.blocktype'
p27
g6
sS'graphics'
p28
g2
sS'x.graphics'
p29
g2
sS'model.dep_ut'
p30
g9
sS"model.equations.parameters[('2', 'double')]"
p31
g9
sS'gr_i'
p32
g9
sS'y'
p33
g9
sS'x'
p34
g4
sS'model'
p35
g2
sS'mo'
p36
g4
s.