c__builtin__
set
p0
((lp1
S'start'
p2
aS'graphics'
p3
aS'offset'
p4
aS'exprs'
p5
aS'frq'
p6
aS'gr_i'
p7
aS'V'
p8
aS'x'
p9
aS'model'
p10
aS'ph'
p11
atp12
Rp13
.(dp0
S'arg1'
p1
S'object'
p2
sS'graphics'
p3
g2
sS'mo.model'
p4
S'string'
p5
sS'x.model'
p6
NsS'model.out'
p7
S'vector'
p8
sS'x.graphics'
p9
g2
sS'mo.inputs'
p10
g5
sS'offset'
p11
S'double'
p12
sS'start'
p13
g12
sS'frq'
p14
g12
sS'x.graphics.in_implicit'
p15
g8
sS'ph'
p16
g12
sS'mo.parameters'
p17
S'list'
p18
sS'model.sim'
p19
g5
sS'V'
p20
g12
sS'model.equations'
p21
g12
sS'mo.outputs'
p22
g5
sS'x.graphics.out_implicit'
p23
g8
sS'model.rpar'
p24
S'matrix'
p25
sS'model.in'
p26
g8
sS'graphics.exprs'
p27
NsS'typ'
p28
g8
sS'model.blocktype'
p29
g5
sS'mo'
p30
g12
sS'model.dep_ut'
p31
S'vector_boolean'
p32
sS'model.equations.parameters[2-1]'
p33
g18
sS'exprs'
p34
g25
sS'gr_i'
p35
g8
sS'y'
p36
g8
sS'x'
p37
NsS'model'
p38
g2
s.