c__builtin__
set
p0
((lp1
S'graphics'
p2
aS'offset'
p3
aS'start'
p4
aS'frq'
p5
aS'V'
p6
aS'x'
p7
aS'model'
p8
aS'ph'
p9
atp10
Rp11
.(dp0
S'arg1'
p1
S'object'
p2
sS'offset'
p3
S'double'
p4
sS'mo.model'
p5
S'string'
p6
sS'x.model'
p7
NsS'model.out'
p8
S'vector'
p9
sS'model.in1'
p10
g9
sS'x.graphics'
p11
g2
sS'mo.inputs'
p12
g6
sS'start'
p13
g4
sS'frq'
p14
g4
sS'x.graphics.in_implicit'
p15
g9
sS'ph'
p16
g4
sS'mo.parameters'
p17
S'list'
p18
sS'model.sim'
p19
g6
sS'V'
p20
g4
sS'model.equations'
p21
g4
sS'mo.outputs'
p22
g6
sS'x.graphics.out_implicit'
p23
g9
sS'model.rpar'
p24
S'matrix'
p25
sS'graphics.exprs'
p26
NsS'typ'
p27
g9
sS'model.blocktype'
p28
g6
sS'graphics'
p29
g2
sS'model.dep_ut'
p30
g9
sS'model.equations.parameters[2-1]'
p31
g18
sS'exprs'
p32
g25
sS'gr_i'
p33
g9
sS'y'
p34
g9
sS'x'
p35
g4
sS'model'
p36
g2
sS'mo'
p37
g4
s.