c__builtin__
set
p0
((lp1
S'V'
p2
aS'start'
p3
aS'frq'
p4
aS'offset'
p5
aS'x'
p6
aS'model'
p7
aS'ph'
p8
atp9
Rp10
.(dp0
S'arg1'
p1
S'object'
p2
sS'offset'
p3
S'double'
p4
sS'mo.model'
p5
S'string'
p6
sS'x.model'
p7
NsS'model.out'
p8
S'vector'
p9
sS'model.in1'
p10
g9
sS'exprs'
p11
S'matrix'
p12
sS'mo.inputs'
p13
g6
sS'start'
p14
g4
sS'frq'
p15
g4
sS'x.graphics.in_implicit'
p16
g9
sS'ph'
p17
g4
sS'mo.parameters'
p18
S'list'
p19
sS'model.sim'
p20
g6
sS'V'
p21
g4
sS'model.equations'
p22
g4
sS'mo.outputs'
p23
g6
sS'x.graphics.out_implicit'
p24
g9
sS'model.rpar'
p25
g12
sS'graphics.exprs'
p26
NsS'typ'
p27
g9
sS'model.blocktype'
p28
g6
sS'graphics'
p29
g2
sS'x.graphics'
p30
g2
sS'model.dep_ut'
p31
g9
sS"model.equations.parameters[('2', 'double')]"
p32
g19
sS'gr_i'
p33
g9
sS'y'
p34
g9
sS'x'
p35
g4
sS'model'
p36
g2
sS'mo'
p37
g4
s.