c__builtin__
set
p0
((lp1
S'V'
p2
aS'start'
p3
aS'frq'
p4
aS'offset'
p5
aS'x'
p6
aS'ph'
p7
atp8
Rp9
.(dp0
S'this.frq'
p1
S'double'
p2
sS'this.ph'
p3
g2
sS'arg1'
p4
S'object'
p5
sS'graphics'
p6
g5
sS'mo.model'
p7
S'string'
p8
sS'this.start'
p9
g2
sS'this.V'
p10
g2
sS'this.x.model'
p11
NsS'model.out'
p12
S'vector'
p13
sS'model.in1'
p14
g13
sS'typ'
p15
g13
sS'mo.inputs'
p16
g8
sS'mo.parameters'
p17
g13
sS'this.x'
p18
g2
sS'model.sim'
p19
g8
sS'model.equations'
p20
g2
sS'mo.outputs'
p21
g8
sS'model.rpar'
p22
S'matrix'
p23
sS'graphics.exprs'
p24
NsS'this.offset'
p25
g2
sS'this.x.graphics'
p26
g5
sS'this.x.graphics.in_implicit'
p27
g13
sS'model.blocktype'
p28
g8
sS'mo'
p29
g2
sS'model.dep_ut'
p30
g13
sS'model.equations.parameters[2-1]'
p31
g13
sS'exprs'
p32
g23
sS'gr_i'
p33
g13
sS'this.x.graphics.out_implicit'
p34
g13
sS'y'
p35
g13
sS'model'
p36
g5
s.