c__builtin__
set
p0
((lp1
S'start'
p2
aS'graphics'
p3
aS'offset'
p4
aS'exprs'
p5
aS'frq'
p6
aS'gr_i'
p7
aS'V'
p8
aS'x'
p9
aS'model'
p10
aS'ph'
p11
atp12
Rp13
.(dp0
S'arg1'
p1
S'object'
p2
sS'graphics'
p3
g2
sS'mo.model'
p4
S'string'
p5
sS'x.model'
p6
NsS'model.out'
p7
S'vector'
p8
sS'x.graphics'
p9
g2
sS'mo.inputs'
p10
g5
sS'offset'
p11
S'double'
p12
sS'start'
p13
g12
sS'frq'
p14
g12
sS'x.graphics.in_implicit'
p15
S'vector_string'
p16
sS'ph'
p17
g12
sS'mo.parameters'
p18
S'list'
p19
sS'model.sim'
p20
g5
sS'V'
p21
g12
sS'model.equations'
p22
g12
sS'mo.outputs'
p23
g5
sS'x.graphics.out_implicit'
p24
g16
sS'model.rpar'
p25
S'matrix'
p26
sS'model.in'
p27
g8
sS'graphics.exprs'
p28
NsS'typ'
p29
g8
sS'model.blocktype'
p30
g5
sS'mo'
p31
g12
sS'model.dep_ut'
p32
S'vector_boolean'
p33
sS'model.equations.parameters[2-1]'
p34
g19
sS'exprs'
p35
g26
sS'gr_i'
p36
g8
sS'y'
p37
g8
sS'x'
p38
NsS'model'
p39
g2
s.