c__builtin__
set
p0
((lp1
S'graphics'
p2
aS'offset'
p3
aS'start'
p4
aS'frq'
p5
aS'V'
p6
aS'x'
p7
aS'model'
p8
aS'ph'
p9
atp10
Rp11
.(dp0
S'graphics'
p1
S'object'
p2
sS'mo.model'
p3
S'string'
p4
sS'x.model'
p5
NsS'model.out'
p6
S'vector'
p7
sS'x.graphics'
p8
g2
sS'mo.inputs'
p9
g4
sS'offset'
p10
S'double'
p11
sS'start'
p12
g11
sS'frq'
p13
g11
sS'x.graphics.in_implicit'
p14
S'vector_string'
p15
sS'ph'
p16
g11
sS'mo.parameters'
p17
S'list'
p18
sS'model.sim'
p19
g4
sS'V'
p20
g11
sS'model.equations'
p21
g11
sS'mo.outputs'
p22
g4
sS'x.graphics.out_implicit'
p23
g15
sS'model.rpar'
p24
S'matrix'
p25
sS'model.in'
p26
g7
sS'graphics.exprs'
p27
NsS'typ'
p28
g7
sS'model.blocktype'
p29
g4
sS'mo'
p30
g11
sS'model.dep_ut'
p31
S'vector_boolean'
p32
sS'model.equations.parameters[2-1]'
p33
g18
sS'exprs'
p34
g25
sS'gr_i'
p35
g7
sS'y'
p36
g7
sS'x'
p37
g7
sS'model'
p38
g2
s.