c__builtin__
set
p0
((lp1
S'V'
p2
aS'start'
p3
aS'frq'
p4
aS'offset'
p5
aS'x'
p6
aS'ph'
p7
atp8
Rp9
.(dp0
S'arg1'
p1
S'object'
p2
sS'offset'
p3
S'double'
p4
sS'mo.model'
p5
S'string'
p6
sS'x.model'
p7
NsS'model.out'
p8
S'vector'
p9
sS'model.in1'
p10
g9
sS'x.graphics'
p11
g2
sS'mo.inputs'
p12
g6
sS'start'
p13
g4
sS'frq'
p14
g4
sS'x.graphics.in_implicit'
p15
g9
sS'ph'
p16
g4
sS'mo.parameters'
p17
g9
sS'model.sim'
p18
g6
sS'V'
p19
g4
sS'model.equations'
p20
g4
sS'mo.outputs'
p21
g6
sS'x.graphics.out_implicit'
p22
g9
sS'model.rpar'
p23
S'matrix'
p24
sS'graphics.exprs'
p25
NsS'typ'
p26
g9
sS'model.blocktype'
p27
g6
sS'graphics'
p28
g2
sS'model.dep_ut'
p29
g9
sS'model.equations.parameters[2-1]'
p30
g9
sS'exprs'
p31
g24
sS'gr_i'
p32
g9
sS'y'
p33
g9
sS'x'
p34
g4
sS'model'
p35
g2
sS'mo'
p36
g4
s.