c__builtin__
set
p0
((lp1
S'x'
p2
aS'model'
p3
aS'Roff'
p4
aS'Ron'
p5
aS'graphics'
p6
atp7
Rp8
.(dp0
S'arg1'
p1
S'object'
p2
sS'graphics'
p3
g2
sS'mo.model'
p4
S'string'
p5
sS'x.model'
p6
NsS'model.out'
p7
S'double'
p8
sS'model.in1'
p9
g8
sS'x.graphics'
p10
g2
sS'mo.inputs'
p11
S'matrix'
p12
sS'x.graphics.in_implicit'
p13
g12
sS'mo.parameters'
p14
S'list'
p15
sS'model.sim'
p16
g5
sS'model.equations'
p17
g8
sS'mo.outputs'
p18
g5
sS'x.graphics.out_implicit'
p19
S'vector'
p20
sS'model.rpar'
p21
g8
sS'S'
p22
g12
sS'graphics.exprs'
p23
NsS'Z'
p24
g8
sS'typ'
p25
g20
sS'model.blocktype'
p26
g5
sS'Roff'
p27
g8
sS'Ron'
p28
g8
sS'mo'
p29
g2
sS'model.dep_ut'
p30
g20
sS'model.equations.parameters[2-1]'
p31
g15
sS'exprs'
p32
g5
sS'gr_i'
p33
g20
sS'y'
p34
g20
sS'x'
p35
g8
sS'model'
p36
g2
s.