c__builtin__
set
p0
((lp1
S'x'
p2
aS'model'
p3
aS'Roff'
p4
aS'Ron'
p5
atp6
Rp7
.(dp0
S'arg1'
p1
S'object'
p2
sS'graphics'
p3
g2
sS'mo.model'
p4
S'string'
p5
sS'x.model'
p6
NsS'model.out'
p7
S'double'
p8
sS'model.in1'
p9
g8
sS'exprs'
p10
g5
sS'mo.inputs'
p11
S'matrix'
p12
sS'x.graphics.in_implicit'
p13
g12
sS'mo.parameters'
p14
S'vector'
p15
sS'model.sim'
p16
g5
sS'model.equations'
p17
g8
sS'mo.outputs'
p18
g5
sS'x.graphics.out_implicit'
p19
g15
sS'model.rpar'
p20
g8
sS'S'
p21
g12
sS'graphics.exprs'
p22
NsS'Z'
p23
g8
sS'typ'
p24
g15
sS'model.blocktype'
p25
g5
sS'Roff'
p26
g8
sS'Ron'
p27
g8
sS'mo'
p28
g2
sS'x.graphics'
p29
g2
sS'model.dep_ut'
p30
g15
sS"model.equations.parameters[('2', 'double')]"
p31
g15
sS'gr_i'
p32
g15
sS'y'
p33
g15
sS'x'
p34
g8
sS'model'
p35
g2
s.