c__builtin__
set
p0
((lp1
S'x'
p2
aS'Roff'
p3
aS'Ron'
p4
atp5
Rp6
.(dp0
S'arg1'
p1
S'object'
p2
sS'graphics'
p3
g2
sS'mo.model'
p4
S'string'
p5
sS'this.x.model'
p6
NsS'model.out'
p7
S'double'
p8
sS'model.in1'
p9
g8
sS'this.Ron'
p10
g8
sS'typ'
p11
S'vector'
p12
sS'mo.inputs'
p13
S'matrix'
p14
sS'mo.parameters'
p15
g12
sS'this.x'
p16
g8
sS'model.sim'
p17
g5
sS'model.equations'
p18
g8
sS'mo.outputs'
p19
g5
sS'model.rpar'
p20
g8
sS'S'
p21
g14
sS'graphics.exprs'
p22
NsS'this.Roff'
p23
g8
sS'Z'
p24
g8
sS'this.x.graphics'
p25
g2
sS'this.x.graphics.in_implicit'
p26
g14
sS'model.blocktype'
p27
g5
sS'mo'
p28
g2
sS'model.dep_ut'
p29
g12
sS'model.equations.parameters[2-1]'
p30
g12
sS'exprs'
p31
g5
sS'gr_i'
p32
g12
sS'this.x.graphics.out_implicit'
p33
g12
sS'y'
p34
g12
sS'model'
p35
g2
s.