c__builtin__
set
p0
((lp1
S'x'
p2
aS'model'
p3
aS'Roff'
p4
aS'Ron'
p5
aS'graphics'
p6
atp7
Rp8
.(dp0
S'arg1'
p1
S'object'
p2
sS'graphics'
p3
g2
sS'mo.model'
p4
S'string'
p5
sS'x.model'
p6
NsS'model.out'
p7
S'double'
p8
sS'x.graphics'
p9
g2
sS'mo.inputs'
p10
S'matrix'
p11
sS'x.graphics.in_implicit'
p12
g11
sS'mo.parameters'
p13
S'list'
p14
sS'model.sim'
p15
g5
sS'model.equations'
p16
g8
sS'mo.outputs'
p17
g5
sS'x.graphics.out_implicit'
p18
S'vector_string'
p19
sS'model.rpar'
p20
g8
sS'S'
p21
g11
sS'model.in'
p22
g8
sS'graphics.exprs'
p23
NsS'Z'
p24
g8
sS'typ'
p25
S'vector'
p26
sS'model.blocktype'
p27
g5
sS'Roff'
p28
g8
sS'Ron'
p29
g8
sS'mo'
p30
g2
sS'model.dep_ut'
p31
S'vector_boolean'
p32
sS'model.equations.parameters[2-1]'
p33
g14
sS'exprs'
p34
g5
sS'gr_i'
p35
g26
sS'y'
p36
g26
sS'x'
p37
NsS'model'
p38
g2
s.