c__builtin__
set
p0
((lp1
S'Roff'
p2
aS'Ron'
p3
aS'exprs'
p4
aS'gr_i'
p5
aS'graphics'
p6
aS'x'
p7
aS'model'
p8
atp9
Rp10
.(dp0
S'arg1'
p1
S'object'
p2
sS'graphics'
p3
g2
sS'mo.model'
p4
S'string'
p5
sS'x.model'
p6
NsS'model.out'
p7
S'double'
p8
sS'x.graphics'
p9
g2
sS'mo.inputs'
p10
S'matrix'
p11
sS'x.graphics.in_implicit'
p12
g11
sS'mo.parameters'
p13
S'list'
p14
sS'model.sim'
p15
g5
sS'model.equations'
p16
g8
sS'mo.outputs'
p17
g5
sS'x.graphics.out_implicit'
p18
S'vector'
p19
sS'model.rpar'
p20
g8
sS'S'
p21
g11
sS'model.in'
p22
g8
sS'graphics.exprs'
p23
NsS'Z'
p24
g8
sS'typ'
p25
g19
sS'model.blocktype'
p26
g5
sS'Roff'
p27
g8
sS'Ron'
p28
g8
sS'mo'
p29
g2
sS'model.dep_ut'
p30
g19
sS'model.equations.parameters[2-1]'
p31
g14
sS'exprs'
p32
g5
sS'gr_i'
p33
g19
sS'y'
p34
g19
sS'x'
p35
g8
sS'model'
p36
g2
s.