c__builtin__
set
p0
((lp1
S'x'
p2
aS'model'
p3
aS'Roff'
p4
aS'Ron'
p5
aS'graphics'
p6
atp7
Rp8
.(dp0
S'graphics'
p1
S'object'
p2
sS'mo.model'
p3
S'string'
p4
sS'x.model'
p5
NsS'model.out'
p6
S'double'
p7
sS'x.graphics'
p8
g2
sS'mo.inputs'
p9
S'matrix'
p10
sS'x.graphics.in_implicit'
p11
g10
sS'mo.parameters'
p12
S'list'
p13
sS'model.sim'
p14
g4
sS'model.equations'
p15
g7
sS'mo.outputs'
p16
g4
sS'x.graphics.out_implicit'
p17
S'vector_string'
p18
sS'model.rpar'
p19
g7
sS'S'
p20
g10
sS'model.in'
p21
g7
sS'graphics.exprs'
p22
NsS'Z'
p23
g7
sS'typ'
p24
S'vector'
p25
sS'model.blocktype'
p26
g4
sS'Roff'
p27
g7
sS'Ron'
p28
g7
sS'mo'
p29
g2
sS'model.dep_ut'
p30
S'vector_boolean'
p31
sS'model.equations.parameters[2-1]'
p32
g13
sS'exprs'
p33
g4
sS'gr_i'
p34
g25
sS'y'
p35
g25
sS'x'
p36
g25
sS'model'
p37
g2
s.