c__builtin__
set
p0
((lp1
S'x'
p2
aS'model'
p3
aS'gr_i'
p4
aS'exprs'
p5
aS'graphics'
p6
atp7
Rp8
.(dp0
S'model.sim'
p1
S'string'
p2
sS'model.equations'
p3
S'double'
p4
sS'model.blocktype'
p5
g2
sS'exprs'
p6
S'vector'
p7
sS'x.graphics.out_implicit'
p8
S'vector_string'
p9
sS'mo'
p10
S'object'
p11
sS'mo.inputs'
p12
g9
sS'mo.model'
p13
g2
sS'model.dep_ut'
p14
S'vector_boolean'
p15
sS'model.out'
p16
g4
sS'gr_i'
p17
g7
sS'x.graphics.in_implicit'
p18
g9
sS'model.in'
p19
g4
sS'y'
p20
g7
sS'x'
p21
NsS'model'
p22
g11
sS'typ'
p23
g7
sS'mo.outputs'
p24
g2
s.