c__builtin__
set
p0
((lp1
S'x'
p2
atp3
Rp4
.(dp0
S'model.sim'
p1
S'string'
p2
sS'model.in1'
p3
S'double'
p4
sS'model.equations'
p5
g4
sS'model.blocktype'
p6
g2
sS'exprs'
p7
S'vector'
p8
sS'x.graphics.out_implicit'
p9
g8
sS'mo'
p10
S'object'
p11
sS'mo.inputs'
p12
g8
sS'mo.model'
p13
g2
sS'model.dep_ut'
p14
g8
sS'model.out'
p15
g4
sS'gr_i'
p16
g8
sS'x.graphics.in_implicit'
p17
g8
sS'y'
p18
g8
sS'x'
p19
g4
sS'model'
p20
g11
sS'typ'
p21
g8
sS'mo.outputs'
p22
g2
s.