c__builtin__
set
p0
((lp1
S'x'
p2
aS'model'
p3
aS'gr_i'
p4
aS'exprs'
p5
aS'graphics'
p6
atp7
Rp8
.(dp0
S'model.sim'
p1
S'string'
p2
sS'model.equations'
p3
S'double'
p4
sS'model.blocktype'
p5
g2
sS'exprs'
p6
S'vector'
p7
sS'x.graphics.out_implicit'
p8
S'matrix'
p9
sS'mo'
p10
g4
sS'mo.inputs'
p11
g2
sS'mo.model'
p12
g2
sS'model.dep_ut'
p13
g7
sS'model.out'
p14
g9
sS'gr_i'
p15
g7
sS'x.graphics.in_implicit'
p16
g7
sS'model.in'
p17
g4
sS'y'
p18
g7
sS'x'
p19
g4
sS'model'
p20
S'object'
p21
sS'typ'
p22
g7
sS'mo.outputs'
p23
g9
s.