c__builtin__
set
p0
((lp1
S'VA'
p2
aS'FR'
p3
aS'exprs'
p4
aS'gr_i'
p5
aS'graphics'
p6
aS'x'
p7
aS'model'
p8
atp9
Rp10
.(dp0
S'FR'
p1
S'double'
p2
sS'model.sim'
p3
S'string'
p4
sS'arg1'
p5
S'object'
p6
sS'graphics'
p7
g6
sS'mo.model'
p8
g4
sS'x.model'
p9
NsS'model.out'
p10
S'vector'
p11
sS'x.graphics'
p12
g6
sS'mo.inputs'
p13
g4
sS'x.graphics.in_implicit'
p14
S'vector_string'
p15
sS'mo.parameters'
p16
S'list'
p17
sS'VA'
p18
g2
sS'model.equations'
p19
g2
sS'mo.outputs'
p20
g4
sS'x.graphics.out_implicit'
p21
g15
sS'model.rpar'
p22
S'matrix'
p23
sS'model.in'
p24
g11
sS'graphics.exprs'
p25
NsS'typ'
p26
g11
sS'model.blocktype'
p27
g4
sS'mo'
p28
g2
sS'model.dep_ut'
p29
S'vector_boolean'
p30
sS'model.equations.parameters[2-1]'
p31
g17
sS'exprs'
p32
g23
sS'gr_i'
p33
g11
sS'y'
p34
g11
sS'x'
p35
NsS'model'
p36
g6
s.