c__builtin__
set
p0
((lp1
S'VA'
p2
aS'FR'
p3
aS'exprs'
p4
aS'gr_i'
p5
aS'graphics'
p6
aS'x'
p7
aS'model'
p8
atp9
Rp10
.(dp0
S'FR'
p1
S'double'
p2
sS'model.sim'
p3
S'string'
p4
sS'arg1'
p5
S'object'
p6
sS'graphics'
p7
g6
sS'mo.model'
p8
g4
sS'x.model'
p9
NsS'model.out'
p10
S'vector'
p11
sS'model.in1'
p12
g11
sS'x.graphics'
p13
g6
sS'mo.inputs'
p14
g4
sS'x.graphics.in_implicit'
p15
g11
sS'mo.parameters'
p16
S'list'
p17
sS'VA'
p18
g2
sS'model.equations'
p19
g2
sS'mo.outputs'
p20
g4
sS'x.graphics.out_implicit'
p21
g11
sS'model.rpar'
p22
S'matrix'
p23
sS'graphics.exprs'
p24
NsS'typ'
p25
g11
sS'model.blocktype'
p26
g4
sS'mo'
p27
g2
sS'model.dep_ut'
p28
g11
sS'model.equations.parameters[2-1]'
p29
g17
sS'exprs'
p30
g23
sS'gr_i'
p31
g11
sS'y'
p32
g11
sS'x'
p33
g2
sS'model'
p34
g6
s.