c__builtin__
set
p0
((lp1
S'x'
p2
aS'FR'
p3
aS'VA'
p4
atp5
Rp6
.(dp0
S'arg1'
p1
S'object'
p2
sS'graphics'
p3
g2
sS'mo.model'
p4
S'string'
p5
sS'this.x.model'
p6
NsS'model.out'
p7
S'vector'
p8
sS'model.in1'
p9
g8
sS'typ'
p10
g8
sS'mo.inputs'
p11
g5
sS'mo.parameters'
p12
g8
sS'this.FR'
p13
S'double'
p14
sS'this.x'
p15
g14
sS'model.sim'
p16
g5
sS'model.equations'
p17
g14
sS'mo.outputs'
p18
g5
sS'model.rpar'
p19
S'matrix'
p20
sS'graphics.exprs'
p21
NsS'this.x.graphics'
p22
g2
sS'this.x.graphics.in_implicit'
p23
g8
sS'model.blocktype'
p24
g5
sS'mo'
p25
g14
sS'model.dep_ut'
p26
g8
sS'model.equations.parameters[2-1]'
p27
g8
sS'exprs'
p28
g20
sS'gr_i'
p29
g8
sS'this.x.graphics.out_implicit'
p30
g8
sS'y'
p31
g8
sS'model'
p32
g14
sS'this.VA'
p33
g14
s.