c__builtin__
set
p0
((lp1
S'x'
p2
aS'model'
p3
aS'VA'
p4
aS'FR'
p5
aS'graphics'
p6
atp7
Rp8
.(dp0
S'FR'
p1
S'double'
p2
sS'model.sim'
p3
S'string'
p4
sS'graphics'
p5
S'object'
p6
sS'mo.model'
p7
g4
sS'x.model'
p8
NsS'model.out'
p9
S'vector'
p10
sS'x.graphics'
p11
g6
sS'mo.inputs'
p12
g4
sS'x.graphics.in_implicit'
p13
S'vector_string'
p14
sS'mo.parameters'
p15
S'list'
p16
sS'VA'
p17
g2
sS'model.equations'
p18
g2
sS'mo.outputs'
p19
g4
sS'x.graphics.out_implicit'
p20
g14
sS'model.rpar'
p21
S'matrix'
p22
sS'model.in'
p23
g10
sS'graphics.exprs'
p24
NsS'typ'
p25
g10
sS'model.blocktype'
p26
g4
sS'mo'
p27
g2
sS'model.dep_ut'
p28
S'vector_boolean'
p29
sS'model.equations.parameters[2-1]'
p30
g16
sS'exprs'
p31
g22
sS'gr_i'
p32
g10
sS'y'
p33
g10
sS'x'
p34
g10
sS'model'
p35
g6
s.