c__builtin__
set
p0
((lp1
S'x'
p2
aS'model'
p3
aS'FR'
p4
atp5
Rp6
.(dp0
S'FR'
p1
S'double'
p2
sS'model.sim'
p3
S'string'
p4
sS'arg1'
p5
S'object'
p6
sS'graphics'
p7
g6
sS'mo.model'
p8
g4
sS'x.model'
p9
NsS'model.out'
p10
S'vector'
p11
sS'model.in1'
p12
S'matrix'
p13
sS'exprs'
p14
g11
sS'mo.inputs'
p15
g11
sS'x.graphics.in_implicit'
p16
g11
sS'mo.parameters'
p17
g11
sS'VA'
p18
g2
sS'model.equations'
p19
g2
sS'mo.outputs'
p20
g4
sS'x.graphics.out_implicit'
p21
g11
sS'model.rpar'
p22
g11
sS'graphics.exprs'
p23
NsS'typ'
p24
g11
sS'model.blocktype'
p25
g4
sS'mo'
p26
g2
sS'x.graphics'
p27
g6
sS'model.dep_ut'
p28
g11
sS"model.equations.parameters[('2', 'double')]"
p29
g11
sS'gr_i'
p30
g11
sS'y'
p31
g11
sS'x'
p32
g2
sS'model'
p33
g6
s.