c__builtin__
set
p0
((lp1
S'FR'
p2
aS'exprs'
p3
aS'gr_i'
p4
aS'graphics'
p5
aS'x'
p6
aS'model'
p7
atp8
Rp9
.(dp0
S'FR'
p1
S'double'
p2
sS'model.sim'
p3
S'string'
p4
sS'arg1'
p5
S'object'
p6
sS'graphics'
p7
g6
sS'mo.model'
p8
g4
sS'x.model'
p9
NsS'model.out'
p10
S'vector'
p11
sS'x.graphics'
p12
g6
sS'mo.inputs'
p13
g11
sS'x.graphics.in_implicit'
p14
g11
sS'mo.parameters'
p15
S'list'
p16
sS'VA'
p17
g2
sS'model.equations'
p18
g2
sS'mo.outputs'
p19
g4
sS'x.graphics.out_implicit'
p20
g11
sS'model.rpar'
p21
g11
sS'model.in'
p22
S'matrix'
p23
sS'graphics.exprs'
p24
NsS'typ'
p25
g11
sS'model.blocktype'
p26
g4
sS'mo'
p27
g2
sS'model.dep_ut'
p28
S'vector_boolean'
p29
sS'model.equations.parameters[2-1]'
p30
g16
sS'exprs'
p31
g11
sS'gr_i'
p32
g11
sS'y'
p33
g11
sS'x'
p34
NsS'model'
p35
g6
s.