c__builtin__
set
p0
((lp1
S'x'
p2
aS'model'
p3
aS'FR'
p4
atp5
Rp6
.(dp0
S'FR'
p1
S'double'
p2
sS'model.sim'
p3
S'string'
p4
sS'arg1'
p5
S'object'
p6
sS'graphics'
p7
g6
sS'mo.model'
p8
g4
sS'x.model'
p9
NsS'model.out'
p10
S'vector'
p11
sS'model.in1'
p12
S'matrix'
p13
sS'x.graphics'
p14
g6
sS'mo.inputs'
p15
g11
sS'x.graphics.in_implicit'
p16
g11
sS'mo.parameters'
p17
S'list'
p18
sS'VA'
p19
g2
sS'model.equations'
p20
g2
sS'model.equations.parameters[2]'
p21
g18
sS'mo.outputs'
p22
g4
sS'x.graphics.out_implicit'
p23
g11
sS'model.rpar'
p24
g11
sS'graphics.exprs'
p25
NsS'typ'
p26
g11
sS'model.blocktype'
p27
g4
sS'mo'
p28
g2
sS'model.dep_ut'
p29
g11
sS'exprs'
p30
g11
sS'gr_i'
p31
g11
sS'y'
p32
g11
sS'x'
p33
g2
sS'model'
p34
g6
s.