c__builtin__
set
p0
((lp1
S'x'
p2
aS'model'
p3
aS'FR'
p4
atp5
Rp6
.(dp0
S'FR'
p1
S'double'
p2
sS'model.sim'
p3
S'string'
p4
sS'arg1'
p5
S'object'
p6
sS'graphics'
p7
g6
sS'mo.model'
p8
g4
sS'x.model'
p9
NsS'model.out'
p10
S'vector'
p11
sS'model.in1'
p12
S'matrix'
p13
sS'exprs'
p14
g11
sS'mo.inputs'
p15
g11
sS'x.graphics.in_implicit'
p16
g11
sS'mo.parameters'
p17
S'list'
p18
sS'VA'
p19
g2
sS'model.equations'
p20
g2
sS'mo.outputs'
p21
g4
sS'x.graphics.out_implicit'
p22
g11
sS'model.rpar'
p23
g11
sS'graphics.exprs'
p24
NsS'typ'
p25
g11
sS'model.blocktype'
p26
g4
sS'mo'
p27
g2
sS'x.graphics'
p28
g6
sS'model.dep_ut'
p29
g11
sS"model.equations.parameters[('2', 'double')]"
p30
g18
sS'gr_i'
p31
g11
sS'y'
p32
g11
sS'x'
p33
g2
sS'model'
p34
g6
s.