c__builtin__
set
p0
((lp1
S'x'
p2
aS'FR'
p3
atp4
Rp5
.(dp0
S'model.sim'
p1
S'string'
p2
sS'arg1'
p3
S'object'
p4
sS'graphics'
p5
g4
sS'mo.model'
p6
g2
sS'this.x.model'
p7
NsS'model.out'
p8
S'vector'
p9
sS'model.in1'
p10
S'matrix'
p11
sS'typ'
p12
g9
sS'mo.inputs'
p13
g9
sS'mo.parameters'
p14
g9
sS'this.FR'
p15
S'double'
p16
sS'this.x'
p17
g16
sS'VA'
p18
g16
sS'model.equations'
p19
g16
sS'mo.outputs'
p20
g2
sS'model.rpar'
p21
g9
sS'graphics.exprs'
p22
NsS'this.x.graphics'
p23
g4
sS'this.x.graphics.in_implicit'
p24
g9
sS'model.blocktype'
p25
g2
sS'mo'
p26
g16
sS'model.dep_ut'
p27
g9
sS'model.equations.parameters[2-1]'
p28
g9
sS'exprs'
p29
g9
sS'gr_i'
p30
g9
sS'this.x.graphics.out_implicit'
p31
g9
sS'y'
p32
g9
sS'model'
p33
g16
s.