c__builtin__
set
p0
((lp1
S'x'
p2
aS'sgn'
p3
atp4
Rp5
.(dp0
S'this.x'
p1
S'double'
p2
sS'[model,graphics,ok]'
p3
g2
sS'model.in1'
p4
S'matrix'
p5
sS'model.blocktype'
p6
S'string'
p7
sS'this.sgn'
p8
g5
sS'model.sim'
p9
S'vector'
p10
sS'this.x.graphics'
p11
S'object'
p12
sS'arg1'
p13
g12
sS'graphics.exprs'
p14
NsS'in1'
p15
g2
sS'model.rpar'
p16
NsS'this.x.model'
p17
NsS'exprs'
p18
g2
sS'gr_i'
p19
g10
sS'model.dep_ut'
p20
g10
sS'graphics'
p21
g12
sS'y'
p22
g10
sS'model'
p23
g2
sS'typ'
p24
g10
sS'model.out'
p25
g2
s.