c__builtin__
set
p0
((lp1
S'x'
p2
aS'model'
p3
aS'sgn'
p4
atp5
Rp6
.(dp0
S'sgn'
p1
S'matrix'
p2
sS'model.sim'
p3
S'list'
p4
sS'model.in1'
p5
g2
sS'model.blocktype'
p6
S'string'
p7
sS'x.graphics'
p8
S'object'
p9
sS'arg1'
p10
g9
sS'graphics.exprs'
p11
NsS'in1'
p12
S'double'
p13
sS'model.rpar'
p14
g2
sS'exprs'
p15
g7
sS'x.model'
p16
NsS'gr_i'
p17
S'vector'
p18
sS'model.dep_ut'
p19
g18
sS'graphics'
p20
g9
sS'y'
p21
g18
sS'x'
p22
g13
sS'model'
p23
g9
sS'typ'
p24
g18
sS'model.out'
p25
g13
s.