c__builtin__
set
p0
((lp1
S'x'
p2
aS'model'
p3
aS'sgn'
p4
aS'graphics'
p5
atp6
Rp7
.(dp0
S'sgn'
p1
S'matrix'
p2
sS'model.sim'
p3
S'list'
p4
sS'model.out'
p5
S'double'
p6
sS'model.blocktype'
p7
S'string'
p8
sS'x.graphics'
p9
S'object'
p10
sS'graphics.exprs'
p11
NsS'in1'
p12
g6
sS'model.rpar'
p13
g2
sS'exprs'
p14
g8
sS'x.model'
p15
NsS'gr_i'
p16
S'vector'
p17
sS'model.dep_ut'
p18
S'vector_boolean'
p19
sS'model.in'
p20
g2
sS'graphics'
p21
g10
sS'y'
p22
g17
sS'x'
p23
g17
sS'model'
p24
g10
sS'typ'
p25
g17
s.