c__builtin__
set
p0
((lp1
S'x'
p2
aS'model'
p3
aS'sgn'
p4
atp5
Rp6
.(dp0
S'sgn'
p1
S'matrix'
p2
sS'model.sim'
p3
S'list'
p4
sS'model.in1'
p5
g2
sS'model.blocktype'
p6
S'string'
p7
sS'x.graphics'
p8
S'object'
p9
sS'arg1'
p10
g9
sS'[this.model,graphics,ok]'
p11
S'double'
p12
sS'graphics.exprs'
p13
NsS'in1'
p14
g12
sS'model.rpar'
p15
g2
sS'exprs'
p16
g12
sS'x.model'
p17
NsS'gr_i'
p18
S'vector'
p19
sS'model.dep_ut'
p20
g19
sS'graphics'
p21
g9
sS'y'
p22
g19
sS'x'
p23
g12
sS'model'
p24
g9
sS'typ'
p25
g19
sS'model.out'
p26
g12
s.