c__builtin__
set
p0
((lp1
S'x'
p2
aS'model'
p3
aS'sgn'
p4
aS'graphics'
p5
atp6
Rp7
.(dp0
S'sgn'
p1
S'matrix'
p2
sS'model.sim'
p3
S'list'
p4
sS'model.out'
p5
S'double'
p6
sS'model.blocktype'
p7
S'string'
p8
sS'x.graphics'
p9
S'object'
p10
sS'arg1'
p11
g10
sS'graphics.exprs'
p12
NsS'in1'
p13
g6
sS'model.rpar'
p14
g2
sS'exprs'
p15
g8
sS'x.model'
p16
NsS'gr_i'
p17
S'vector'
p18
sS'model.dep_ut'
p19
S'vector_boolean'
p20
sS'model.in'
p21
g2
sS'graphics'
p22
g10
sS'y'
p23
g18
sS'x'
p24
NsS'model'
p25
g10
sS'typ'
p26
g18
s.