c__builtin__
set
p0
((lp1
S'x'
p2
aS'model'
p3
aS'sgn'
p4
atp5
Rp6
.(dp0
S'sgn'
p1
S'matrix'
p2
sS'[model,graphics,ok]'
p3
S'double'
p4
sS'model.in1'
p5
g2
sS'model.blocktype'
p6
S'string'
p7
sS'x.graphics'
p8
S'object'
p9
sS'arg1'
p10
g9
sS'graphics.exprs'
p11
NsS'in1'
p12
g4
sS'model.rpar'
p13
g2
sS'exprs'
p14
g4
sS'x.model'
p15
NsS'gr_i'
p16
S'vector'
p17
sS'model.dep_ut'
p18
g17
sS'graphics'
p19
g9
sS'y'
p20
g17
sS'x'
p21
g4
sS'model'
p22
g9
sS'model.sim'
p23
g17
sS'typ'
p24
g17
sS'model.out'
p25
g4
s.