c__builtin__
set
p0
((lp1
S'x'
p2
aS'model'
p3
aS'gr_i'
p4
aS'exprs'
p5
aS'graphics'
p6
atp7
Rp8
.(dp0
S'model.sim'
p1
S'list'
p2
sS'model.blocktype'
p3
S'string'
p4
sS'model.dep_ut'
p5
S'vector_boolean'
p6
sS'gr_i'
p7
S'vector'
p8
sS'model.state'
p9
S'double'
p10
sS'y'
p11
g8
sS'x'
p12
NsS'x0'
p13
g10
sS'typ'
p14
g8
sS'model'
p15
S'object'
p16
sS'model.firing'
p17
g8
s.