c__builtin__
set
p0
((lp1
S'x'
p2
atp3
Rp4
.(dp0
S'this.x'
p1
S'double'
p2
sS'model.sim'
p3
S'vector'
p4
sS'model.blocktype'
p5
S'string'
p6
sS'model.dep_ut'
p7
g4
sS'gr_i'
p8
g4
sS'model.state'
p9
g2
sS'y'
p10
g4
sS'x0'
p11
g2
sS'typ'
p12
g4
sS'model'
p13
g2
sS'model.firing'
p14
g4
s.