c__builtin__
set
p0
((lp1
S'x'
p2
atp3
Rp4
.(dp0
S'model.sim'
p1
S'vector'
p2
sS'model.blocktype'
p3
S'string'
p4
sS'model.dep_ut'
p5
g2
sS'gr_i'
p6
g2
sS'model.state'
p7
S'double'
p8
sS'y'
p9
g2
sS'x'
p10
g8
sS'x0'
p11
g8
sS'typ'
p12
g2
sS'model'
p13
S'object'
p14
sS'model.firing'
p15
g2
s.