c__builtin__
set
p0
((lp1
S'num'
p2
aS'exprs'
p3
aS'gr_i'
p4
aS'den'
p5
aS'graphics'
p6
aS'x'
p7
aS'model'
p8
atp9
Rp10
.(dp0
S'arg1'
p1
S'object'
p2
sS'graphics'
p3
g2
sS'rpar'
p4
S'matrix'
p5
sS'x.model'
p6
g2
sS'B'
p7
S'double'
p8
sS'model.out'
p9
g8
sS'x0[ns1-1][1-1]'
p10
g8
sS'x.graphics'
p11
g2
sS'ns'
p12
g8
sS'A'
p13
g8
sS'model.sim'
p14
S'list'
p15
sS'C'
p16
g8
sS'PREVAR_scicos_context.s'
p17
g8
sS'nin'
p18
g8
sS'D'
p19
g8
sS'H'
p20
g8
sS'model.rpar'
p21
g5
sS'mmm'
p22
S'vector'
p23
sS'model.state'
p24
g8
sS'model.in'
p25
g8
sS'graphics.exprs'
p26
NsS'x0'
p27
g8
sS'typ'
p28
g23
sS'ok'
p29
S'boolean'
p30
sS'model.blocktype'
p31
S'string'
p32
sS'model.dep_ut'
p33
g23
sS'exprs'
p34
g5
sS'gr_i'
p35
g23
sS'PREVAR_scicos_context'
p36
NsS'y'
p37
g23
sS'x'
p38
g8
sS'model'
p39
g2
sS'nout'
p40
g8
s.