c__builtin__
set
p0
((lp1
S'x'
p2
aS'model'
p3
aS'num'
p4
aS'den'
p5
atp6
Rp7
.(dp0
S'arg1'
p1
S'object'
p2
sS'graphics'
p3
g2
sS'rpar'
p4
S'matrix'
p5
sS'x.model'
p6
g2
sS'B'
p7
S'double'
p8
sS'model.out'
p9
g8
sS'x0[ns1-1][1-1]'
p10
g8
sS'model.in1'
p11
g8
sS'x.graphics'
p12
g2
sS'[ns1,ns1]'
p13
g8
sS'[A,B,C,D]'
p14
S'vector'
p15
sS'ns'
p16
g8
sS'A'
p17
g8
sS'model.sim'
p18
g15
sS'C'
p19
g8
sS'PREVAR_scicos_context.s'
p20
g8
sS'nin'
p21
g8
sS'D'
p22
g8
sS'H'
p23
g8
sS'model.rpar'
p24
g5
sS'mmm'
p25
g15
sS'model.state'
p26
g8
sS'graphics.exprs'
p27
NsS'x0'
p28
g8
sS'typ'
p29
g15
sS'ok'
p30
S'boolean'
p31
sS'model.blocktype'
p32
S'string'
p33
sS'model.dep_ut'
p34
g15
sS'exprs'
p35
g5
sS'gr_i'
p36
g15
sS'PREVAR_scicos_context'
p37
NsS'y'
p38
g15
sS'x'
p39
g8
sS'model'
p40
g2
sS'nout'
p41
g8
s.