c__builtin__
set
p0
((lp1
S'x'
p2
aS'model'
p3
aS'num'
p4
aS'den'
p5
aS'graphics'
p6
atp7
Rp8
.(dp0
S'graphics'
p1
S'object'
p2
sS'rpar'
p3
S'matrix'
p4
sS'x.model'
p5
g2
sS'B'
p6
S'double'
p7
sS'model.out'
p8
g7
sS'x0[ns1-1][1-1]'
p9
g7
sS'x.graphics'
p10
g2
sS'ns'
p11
g7
sS'A'
p12
g7
sS'model.sim'
p13
S'list'
p14
sS'C'
p15
g7
sS'PREVAR_scicos_context.s'
p16
g7
sS'nin'
p17
g7
sS'D'
p18
g7
sS'H'
p19
g7
sS'model.rpar'
p20
g4
sS'mmm'
p21
S'vector_boolean'
p22
sS'model.state'
p23
g7
sS'model.in'
p24
g7
sS'graphics.exprs'
p25
NsS'x0'
p26
g7
sS'typ'
p27
S'vector'
p28
sS'ok'
p29
S'boolean'
p30
sS'model.blocktype'
p31
S'string'
p32
sS'model.dep_ut'
p33
g22
sS'exprs'
p34
g4
sS'gr_i'
p35
g28
sS'PREVAR_scicos_context'
p36
NsS'y'
p37
g28
sS'x'
p38
g28
sS'model'
p39
g2
sS'nout'
p40
g7
s.