c__builtin__
set
p0
((lp1
S'x'
p2
aS'model'
p3
aS'num'
p4
aS'den'
p5
atp6
Rp7
.(dp0
S'arg1'
p1
S'object'
p2
sS'graphics'
p3
g2
sS'rpar'
p4
S'matrix'
p5
sS'x.model'
p6
g2
sS'B'
p7
S'double'
p8
sS'model.out'
p9
g8
sS'x0[ns1-1][1-1]'
p10
g8
sS'model.in1'
p11
g8
sS'x.graphics'
p12
g2
sS'[ns1,ns1]'
p13
g8
sS'[A,B,C,D]'
p14
S'vector'
p15
sS'ns'
p16
g8
sS'A'
p17
g8
sS'model.sim'
p18
S'list'
p19
sS'C'
p20
g8
sS'PREVAR_scicos_context.s'
p21
g8
sS'nin'
p22
g8
sS'D'
p23
g8
sS'H'
p24
g8
sS'model.rpar'
p25
g5
sS'mmm'
p26
g15
sS'model.state'
p27
g8
sS'graphics.exprs'
p28
NsS'x0'
p29
g8
sS'typ'
p30
g15
sS'ok'
p31
S'boolean'
p32
sS'model.blocktype'
p33
S'string'
p34
sS'model.dep_ut'
p35
g15
sS'exprs'
p36
g5
sS'gr_i'
p37
g15
sS'PREVAR_scicos_context'
p38
NsS'y'
p39
g15
sS'x'
p40
g8
sS'model'
p41
g2
sS'nout'
p42
g8
s.