c__builtin__
set
p0
((lp1
S'x'
p2
aS'model'
p3
aS'num'
p4
aS'den'
p5
aS'graphics'
p6
atp7
Rp8
.(dp0
S'arg1'
p1
S'object'
p2
sS'graphics'
p3
g2
sS'rpar'
p4
S'matrix'
p5
sS'x.model'
p6
g2
sS'B'
p7
S'double'
p8
sS'model.out'
p9
g8
sS'x0[ns1-1][1-1]'
p10
g8
sS'x.graphics'
p11
g2
sS'ns'
p12
g8
sS'A'
p13
g8
sS'model.sim'
p14
S'list'
p15
sS'C'
p16
g8
sS'PREVAR_scicos_context.s'
p17
g8
sS'nin'
p18
g8
sS'D'
p19
g8
sS'H'
p20
g8
sS'model.rpar'
p21
g5
sS'mmm'
p22
S'vector_boolean'
p23
sS'model.state'
p24
g8
sS'model.in'
p25
g8
sS'graphics.exprs'
p26
NsS'x0'
p27
g8
sS'typ'
p28
S'vector'
p29
sS'ok'
p30
S'boolean'
p31
sS'model.blocktype'
p32
S'string'
p33
sS'model.dep_ut'
p34
g23
sS'exprs'
p35
g5
sS'gr_i'
p36
g29
sS'PREVAR_scicos_context'
p37
NsS'y'
p38
g29
sS'x'
p39
NsS'model'
p40
g2
sS'nout'
p41
g8
s.