c__builtin__
set
p0
((lp1
S'x'
p2
aS'model'
p3
aS'num'
p4
aS'den'
p5
atp6
Rp7
.(dp0
S'arg1'
p1
S'object'
p2
sS'graphics'
p3
g2
sS'rpar'
p4
S'matrix'
p5
sS'x.model'
p6
g2
sS'B'
p7
S'double'
p8
sS'model.out'
p9
g8
sS'x0[ns1-1][1-1]'
p10
g8
sS'model.in1'
p11
g8
sS'x.graphics'
p12
g2
sS'ns'
p13
g8
sS'A'
p14
g8
sS'model.sim'
p15
S'list'
p16
sS'C'
p17
g8
sS'PREVAR_scicos_context.s'
p18
g8
sS'nin'
p19
g8
sS'D'
p20
g8
sS'H'
p21
g8
sS'model.rpar'
p22
g5
sS'mmm'
p23
S'vector'
p24
sS'model.state'
p25
g8
sS'graphics.exprs'
p26
NsS'x0'
p27
g8
sS'typ'
p28
g24
sS'ok'
p29
S'boolean'
p30
sS'model.blocktype'
p31
S'string'
p32
sS'model.dep_ut'
p33
g24
sS'exprs'
p34
g5
sS'gr_i'
p35
g24
sS'PREVAR_scicos_context'
p36
NsS'y'
p37
g24
sS'x'
p38
g8
sS'model'
p39
g2
sS'nout'
p40
g8
s.