c__builtin__
set
p0
((lp1
S'A'
p2
aS'C'
p3
aS'B'
p4
aS'D'
p5
aS'x'
p6
aS'model'
p7
aS'x0'
p8
atp9
Rp10
.(dp0
S'arg1'
p1
S'object'
p2
sS'graphics'
p3
g2
sS'rpar'
p4
S'matrix'
p5
sS'x.model'
p6
g2
sS'model.out'
p7
S'double'
p8
sS'out'
p9
g8
sS'model.in1'
p10
g8
sS'x.graphics'
p11
g2
sS'A'
p12
g8
sS'model.sim'
p13
S'list'
p14
sS'C'
p15
g8
sS'B'
p16
g8
sS'D'
p17
g8
sS'in1'
p18
g8
sS'model.rpar'
p19
g5
sS'mmm'
p20
S'vector'
p21
sS'model.state'
p22
g8
sS'graphics.exprs'
p23
g8
sS'x0'
p24
g8
sS'typ'
p25
g21
sS'model.blocktype'
p26
S'string'
p27
sS'model.dep_ut'
p28
g21
sS'exprs'
p29
g5
sS'gr_i'
p30
g21
sS'y'
p31
g21
sS'x'
p32
g8
sS'model'
p33
g2
s.