c__builtin__
set
p0
((lp1
S'A'
p2
aS'C'
p3
aS'B'
p4
aS'D'
p5
aS'exprs'
p6
aS'gr_i'
p7
aS'graphics'
p8
aS'x'
p9
aS'model'
p10
aS'x0'
p11
atp12
Rp13
.(dp0
S'arg1'
p1
S'object'
p2
sS'graphics'
p3
g2
sS'rpar'
p4
S'matrix'
p5
sS'x.model'
p6
g2
sS'model.out'
p7
S'double'
p8
sS'out'
p9
g8
sS'x.graphics'
p10
g2
sS'A'
p11
g8
sS'model.sim'
p12
S'list'
p13
sS'C'
p14
g8
sS'B'
p15
g8
sS'D'
p16
g8
sS'in1'
p17
g8
sS'model.rpar'
p18
g5
sS'mmm'
p19
S'vector'
p20
sS'model.state'
p21
g8
sS'model.in'
p22
g8
sS'graphics.exprs'
p23
g8
sS'x0'
p24
g8
sS'typ'
p25
g20
sS'model.blocktype'
p26
S'string'
p27
sS'model.dep_ut'
p28
g20
sS'exprs'
p29
g5
sS'gr_i'
p30
g20
sS'okD'
p31
S'boolean'
p32
sS'y'
p33
g20
sS'x'
p34
NsS'model'
p35
g2
s.