c__builtin__
set
p0
((lp1
S'A'
p2
aS'C'
p3
aS'B'
p4
aS'D'
p5
aS'x'
p6
aS'x0'
p7
atp8
Rp9
.(dp0
S'arg1'
p1
S'object'
p2
sS'graphics'
p3
g2
sS'rpar'
p4
S'matrix'
p5
sS'x.model'
p6
g2
sS'model.dep_ut'
p7
S'vector'
p8
sS'model.out'
p9
S'double'
p10
sS'out'
p11
g10
sS'model.in1'
p12
g10
sS'x.graphics'
p13
g2
sS'A'
p14
g10
sS'model.sim'
p15
g8
sS'C'
p16
g10
sS'B'
p17
g10
sS'D'
p18
g10
sS'in1'
p19
g10
sS'model.rpar'
p20
g5
sS'mmm'
p21
g8
sS'model.state'
p22
g10
sS'graphics.exprs'
p23
g10
sS'x0'
p24
g10
sS'typ'
p25
g8
sS'[model,graphics,ok]'
p26
g10
sS'model.blocktype'
p27
S'string'
p28
sS'[ms,ns]'
p29
g10
sS'exprs'
p30
g5
sS'gr_i'
p31
g8
sS'y'
p32
g8
sS'x'
p33
g10
sS'model'
p34
g2
s.