c__builtin__
set
p0
((lp1
S'A'
p2
aS'C'
p3
aS'B'
p4
aS'D'
p5
aS'x'
p6
aS'x0'
p7
atp8
Rp9
.(dp0
S'arg1'
p1
S'object'
p2
sS'graphics'
p3
g2
sS'rpar'
p4
S'matrix'
p5
sS'model.dep_ut'
p6
S'vector'
p7
sS'this.x.model'
p8
g2
sS'model.out'
p9
S'double'
p10
sS'out'
p11
g10
sS'model.in1'
p12
g10
sS'typ'
p13
g7
sS'this.x'
p14
g10
sS'model.sim'
p15
g7
sS'in1'
p16
g10
sS'model.rpar'
p17
g5
sS'mmm'
p18
g7
sS'model.state'
p19
NsS'graphics.exprs'
p20
g10
sS'this.x.graphics'
p21
g2
sS'this.B'
p22
g10
sS'model.blocktype'
p23
S'string'
p24
sS'[model,graphics,ok]'
p25
g10
sS'this.x0'
p26
g10
sS'[ms,ns]'
p27
g10
sS'exprs'
p28
g5
sS'gr_i'
p29
g7
sS'y'
p30
g7
sS'this.A'
p31
g10
sS'model'
p32
g10
sS'this.C'
p33
g10
sS'this.D'
p34
g10
s.