c__builtin__
set
p0
((lp1
S'A'
p2
aS'C'
p3
aS'B'
p4
aS'D'
p5
aS'x'
p6
aS'x0'
p7
atp8
Rp9
.(dp0
S'arg1'
p1
S'object'
p2
sS'graphics'
p3
g2
sS'rpar'
p4
S'matrix'
p5
sS'[ms,ns]'
p6
S'double'
p7
sS'this.x.model'
p8
g2
sS'model.out'
p9
g7
sS'out'
p10
g7
sS'model.in1'
p11
g7
sS'typ'
p12
S'vector'
p13
sS'this.x'
p14
g7
sS'model.sim'
p15
g13
sS'in1'
p16
g7
sS'model.rpar'
p17
g5
sS'mmm'
p18
g13
sS'model.state'
p19
NsS'graphics.exprs'
p20
g7
sS'this.x.graphics'
p21
g2
sS'this.B'
p22
g7
sS'model.blocktype'
p23
S'string'
p24
sS'[model,graphics,ok]'
p25
g7
sS'this.x0'
p26
g7
sS'model.dep_ut'
p27
g13
sS'exprs'
p28
g5
sS'gr_i'
p29
g13
sS'okD'
p30
S'boolean'
p31
sS'y'
p32
g13
sS'this.A'
p33
g7
sS'model'
p34
g7
sS'this.C'
p35
g7
sS'this.D'
p36
g7
s.