c__builtin__
set
p0
((lp1
S'A'
p2
aS'C'
p3
aS'B'
p4
aS'D'
p5
aS'graphics'
p6
aS'x'
p7
aS'model'
p8
aS'x0'
p9
atp10
Rp11
.(dp0
S'arg1'
p1
S'object'
p2
sS'graphics'
p3
g2
sS'rpar'
p4
S'matrix'
p5
sS'x.model'
p6
g2
sS'model.out'
p7
S'double'
p8
sS'out'
p9
g8
sS'x.graphics'
p10
g2
sS'A'
p11
g8
sS'model.sim'
p12
S'list'
p13
sS'C'
p14
g8
sS'B'
p15
g8
sS'D'
p16
g8
sS'in1'
p17
g8
sS'model.rpar'
p18
g5
sS'mmm'
p19
S'vector_boolean'
p20
sS'model.state'
p21
g8
sS'model.in'
p22
g8
sS'graphics.exprs'
p23
g8
sS'x0'
p24
g8
sS'typ'
p25
S'vector'
p26
sS'model.blocktype'
p27
S'string'
p28
sS'model.dep_ut'
p29
g20
sS'exprs'
p30
g5
sS'gr_i'
p31
g26
sS'y'
p32
g26
sS'x'
p33
NsS'model'
p34
g2
s.