c__builtin__
set
p0
((lp1
S'A'
p2
aS'C'
p3
aS'B'
p4
aS'D'
p5
aS'x'
p6
aS'model'
p7
aS'x0'
p8
atp9
Rp10
.(dp0
S'arg1'
p1
S'object'
p2
sS'graphics'
p3
g2
sS'rpar'
p4
S'matrix'
p5
sS'x.model'
p6
g2
sS'model.dep_ut'
p7
S'vector'
p8
sS'model.out'
p9
S'double'
p10
sS'out'
p11
g10
sS'model.in1'
p12
g10
sS'x.graphics'
p13
g2
sS'A'
p14
g10
sS'model.sim'
p15
S'list'
p16
sS'C'
p17
g10
sS'B'
p18
g10
sS'D'
p19
g10
sS'in1'
p20
g10
sS'model.rpar'
p21
g5
sS'mmm'
p22
g8
sS'model.state'
p23
g10
sS'graphics.exprs'
p24
g10
sS'x0'
p25
g10
sS'typ'
p26
g8
sS'[model,graphics,ok]'
p27
g10
sS'model.blocktype'
p28
S'string'
p29
sS'[ms,ns]'
p30
g10
sS'exprs'
p31
g5
sS'gr_i'
p32
g8
sS'y'
p33
g8
sS'x'
p34
g10
sS'model'
p35
g2
s.