c__builtin__
set
p0
((lp1
S'A'
p2
aS'C'
p3
aS'B'
p4
aS'D'
p5
aS'x'
p6
aS'model'
p7
aS'x0'
p8
atp9
Rp10
.(dp0
S'arg1'
p1
S'object'
p2
sS'graphics'
p3
g2
sS'rpar'
p4
S'matrix'
p5
sS'x.model'
p6
g2
sS'[ms,ns]'
p7
S'double'
p8
sS'model.out'
p9
g8
sS'out'
p10
g8
sS'model.in1'
p11
g8
sS'x.graphics'
p12
g2
sS'A'
p13
g8
sS'model.sim'
p14
S'list'
p15
sS'C'
p16
g8
sS'B'
p17
g8
sS'D'
p18
g8
sS'in1'
p19
g8
sS'model.rpar'
p20
g5
sS'mmm'
p21
S'vector'
p22
sS'model.state'
p23
g8
sS'graphics.exprs'
p24
g8
sS'x0'
p25
g8
sS'typ'
p26
g22
sS'[model,graphics,ok]'
p27
g8
sS'model.blocktype'
p28
S'string'
p29
sS'model.dep_ut'
p30
g22
sS'exprs'
p31
g5
sS'gr_i'
p32
g22
sS'okD'
p33
S'boolean'
p34
sS'y'
p35
g22
sS'x'
p36
g8
sS'model'
p37
g2
s.