c__builtin__
set
p0
((lp1
S'A'
p2
aS'C'
p3
aS'B'
p4
aS'D'
p5
aS'graphics'
p6
aS'x'
p7
aS'model'
p8
aS'x0'
p9
atp10
Rp11
.(dp0
S'graphics'
p1
S'object'
p2
sS'rpar'
p3
S'matrix'
p4
sS'x.model'
p5
g2
sS'model.out'
p6
S'double'
p7
sS'out'
p8
g7
sS'x.graphics'
p9
g2
sS'A'
p10
g7
sS'model.sim'
p11
S'list'
p12
sS'C'
p13
g7
sS'B'
p14
g7
sS'D'
p15
g7
sS'in1'
p16
g7
sS'model.rpar'
p17
g4
sS'mmm'
p18
S'vector_boolean'
p19
sS'model.state'
p20
g7
sS'model.in'
p21
g7
sS'graphics.exprs'
p22
g7
sS'x0'
p23
g7
sS'typ'
p24
S'vector'
p25
sS'model.blocktype'
p26
S'string'
p27
sS'model.dep_ut'
p28
g19
sS'exprs'
p29
g4
sS'gr_i'
p30
g25
sS'y'
p31
g25
sS'x'
p32
g25
sS'model'
p33
g2
s.