c__builtin__
set
p0
((lp1
S'x'
p2
aS'model'
p3
aS'z0'
p4
aS'dt'
p5
aS'graphics'
p6
atp7
Rp8
.(dp0
S'diagram.objs[1-1]'
p1
S'object'
p2
sS'register.graphics.pein'
p3
S'double'
p4
sS'x.gui'
p5
S'string'
p6
sS'split.graphics.orig'
p7
S'matrix'
p8
sS'x.model.out'
p9
g4
sS'split.graphics.pein'
p10
g4
sS'x.graphics.out_style'
p11
g6
sS'evtdly.model.rpar'
p12
g4
sS'diagram.objs[7-1]'
p13
g4
sS'x.graphics.in_implicit'
p14
S'vector_string'
p15
sS'diagram.objs[5-1]'
p16
g4
sS'evtdly.graphics'
p17
g2
sS'input_port.graphics.flip'
p18
S'boolean'
p19
sS'needcompile'
p20
g4
sS'newpar'
p21
S'list'
p22
sS'evtdly'
p23
g2
sS'x.graphics.out_implicit'
p24
g15
sS'model.rpar'
p25
g2
sS'ppath[1-1]'
p26
NsS'output_port.graphics.sz'
p27
S'vector'
p28
sS'register.graphics.pout'
p29
g4
sS'output_port'
p30
g2
sS'input_port.graphics.pout'
p31
g4
sS'evtdly.model.firing'
p32
g4
sS'x.graphics.sz'
p33
g28
sS'output_port.graphics.pin'
p34
g4
sS'x'
p35
g4
sS'evtdly.model'
p36
g2
sS'diagram.objs[9-1]'
p37
g4
sS'evtdly.graphics.sz'
p38
g28
sS'register.graphics.sz'
p39
g28
sS'x.graphics.in_style'
p40
g6
sS'output_port.model.ipar'
p41
g4
sS'evtdly_exprs'
p42
NsS'input_port.graphics.sz'
p43
g28
sS'register.model'
p44
g2
sS'diagram.objs[2-1]'
p45
g2
sS'diagram.objs[4-1]'
p46
g2
sS'diagram.objs[10-1]'
p47
g4
sS'evtdly.graphics.exprs'
p48
g8
sS'ok'
p49
g19
sS'x.model.in'
p50
g4
sS'input_port'
p51
g2
sS'evtdly.graphics.orig'
p52
g28
sS'output_port.graphics.exprs'
p53
g8
sS'ppath'
p54
g22
sS'output_port.graphics.flip'
p55
g19
sS'x.model'
p56
g2
sS'x.model.rpar'
p57
g4
sS'x.model.rpar.objs[ppath[2-1]-1]'
p58
g2
sS'evtdly.graphics.exprs[1-1]'
p59
g4
sS'x.graphics.gr_i'
p60
g28
sS'x.model.blocktype'
p61
g6
sS'register.graphics.orig'
p62
g28
sS'input_port.graphics.orig'
p63
g28
sS'input_port.graphics.exprs'
p64
g8
sS'input_port.model.ipar'
p65
g4
sS'x.model.rpar.objs[ppath[1-1]-1]'
p66
g2
sS'x.model.sim'
p67
g6
sS'evtdly.graphics.peout'
p68
g4
sS'register.model.dstate'
p69
g28
sS'split.graphics.peout'
p70
g8
sS'x.model.dep_ut'
p71
S'vector_boolean'
p72
sS'o'
p73
g2
sS'evtdly.graphics.pein'
p74
g4
sS'diagram.objs[3-1]'
p75
g2
sS'evtdly.graphics.flip'
p76
g19
sS'register.graphics.pin'
p77
g4
sS'ppath[2-1]'
p78
NsS'diagram.objs[6-1]'
p79
g4
sS'split'
p80
g2
sS'register_exprs'
p81
NsS'diagram.objs[8-1]'
p82
g2
sS'mess'
p83
g8
sS'diagram'
p84
g4
sS'y'
p85
g4
sS'newpar[$+1-1]'
p86
g4
sS'register.graphics'
p87
g2
sS'typ'
p88
g22
sS'register.graphics.exprs'
p89
g6
sS'x.graphics.pout'
p90
g4
sS'register'
p91
g2
sS'exprs'
p92
g8
sS'output_port.graphics.orig'
p93
g28
sS'x.graphics.pin'
p94
g4
sS'model'
p95
g2
sS'register.graphics.flip'
p96
g19
s.