c__builtin__
set
p0
((lp1
S'nin'
p2
aS'zz0'
p3
aS'T'
p4
aS'graphics'
p5
aS'x'
p6
aS'model'
p7
atp8
Rp9
.(dp0
S'model.dstate'
p1
S'double'
p2
sS'arg1'
p3
S'object'
p4
sS'graphics'
p5
g4
sS'zz0'
p6
S'vector'
p7
sS'x.model'
p8
g4
sS'model.out'
p9
g2
sS'model.in1'
p10
S'matrix'
p11
sS'x.graphics'
p12
g4
sS'typ'
p13
g7
sS'model.evtin'
p14
g2
sS'model.firing'
p15
g7
sS'told'
p16
g2
sS'model.sim'
p17
S'list'
p18
sS'model.evtout'
p19
g11
sS'nin'
p20
g2
sS'model.rpar'
p21
g2
sS'T'
p22
g2
sS'graphics.exprs'
p23
NsS'z0'
p24
g2
sS'ok'
p25
S'boolean'
p26
sS'model.blocktype'
p27
S'string'
p28
sS'model.dep_ut'
p29
g7
sS'exprs'
p30
g11
sS'gr_i'
p31
g7
sS'y'
p32
g7
sS'x'
p33
g2
sS'model'
p34
g4
s.