c__builtin__
set
p0
((lp1
S'nin'
p2
aS'zz0'
p3
aS'exprs'
p4
aS'gr_i'
p5
aS'T'
p6
aS'graphics'
p7
aS'x'
p8
aS'model'
p9
atp10
Rp11
.(dp0
S'model.dstate'
p1
S'double'
p2
sS'arg1'
p3
S'object'
p4
sS'graphics'
p5
g4
sS'zz0'
p6
S'vector'
p7
sS'x.model'
p8
g4
sS'model.out'
p9
g2
sS'x.graphics'
p10
g4
sS'typ'
p11
g7
sS'model.evtin'
p12
g2
sS'model.firing'
p13
g7
sS'told'
p14
g2
sS'model.sim'
p15
S'list'
p16
sS'model.evtout'
p17
S'matrix'
p18
sS'nin'
p19
g2
sS'model.rpar'
p20
g2
sS'T'
p21
g2
sS'model.in'
p22
g18
sS'graphics.exprs'
p23
NsS'z0'
p24
g2
sS'ok'
p25
S'boolean'
p26
sS'model.blocktype'
p27
S'string'
p28
sS'model.dep_ut'
p29
g7
sS'exprs'
p30
g18
sS'gr_i'
p31
g7
sS'y'
p32
g7
sS'x'
p33
NsS'model'
p34
g4
s.