c__builtin__
set
p0
((lp1
S'x'
p2
aS'nin'
p3
aS'T'
p4
aS'zz0'
p5
atp6
Rp7
.(dp0
S'model.dstate'
p1
S'double'
p2
sS'arg1'
p3
S'object'
p4
sS'graphics'
p5
g4
sS'typ'
p6
S'vector'
p7
sS'zz0'
p8
g7
sS'this.x.model'
p9
g4
sS'model.out'
p10
g2
sS'this.zz0'
p11
g7
sS'model.in1'
p12
S'matrix'
p13
sS'z0'
p14
g2
sS'model.evtin'
p15
g2
sS'model.firing'
p16
g7
sS'told'
p17
g2
sS'this.x'
p18
g2
sS'model.sim'
p19
g7
sS'model.evtout'
p20
g13
sS'nin'
p21
g2
sS'model.rpar'
p22
S'string'
p23
sS'graphics.exprs'
p24
NsS'this.x.graphics'
p25
g4
sS'[model,graphics,ok]'
p26
g2
sS'ok'
p27
S'boolean'
p28
sS'model.blocktype'
p29
g23
sS'this.T'
p30
g2
sS'this.nin'
p31
g2
sS'model.dep_ut'
p32
g7
sS'exprs'
p33
g13
sS'gr_i'
p34
g7
sS'y'
p35
g7
sS'model'
p36
g4
s.