c__builtin__
set
p0
((lp1
S'x'
p2
aS'model'
p3
aS'z0'
p4
aS'dt'
p5
aS'graphics'
p6
atp7
Rp8
.(dp0
S'diagram.objs[1-1]'
p1
S'object'
p2
sS'register.graphics.pein'
p3
S'double'
p4
sS'x.gui'
p5
S'string'
p6
sS'split.graphics.orig'
p7
S'matrix'
p8
sS'x.model.out'
p9
g4
sS'split.graphics.pein'
p10
g4
sS'x.graphics.out_style'
p11
g6
sS'evtdly.model.rpar'
p12
g4
sS'diagram.objs[7-1]'
p13
g4
sS'x.graphics.in_implicit'
p14
S'vector_string'
p15
sS'diagram.objs[5-1]'
p16
g4
sS'evtdly.graphics'
p17
g2
sS'input_port.graphics.flip'
p18
S'boolean'
p19
sS'needcompile'
p20
g4
sS'newpar'
p21
S'list'
p22
sS'evtdly'
p23
g2
sS'x.graphics.out_implicit'
p24
g15
sS'ppath[1-1]'
p25
NsS'output_port.graphics.sz'
p26
S'vector'
p27
sS'register.graphics.pout'
p28
g4
sS'output_port'
p29
g2
sS'arg1.model'
p30
g2
sS'input_port.graphics.pout'
p31
g4
sS'evtdly.model.firing'
p32
g4
sS'x.graphics.sz'
p33
g27
sS'output_port.graphics.pin'
p34
g4
sS'x'
p35
g4
sS'arg1.model.rpar'
p36
g2
sS'evtdly.model'
p37
g2
sS'arg1'
p38
g2
sS'evtdly.graphics.sz'
p39
g27
sS'register.graphics.sz'
p40
g27
sS'x.graphics.in_style'
p41
g6
sS'output_port.model.ipar'
p42
g4
sS'evtdly_exprs'
p43
NsS'input_port.graphics.sz'
p44
g27
sS'register.model'
p45
g2
sS'diagram.objs[2-1]'
p46
g2
sS'diagram.objs[4-1]'
p47
g2
sS'diagram.objs[10-1]'
p48
g4
sS'evtdly.graphics.exprs'
p49
g8
sS'ok'
p50
g19
sS'x.model.in'
p51
g4
sS'input_port'
p52
g2
sS'evtdly.graphics.orig'
p53
g27
sS'output_port.graphics.exprs'
p54
g8
sS'ppath'
p55
g22
sS'output_port.graphics.flip'
p56
g19
sS'x.model'
p57
g2
sS'x.model.rpar'
p58
g4
sS'x.model.rpar.objs[ppath[2-1]-1]'
p59
g2
sS'evtdly.graphics.exprs[1-1]'
p60
g4
sS'x.graphics.gr_i'
p61
g27
sS'x.model.blocktype'
p62
g6
sS'register.graphics.orig'
p63
g27
sS'diagram.objs[9-1]'
p64
g4
sS'input_port.graphics.orig'
p65
g27
sS'input_port.graphics.exprs'
p66
g8
sS'input_port.model.ipar'
p67
g4
sS'x.model.rpar.objs[ppath[1-1]-1]'
p68
g2
sS'x.model.sim'
p69
g6
sS'evtdly.graphics.peout'
p70
g4
sS'register.model.dstate'
p71
g27
sS'split.graphics.peout'
p72
g8
sS'x.model.dep_ut'
p73
S'vector_boolean'
p74
sS'o'
p75
g2
sS'evtdly.graphics.pein'
p76
g4
sS'diagram.objs[3-1]'
p77
g2
sS'evtdly.graphics.flip'
p78
g19
sS'register.graphics.pin'
p79
g4
sS'ppath[2-1]'
p80
NsS'diagram.objs[6-1]'
p81
g4
sS'split'
p82
g2
sS'register_exprs'
p83
NsS'diagram.objs[8-1]'
p84
g2
sS'mess'
p85
g8
sS'diagram'
p86
g4
sS'y'
p87
g4
sS'newpar[$+1-1]'
p88
g4
sS'register.graphics'
p89
g2
sS'typ'
p90
g22
sS'register.graphics.exprs'
p91
g6
sS'x.graphics.pout'
p92
g4
sS'register'
p93
g2
sS'exprs'
p94
g8
sS'output_port.graphics.orig'
p95
g27
sS'x.graphics.pin'
p96
g4
sS'register.graphics.flip'
p97
g19
s.