c__builtin__
set
p0
((lp1
S'exprs'
p2
aS'gr_i'
p3
aS'graphics'
p4
aS'x'
p5
aS'model'
p6
aS'z0'
p7
aS'dt'
p8
atp9
Rp10
.(dp0
S'diagram.objs[1-1]'
p1
S'object'
p2
sS'register.graphics.pein'
p3
S'double'
p4
sS'x.gui'
p5
S'string'
p6
sS'split.graphics.orig'
p7
S'matrix'
p8
sS'x.model.out'
p9
g4
sS'split.graphics.pein'
p10
g4
sS'x.graphics.out_style'
p11
g6
sS'evtdly.model.rpar'
p12
g4
sS'diagram.objs[7-1]'
p13
g4
sS'x.graphics.in_implicit'
p14
S'vector'
p15
sS'diagram.objs[5-1]'
p16
g4
sS'evtdly.graphics'
p17
g2
sS'input_port.graphics.flip'
p18
S'boolean'
p19
sS'needcompile'
p20
g4
sS'newpar'
p21
S'list'
p22
sS'evtdly'
p23
g2
sS'x.graphics.out_implicit'
p24
g15
sS'ppath[1-1]'
p25
NsS'output_port.graphics.sz'
p26
g15
sS'register.graphics.pout'
p27
g4
sS'output_port'
p28
g2
sS'arg1.model'
p29
g2
sS'input_port.graphics.pout'
p30
g4
sS'evtdly.model.firing'
p31
g4
sS'x.graphics.sz'
p32
g15
sS'output_port.graphics.pin'
p33
g4
sS'x'
p34
g4
sS'arg1.model.rpar'
p35
g2
sS'evtdly.model'
p36
g2
sS'arg1'
p37
g2
sS'evtdly.graphics.sz'
p38
g15
sS'register.graphics.sz'
p39
g15
sS'x.graphics.in_style'
p40
g6
sS'output_port.model.ipar'
p41
g4
sS'evtdly_exprs'
p42
NsS'input_port.graphics.sz'
p43
g15
sS'register.model'
p44
g2
sS'diagram.objs[2-1]'
p45
g2
sS'diagram.objs[4-1]'
p46
g2
sS'diagram.objs[10-1]'
p47
g4
sS'evtdly.graphics.exprs'
p48
g8
sS'ok'
p49
g19
sS'x.model.in'
p50
g4
sS'input_port'
p51
g2
sS'evtdly.graphics.orig'
p52
g15
sS'output_port.graphics.exprs'
p53
g8
sS'ppath'
p54
g22
sS'output_port.graphics.flip'
p55
g19
sS'x.model'
p56
g2
sS'x.model.rpar'
p57
g4
sS'x.model.rpar.objs[ppath[2-1]-1]'
p58
g2
sS'evtdly.graphics.exprs[1-1]'
p59
g4
sS'x.graphics.gr_i'
p60
g15
sS'x.model.blocktype'
p61
g6
sS'register.graphics.orig'
p62
g15
sS'diagram.objs[9-1]'
p63
g4
sS'input_port.graphics.orig'
p64
g15
sS'input_port.graphics.exprs'
p65
g8
sS'input_port.model.ipar'
p66
g4
sS'x.model.rpar.objs[ppath[1-1]-1]'
p67
g2
sS'x.model.sim'
p68
g6
sS'evtdly.graphics.peout'
p69
g4
sS'register.model.dstate'
p70
g15
sS'split.graphics.peout'
p71
g8
sS'x.model.dep_ut'
p72
S'vector_boolean'
p73
sS'o'
p74
g2
sS'evtdly.graphics.pein'
p75
g4
sS'diagram.objs[3-1]'
p76
g2
sS'evtdly.graphics.flip'
p77
g19
sS'register.graphics.pin'
p78
g4
sS'ppath[2-1]'
p79
NsS'diagram.objs[6-1]'
p80
g4
sS'split'
p81
g2
sS'register_exprs'
p82
NsS'diagram.objs[8-1]'
p83
g2
sS'mess'
p84
g8
sS'diagram'
p85
g4
sS'y'
p86
g4
sS'newpar[$+1-1]'
p87
g4
sS'register.graphics'
p88
g2
sS'typ'
p89
g22
sS'register.graphics.exprs'
p90
g6
sS'x.graphics.pout'
p91
g4
sS'register'
p92
g2
sS'exprs'
p93
g8
sS'output_port.graphics.orig'
p94
g15
sS'x.graphics.pin'
p95
g4
sS'register.graphics.flip'
p96
g19
s.