c__builtin__
set
p0
((lp1
S'x'
p2
aS'dt'
p3
aS'z0'
p4
atp5
Rp6
.(dp0
S'diagram.objs[1-1]'
p1
S'object'
p2
sS'register.graphics.pein'
p3
S'double'
p4
sS'x.gui'
p5
S'string'
p6
sS'split.graphics.orig'
p7
S'matrix'
p8
sS'x.model.out'
p9
g4
sS'split.graphics.pein'
p10
g4
sS'x.graphics.out_style'
p11
g6
sS'evtdly.model.rpar'
p12
g4
sS'diagram.objs[7-1]'
p13
g4
sS'x.graphics.in_implicit'
p14
S'vector'
p15
sS'diagram.objs[5-1]'
p16
g4
sS'evtdly.graphics'
p17
g2
sS'input_port.graphics.flip'
p18
S'boolean'
p19
sS'needcompile'
p20
g4
sS'newpar'
p21
g15
sS'evtdly'
p22
g2
sS'x.graphics.out_implicit'
p23
g15
sS'ppath[1-1]'
p24
NsS'output_port.graphics.sz'
p25
g15
sS'register.graphics.pout'
p26
g4
sS'output_port'
p27
g2
sS'arg1.model'
p28
g2
sS'input_port.graphics.pout'
p29
g4
sS'evtdly.model.firing'
p30
g4
sS'x.graphics.sz'
p31
g15
sS'output_port.graphics.pin'
p32
g4
sS'x'
p33
g4
sS'arg1.model.rpar'
p34
g2
sS'evtdly.model'
p35
g2
sS'arg1'
p36
g2
sS'x.model.in1'
p37
g4
sS'evtdly.graphics.sz'
p38
g15
sS'register.graphics.sz'
p39
g15
sS'x.graphics.in_style'
p40
g6
sS'output_port.model.ipar'
p41
g4
sS'evtdly_exprs'
p42
NsS'input_port.graphics.sz'
p43
g15
sS'register.model'
p44
g2
sS'diagram.objs[2-1]'
p45
g2
sS'diagram.objs[4-1]'
p46
g2
sS'diagram.objs[10-1]'
p47
g4
sS'evtdly.graphics.exprs'
p48
g8
sS'ok'
p49
g19
sS'input_port'
p50
g2
sS'evtdly.graphics.orig'
p51
g15
sS'output_port.graphics.exprs'
p52
g8
sS'ppath'
p53
g15
sS'output_port.graphics.flip'
p54
g19
sS'x.model'
p55
g2
sS'x.model.rpar'
p56
g4
sS'x.model.rpar.objs[ppath[2-1]-1]'
p57
g2
sS'evtdly.graphics.exprs[1-1]'
p58
g4
sS'x.graphics.gr_i'
p59
g15
sS'x.model.blocktype'
p60
g6
sS'register.graphics.orig'
p61
g15
sS'diagram.objs[9-1]'
p62
g4
sS'input_port.graphics.orig'
p63
g15
sS'input_port.graphics.exprs'
p64
g8
sS'input_port.model.ipar'
p65
g4
sS'x.model.rpar.objs[ppath[1-1]-1]'
p66
g2
sS'x.model.sim'
p67
g6
sS'evtdly.graphics.peout'
p68
g4
sS'register.model.dstate'
p69
g15
sS'split.graphics.peout'
p70
g8
sS'x.model.dep_ut'
p71
g15
sS'o'
p72
g2
sS'evtdly.graphics.pein'
p73
g4
sS'diagram.objs[3-1]'
p74
g2
sS'evtdly.graphics.flip'
p75
g19
sS'register.graphics.pin'
p76
g4
sS'ppath[2-1]'
p77
NsS'diagram.objs[6-1]'
p78
g4
sS'split'
p79
g2
sS'register_exprs'
p80
NsS'diagram.objs[8-1]'
p81
g2
sS'mess'
p82
g8
sS'diagram'
p83
g4
sS'y'
p84
g4
sS'newpar[$+1-1]'
p85
g4
sS'register.graphics'
p86
g2
sS'typ'
p87
g15
sS'register.graphics.exprs'
p88
g6
sS'x.graphics.pout'
p89
g4
sS'register'
p90
g2
sS'exprs'
p91
g8
sS'output_port.graphics.orig'
p92
g15
sS'x.graphics.pin'
p93
g4
sS'register.graphics.flip'
p94
g19
s.