c__builtin__
set
p0
((lp1
S'x'
p2
aS'model'
p3
aS'nin'
p4
aS'T'
p5
aS'zz0'
p6
atp7
Rp8
.(dp0
S'model.dstate'
p1
S'double'
p2
sS'arg1'
p3
S'object'
p4
sS'graphics'
p5
g4
sS'zz0'
p6
S'vector'
p7
sS'x.model'
p8
g4
sS'model.out'
p9
g2
sS'model.in1'
p10
S'matrix'
p11
sS'x.graphics'
p12
g4
sS'typ'
p13
g7
sS'model.evtin'
p14
g2
sS'model.firing'
p15
g7
sS'told'
p16
g2
sS'model.sim'
p17
S'list'
p18
sS'model.evtout'
p19
g11
sS'nin'
p20
g2
sS'[this.model,graphics,ok]'
p21
g18
sS'model.rpar'
p22
g2
sS'T'
p23
g2
sS'graphics.exprs'
p24
NsS'z0'
p25
g2
sS'ok'
p26
S'boolean'
p27
sS'model.blocktype'
p28
S'string'
p29
sS'model.dep_ut'
p30
g7
sS'exprs'
p31
g11
sS'gr_i'
p32
g7
sS'y'
p33
g7
sS'x'
p34
g2
sS'model'
p35
g4
s.