c__builtin__
set
p0
((lp1
S'x'
p2
aS'dt'
p3
aS'z0'
p4
atp5
Rp6
.(dp0
S'diagram.objs[1-1]'
p1
S'double'
p2
sS'register.graphics.pein'
p3
g2
sS'split.graphics.orig'
p4
S'matrix'
p5
sS'split.graphics.pein'
p6
g2
sS'evtdly.model.rpar'
p7
g2
sS'diagram.objs[7-1]'
p8
g2
sS'diagram.objs[5-1]'
p9
g2
sS'evtdly.graphics'
p10
S'object'
p11
sS'input_port.graphics.flip'
p12
S'boolean'
p13
sS'this.x.graphics.sz'
p14
S'vector'
p15
sS'needcompile'
p16
g2
sS'newpar'
p17
g15
sS'evtdly'
p18
g2
sS'arg1.model'
p19
g11
sS'ppath[1-1]'
p20
NsS'this.x.model.dep_ut'
p21
g15
sS'output_port.graphics.sz'
p22
g15
sS'this.x.model.in1'
p23
g2
sS'register.graphics.pout'
p24
g2
sS'output_port'
p25
g2
sS'this.x.model.rpar.objs[ppath[1-1]-1]'
p26
g11
sS'input_port.graphics.pout'
p27
g2
sS'evtdly.model.firing'
p28
g2
sS'output_port.graphics.pin'
p29
g2
sS'this.x.model.sim'
p30
S'string'
p31
sS'x'
p32
g11
sS'arg1.model.rpar'
p33
g11
sS'this.x.model.rpar'
p34
g2
sS'evtdly.model'
p35
g11
sS'arg1'
p36
g11
sS'evtdly.graphics.sz'
p37
g15
sS'register.graphics.sz'
p38
g15
sS'output_port.model.ipar'
p39
g2
sS'evtdly_exprs'
p40
NsS'input_port.graphics.sz'
p41
g15
sS'register.model'
p42
g11
sS'diagram.objs[2-1]'
p43
g2
sS'diagram.objs[4-1]'
p44
g2
sS'diagram.objs[10-1]'
p45
g2
sS'evtdly.graphics.exprs'
p46
g5
sS'ok'
p47
g13
sS'input_port'
p48
g2
sS'evtdly.graphics.orig'
p49
g15
sS'newpar[$+1-1]'
p50
g2
sS'output_port.graphics.exprs'
p51
g5
sS'ppath'
p52
g15
sS'output_port.graphics.flip'
p53
g13
sS'x.model'
p54
g11
sS'x.model.rpar'
p55
g11
sS'this.x.graphics.out_style'
p56
g31
sS'evtdly.graphics.exprs[1-1]'
p57
g2
sS'this.x.graphics.out_implicit'
p58
g15
sS'register.graphics.orig'
p59
g15
sS'diagram.objs[9-1]'
p60
g2
sS'input_port.graphics.orig'
p61
g15
sS'input_port.graphics.exprs'
p62
g5
sS'this.x.gui'
p63
g31
sS'input_port.model.ipar'
p64
g2
sS'this.x.model.blocktype'
p65
g31
sS'this.x.graphics.in_style'
p66
g31
sS'diagram.objs[8-1]'
p67
g2
sS'evtdly.graphics.peout'
p68
g2
sS'this.x.model.out'
p69
g2
sS'register.model.dstate'
p70
g15
sS'this.x.model.rpar.objs[ppath[2-1]-1]'
p71
g11
sS'split.graphics.peout'
p72
g5
sS'o'
p73
g11
sS'evtdly.graphics.pein'
p74
g2
sS'diagram.objs[3-1]'
p75
g2
sS'evtdly.graphics.flip'
p76
g13
sS'register.graphics.pin'
p77
g2
sS'ppath[2-1]'
p78
NsS'diagram.objs[6-1]'
p79
g2
sS'split'
p80
g2
sS'register_exprs'
p81
NsS'this.x.graphics.pin'
p82
g2
sS'mess'
p83
g5
sS'this.x.graphics.pout'
p84
g2
sS'diagram'
p85
g2
sS'this.x.graphics.gr_i'
p86
g15
sS'register.graphics'
p87
g11
sS'typ'
p88
g15
sS'this.x.graphics.in_implicit'
p89
g15
sS'register.graphics.exprs'
p90
g31
sS'register'
p91
g2
sS'this.x'
p92
g2
sS'exprs'
p93
g5
sS'output_port.graphics.orig'
p94
g15
sS'y'
p95
g2
sS'register.graphics.flip'
p96
g13
s.