c__builtin__
set
p0
((lp1
S'nin'
p2
aS'zz0'
p3
aS'T'
p4
aS'graphics'
p5
aS'x'
p6
aS'model'
p7
atp8
Rp9
.(dp0
S'model.dstate'
p1
S'double'
p2
sS'graphics'
p3
S'object'
p4
sS'zz0'
p5
S'vector'
p6
sS'x.model'
p7
g4
sS'model.out'
p8
g2
sS'x.graphics'
p9
g4
sS'typ'
p10
g6
sS'model.evtin'
p11
g2
sS'model.firing'
p12
g6
sS'told'
p13
g2
sS'model.sim'
p14
S'list'
p15
sS'model.evtout'
p16
S'matrix'
p17
sS'nin'
p18
g2
sS'model.rpar'
p19
g2
sS'T'
p20
g2
sS'model.in'
p21
g17
sS'graphics.exprs'
p22
NsS'z0'
p23
g2
sS'ok'
p24
S'boolean'
p25
sS'model.blocktype'
p26
S'string'
p27
sS'model.dep_ut'
p28
S'vector_boolean'
p29
sS'exprs'
p30
g17
sS'gr_i'
p31
g6
sS'y'
p32
g6
sS'x'
p33
g6
sS'model'
p34
g4
s.