c__builtin__
set
p0
((lp1
S'x'
p2
aS'model'
p3
aS'graphics'
p4
atp5
Rp6
.(dp0
S'model.sim'
p1
S'list'
p2
sS'model.blocktype'
p3
S'string'
p4
sS'exprs'
p5
S'vector'
p6
sS'model.dep_ut'
p7
S'vector_boolean'
p8
sS'model.out'
p9
S'double'
p10
sS'gr_i'
p11
g6
sS'model.in'
p12
g10
sS'y'
p13
g6
sS'x'
p14
g6
sS'model'
p15
S'object'
p16
sS'typ'
p17
g6
s.