c__builtin__
set
p0
((lp1
S'x'
p2
aS'model'
p3
aS'gr_i'
p4
aS'exprs'
p5
aS'graphics'
p6
atp7
Rp8
.(dp0
S'model.sim'
p1
S'list'
p2
sS'model.blocktype'
p3
S'string'
p4
sS'exprs'
p5
S'vector'
p6
sS'model.dep_ut'
p7
g6
sS'model.out'
p8
S'double'
p9
sS'gr_i'
p10
g6
sS'model.in'
p11
g9
sS'y'
p12
g6
sS'x'
p13
g9
sS'model'
p14
S'object'
p15
sS'typ'
p16
g6
s.