c__builtin__
set
p0
((lp1
S'x'
p2
aS'x0'
p3
aS'xd0'
p4
atp5
Rp6
.(dp0
S'arg1'
p1
S'object'
p2
sS'graphics'
p3
g2
sS'this.x.model'
p4
NsS'model.out'
p5
S'double'
p6
sS'this.xd0'
p7
S'vector'
p8
sS'model.in1'
p9
g6
sS'this.x.model.firing'
p10
g8
sS'typ'
p11
g8
sS'this.x'
p12
g6
sS'model.sim'
p13
g8
sS'N'
p14
g6
sS'Nxd'
p15
g6
sS'model.state'
p16
NsS'graphics.exprs'
p17
NsS'this.x.graphics'
p18
g2
sS'model.blocktype'
p19
S'string'
p20
sS'this.x0'
p21
S'matrix'
p22
sS'model.dep_ut'
p23
g8
sS'exprs'
p24
g22
sS'gr_i'
p25
g8
sS'ask_again'
p26
S'boolean'
p27
sS'y'
p28
g8
sS'model'
p29
g2
s.