c__builtin__
set
p0
((lp1
S'xd0'
p2
aS'exprs'
p3
aS'gr_i'
p4
aS'graphics'
p5
aS'x'
p6
aS'model'
p7
aS'x0'
p8
atp9
Rp10
.(dp0
S'arg1'
p1
S'object'
p2
sS'graphics'
p3
g2
sS'x.model'
p4
NsS'xd0'
p5
S'vector'
p6
sS'model.out'
p7
S'double'
p8
sS'x.model.firing'
p9
g6
sS'x.graphics'
p10
g2
sS'model.sim'
p11
S'list'
p12
sS'N'
p13
g8
sS'Nxd'
p14
g8
sS'model.state'
p15
S'matrix'
p16
sS'model.in'
p17
g8
sS'graphics.exprs'
p18
NsS'x0'
p19
g16
sS'typ'
p20
g6
sS'model.blocktype'
p21
S'string'
p22
sS'model.dep_ut'
p23
g6
sS'exprs'
p24
g16
sS'gr_i'
p25
g6
sS'ask_again'
p26
S'boolean'
p27
sS'y'
p28
g6
sS'x'
p29
g8
sS'model'
p30
g2
s.