c__builtin__
set
p0
((lp1
S'x'
p2
aS'model'
p3
aS'x0'
p4
aS'xd0'
p5
atp6
Rp7
.(dp0
S'arg1'
p1
S'object'
p2
sS'graphics'
p3
g2
sS'x.model'
p4
NsS'xd0'
p5
S'vector'
p6
sS'model.out'
p7
S'double'
p8
sS'model.in1'
p9
g8
sS'x.model.firing'
p10
g6
sS'x.graphics'
p11
g2
sS'model.sim'
p12
g6
sS'N'
p13
g8
sS'Nxd'
p14
g8
sS'model.state'
p15
S'matrix'
p16
sS'graphics.exprs'
p17
NsS'x0'
p18
g16
sS'typ'
p19
g6
sS'model.blocktype'
p20
S'string'
p21
sS'model.dep_ut'
p22
g6
sS'exprs'
p23
g16
sS'gr_i'
p24
g6
sS'ask_again'
p25
S'boolean'
p26
sS'y'
p27
g6
sS'x'
p28
g8
sS'model'
p29
g2
s.