c__builtin__
set
p0
((lp1
S'x'
p2
aS'model'
p3
aS'xd0'
p4
aS'x0'
p5
aS'graphics'
p6
atp7
Rp8
.(dp0
S'graphics.exprs'
p1
NsS'x.model'
p2
NsS'xd0'
p3
S'vector'
p4
sS'model.out'
p5
S'double'
p6
sS'x.model.firing'
p7
g4
sS'x.graphics'
p8
S'object'
p9
sS'model.sim'
p10
S'list'
p11
sS'N'
p12
g6
sS'Nxd'
p13
g6
sS'model.state'
p14
S'matrix'
p15
sS'model.in'
p16
g6
sS'graphics'
p17
g9
sS'x0'
p18
g15
sS'typ'
p19
g4
sS'model.blocktype'
p20
S'string'
p21
sS'model.dep_ut'
p22
S'vector_boolean'
p23
sS'exprs'
p24
g15
sS'gr_i'
p25
g4
sS'ask_again'
p26
S'boolean'
p27
sS'y'
p28
g4
sS'x'
p29
g4
sS'model'
p30
g9
s.