c__builtin__
set
p0
((lp1
S'x'
p2
aS'model'
p3
aS'x0'
p4
aS'xd0'
p5
atp6
Rp7
.(dp0
S'arg1'
p1
S'object'
p2
sS'graphics'
p3
g2
sS'x.model'
p4
NsS'xd0'
p5
S'vector'
p6
sS'model.out'
p7
S'double'
p8
sS'model.in1'
p9
g8
sS'x.model.firing'
p10
g6
sS'x.graphics'
p11
g2
sS'model.sim'
p12
S'list'
p13
sS'N'
p14
g8
sS'Nxd'
p15
g8
sS'model.state'
p16
S'matrix'
p17
sS'graphics.exprs'
p18
NsS'x0'
p19
g17
sS'typ'
p20
g6
sS'model.blocktype'
p21
S'string'
p22
sS'model.dep_ut'
p23
g6
sS'exprs'
p24
g17
sS'gr_i'
p25
g6
sS'ask_again'
p26
S'boolean'
p27
sS'y'
p28
g6
sS'x'
p29
g8
sS'model'
p30
g2
s.