c__builtin__
set
p0
((lp1
S'x'
p2
aS'model'
p3
aS'xd0'
p4
aS'x0'
p5
aS'graphics'
p6
atp7
Rp8
.(dp0
S'arg1'
p1
S'object'
p2
sS'graphics'
p3
g2
sS'x.model'
p4
NsS'xd0'
p5
S'vector'
p6
sS'model.out'
p7
S'double'
p8
sS'x.model.firing'
p9
g6
sS'x.graphics'
p10
g2
sS'model.sim'
p11
S'list'
p12
sS'N'
p13
g8
sS'Nxd'
p14
g8
sS'model.state'
p15
S'matrix'
p16
sS'model.in'
p17
g8
sS'graphics.exprs'
p18
NsS'x0'
p19
g16
sS'typ'
p20
g6
sS'model.blocktype'
p21
S'string'
p22
sS'model.dep_ut'
p23
S'vector_boolean'
p24
sS'exprs'
p25
g16
sS'gr_i'
p26
g6
sS'ask_again'
p27
S'boolean'
p28
sS'y'
p29
g6
sS'x'
p30
NsS'model'
p31
g2
s.