c__builtin__
set
p0
((lp1
S'x'
p2
aS'num'
p3
aS'den'
p4
atp5
Rp6
.(dp0
S'model.dstate'
p1
S'vector'
p2
sS'arg1'
p3
S'object'
p4
sS'graphics'
p5
g4
sS'rpar'
p6
S'matrix'
p7
sS'x.model'
p8
g4
sS'model.out'
p9
S'double'
p10
sS'x0[ns1-1][1-1]'
p11
g10
sS'model.in1'
p12
g10
sS'x.model.firing'
p13
g2
sS'x.graphics'
p14
g4
sS'[ns1,ns1]'
p15
g10
sS'[A,B,C,D]'
p16
g2
sS'model.evtin'
p17
g10
sS'ns'
p18
g10
sS'A'
p19
g10
sS'model.sim'
p20
g2
sS'C'
p21
g10
sS'B'
p22
g10
sS'D'
p23
g10
sS'H'
p24
g10
sS'PREVAR_scicos_context.z'
p25
g10
sS'model.rpar'
p26
g7
sS'mmm'
p27
g2
sS'graphics.exprs'
p28
NsS'x0'
p29
g10
sS'typ'
p30
g2
sS'ok'
p31
S'boolean'
p32
sS'model.blocktype'
p33
S'string'
p34
sS'model.dep_ut'
p35
g2
sS'exprs'
p36
g7
sS'gr_i'
p37
g2
sS'PREVAR_scicos_context'
p38
NsS'y'
p39
g2
sS'x'
p40
g10
sS'model'
p41
g4
s.