c__builtin__
set
p0
((lp1
S'x'
p2
aS'num'
p3
aS'den'
p4
atp5
Rp6
.(dp0
S'A'
p1
S'double'
p2
sS'model.dstate'
p3
S'vector'
p4
sS'arg1'
p5
S'object'
p6
sS'graphics'
p7
g6
sS'rpar'
p8
S'matrix'
p9
sS'this.x.model'
p10
g6
sS'model.out'
p11
g2
sS'x0[ns1-1][1-1]'
p12
g2
sS'model.in1'
p13
g2
sS'this.x.model.firing'
p14
g4
sS'this.x.graphics'
p15
g6
sS'[ns1,ns1]'
p16
g2
sS'[A,B,C,D]'
p17
g4
sS'model.evtin'
p18
g2
sS'ns'
p19
g2
sS'this.x'
p20
g2
sS'model.sim'
p21
g4
sS'C'
p22
g2
sS'B'
p23
g2
sS'D'
p24
g2
sS'H'
p25
g2
sS'PREVAR_scicos_context.z'
p26
g2
sS'model.rpar'
p27
g9
sS'mmm'
p28
g4
sS'graphics.exprs'
p29
NsS'x0'
p30
g2
sS'typ'
p31
g4
sS'ok'
p32
S'boolean'
p33
sS'model.blocktype'
p34
S'string'
p35
sS'model.dep_ut'
p36
g4
sS'exprs'
p37
g9
sS'gr_i'
p38
g4
sS'PREVAR_scicos_context'
p39
NsS'y'
p40
g4
sS'model'
p41
g6
s.