c__builtin__
set
p0
((lp1
S'x'
p2
aS'model'
p3
aS'num'
p4
aS'den'
p5
atp6
Rp7
.(dp0
S'model.dstate'
p1
S'vector'
p2
sS'arg1'
p3
S'object'
p4
sS'graphics'
p5
g4
sS'rpar'
p6
S'matrix'
p7
sS'x.model'
p8
g4
sS'model.out'
p9
S'double'
p10
sS'x0[ns1-1][1-1]'
p11
g10
sS'model.in1'
p12
g10
sS'x.model.firing'
p13
g2
sS'x.graphics'
p14
g4
sS'model.evtin'
p15
g10
sS'ns'
p16
g10
sS'A'
p17
g10
sS'model.sim'
p18
S'string'
p19
sS'C'
p20
g10
sS'B'
p21
g10
sS'D'
p22
g10
sS'H'
p23
g10
sS'PREVAR_scicos_context.z'
p24
g10
sS'model.rpar'
p25
g7
sS'mmm'
p26
g2
sS'graphics.exprs'
p27
NsS'x0'
p28
g10
sS'typ'
p29
g2
sS'ok'
p30
S'boolean'
p31
sS'model.blocktype'
p32
g19
sS'model.dep_ut'
p33
g2
sS'exprs'
p34
g7
sS'gr_i'
p35
g2
sS'PREVAR_scicos_context'
p36
NsS'y'
p37
g2
sS'x'
p38
g10
sS'model'
p39
g4
s.