c__builtin__
set
p0
((lp1
S'num'
p2
aS'exprs'
p3
aS'gr_i'
p4
aS'den'
p5
aS'graphics'
p6
aS'x'
p7
aS'model'
p8
atp9
Rp10
.(dp0
S'model.dstate'
p1
S'vector'
p2
sS'arg1'
p3
S'object'
p4
sS'graphics'
p5
g4
sS'rpar'
p6
S'matrix'
p7
sS'x.model'
p8
g4
sS'model.out'
p9
S'double'
p10
sS'x0[ns1-1][1-1]'
p11
g10
sS'x.model.firing'
p12
g2
sS'x.graphics'
p13
g4
sS'model.evtin'
p14
g10
sS'ns'
p15
g10
sS'A'
p16
g10
sS'model.sim'
p17
S'string'
p18
sS'C'
p19
g10
sS'B'
p20
g10
sS'D'
p21
g10
sS'H'
p22
g10
sS'PREVAR_scicos_context.z'
p23
g10
sS'model.rpar'
p24
g7
sS'mmm'
p25
S'vector_boolean'
p26
sS'model.in'
p27
g10
sS'graphics.exprs'
p28
NsS'x0'
p29
g10
sS'typ'
p30
g2
sS'ok'
p31
S'boolean'
p32
sS'model.blocktype'
p33
g18
sS'model.dep_ut'
p34
g26
sS'exprs'
p35
g7
sS'gr_i'
p36
g2
sS'PREVAR_scicos_context'
p37
NsS'y'
p38
g2
sS'x'
p39
NsS'model'
p40
g4
s.