c__builtin__
set
p0
((lp1
S'x'
p2
aS'num'
p3
aS'den'
p4
atp5
Rp6
.(dp0
S'A'
p1
S'double'
p2
sS'model.dstate'
p3
S'vector'
p4
sS'arg1'
p5
S'object'
p6
sS'graphics'
p7
g6
sS'rpar'
p8
S'matrix'
p9
sS'this.x.model'
p10
g6
sS'model.out'
p11
g2
sS'x0[ns1-1][1-1]'
p12
g2
sS'model.in1'
p13
g2
sS'this.x.model.firing'
p14
g4
sS'this.x.graphics'
p15
g6
sS'[ns1,ns1]'
p16
g2
sS'[A,B,C,D]'
p17
g4
sS'model.evtin'
p18
g2
sS'ns'
p19
g2
sS'this.x'
p20
g2
sS'model.sim'
p21
S'string'
p22
sS'C'
p23
g2
sS'B'
p24
g2
sS'D'
p25
g2
sS'H'
p26
g2
sS'PREVAR_scicos_context.z'
p27
g2
sS'model.rpar'
p28
g9
sS'mmm'
p29
g4
sS'graphics.exprs'
p30
NsS'x0'
p31
g2
sS'typ'
p32
g4
sS'ok'
p33
S'boolean'
p34
sS'model.blocktype'
p35
g22
sS'model.dep_ut'
p36
g4
sS'exprs'
p37
g9
sS'gr_i'
p38
g4
sS'PREVAR_scicos_context'
p39
NsS'y'
p40
g4
sS'model'
p41
g2
s.