c__builtin__
set
p0
((lp1
S'x'
p2
aS'model'
p3
aS'num'
p4
aS'den'
p5
aS'graphics'
p6
atp7
Rp8
.(dp0
S'model.dstate'
p1
S'vector'
p2
sS'graphics'
p3
S'object'
p4
sS'rpar'
p5
S'matrix'
p6
sS'x.model'
p7
g4
sS'model.out'
p8
S'double'
p9
sS'x0[ns1-1][1-1]'
p10
g9
sS'x.model.firing'
p11
g2
sS'x.graphics'
p12
g4
sS'model.evtin'
p13
g9
sS'ns'
p14
g9
sS'A'
p15
g9
sS'model.sim'
p16
S'string'
p17
sS'C'
p18
g9
sS'B'
p19
g9
sS'D'
p20
g9
sS'H'
p21
g9
sS'PREVAR_scicos_context.z'
p22
g9
sS'model.rpar'
p23
g6
sS'mmm'
p24
S'vector_boolean'
p25
sS'model.in'
p26
g9
sS'graphics.exprs'
p27
NsS'x0'
p28
g9
sS'typ'
p29
g2
sS'ok'
p30
S'boolean'
p31
sS'model.blocktype'
p32
g17
sS'model.dep_ut'
p33
g25
sS'exprs'
p34
g6
sS'gr_i'
p35
g2
sS'PREVAR_scicos_context'
p36
NsS'y'
p37
g2
sS'x'
p38
g2
sS'model'
p39
g4
s.