c__builtin__
set
p0
((lp1
S'A'
p2
aS'C'
p3
aS'B'
p4
aS'D'
p5
aS'x'
p6
aS'x0'
p7
atp8
Rp9
.(dp0
S'model.dstate'
p1
S'vector'
p2
sS'arg1'
p3
S'object'
p4
sS'graphics'
p5
g4
sS'rpar'
p6
S'matrix'
p7
sS'model.dep_ut'
p8
g2
sS'this.x.model'
p9
g4
sS'model.out'
p10
S'double'
p11
sS'out'
p12
g2
sS'model.in1'
p13
g11
sS'typ'
p14
g2
sS'model.evtin'
p15
g11
sS'this.x'
p16
g11
sS'model.sim'
p17
g2
sS'in1'
p18
g2
sS'model.rpar'
p19
g7
sS'mmm'
p20
g2
sS'graphics.exprs'
p21
g11
sS'this.x.graphics'
p22
g4
sS'this.B'
p23
g11
sS'model.blocktype'
p24
S'string'
p25
sS'[model,graphics,ok]'
p26
g11
sS'this.x0'
p27
g11
sS'[ms,ns]'
p28
g11
sS'exprs'
p29
g7
sS'gr_i'
p30
g2
sS'y'
p31
g2
sS'this.A'
p32
g11
sS'model'
p33
g11
sS'this.C'
p34
g11
sS'this.D'
p35
g11
s.