c__builtin__
set
p0
((lp1
S'A'
p2
aS'C'
p3
aS'B'
p4
aS'D'
p5
aS'x'
p6
aS'model'
p7
aS'x0'
p8
atp9
Rp10
.(dp0
S'model.dstate'
p1
S'vector'
p2
sS'arg1'
p3
S'object'
p4
sS'graphics'
p5
g4
sS'rpar'
p6
S'matrix'
p7
sS'x.model'
p8
g4
sS'model.dep_ut'
p9
g2
sS'model.out'
p10
S'double'
p11
sS'out'
p12
g2
sS'model.in1'
p13
g11
sS'x.graphics'
p14
g4
sS'model.evtin'
p15
g11
sS'A'
p16
g11
sS'model.sim'
p17
S'list'
p18
sS'C'
p19
g11
sS'B'
p20
g11
sS'D'
p21
g11
sS'[this.model,graphics,ok]'
p22
g11
sS'in1'
p23
g2
sS'model.rpar'
p24
g7
sS'mmm'
p25
g2
sS'graphics.exprs'
p26
g11
sS'x0'
p27
g11
sS'typ'
p28
g2
sS'model.blocktype'
p29
S'string'
p30
sS'[ms,ns]'
p31
g11
sS'exprs'
p32
g7
sS'gr_i'
p33
g2
sS'y'
p34
g2
sS'x'
p35
g11
sS'model'
p36
g4
s.