c__builtin__
set
p0
((lp1
S'A'
p2
aS'C'
p3
aS'B'
p4
aS'D'
p5
aS'x'
p6
aS'x0'
p7
atp8
Rp9
.(dp0
S'model.dstate'
p1
S'vector'
p2
sS'arg1'
p3
S'object'
p4
sS'graphics'
p5
g4
sS'rpar'
p6
S'matrix'
p7
sS'x.model'
p8
g4
sS'[ms,ns]'
p9
S'double'
p10
sS'model.out'
p11
g10
sS'out'
p12
g2
sS'model.in1'
p13
g10
sS'x.graphics'
p14
g4
sS'model.evtin'
p15
g10
sS'A'
p16
g10
sS'model.sim'
p17
g2
sS'C'
p18
g10
sS'B'
p19
g10
sS'D'
p20
g10
sS'in1'
p21
g2
sS'model.rpar'
p22
g7
sS'mmm'
p23
g2
sS'graphics.exprs'
p24
g10
sS'x0'
p25
g10
sS'typ'
p26
g2
sS'[model,graphics,ok]'
p27
g10
sS'model.blocktype'
p28
S'string'
p29
sS'model.dep_ut'
p30
g2
sS'exprs'
p31
g7
sS'gr_i'
p32
g2
sS'okD'
p33
S'boolean'
p34
sS'y'
p35
g2
sS'x'
p36
g10
sS'model'
p37
g4
s.