c__builtin__
set
p0
((lp1
S'A'
p2
aS'C'
p3
aS'B'
p4
aS'D'
p5
aS'exprs'
p6
aS'gr_i'
p7
aS'graphics'
p8
aS'x'
p9
aS'model'
p10
aS'x0'
p11
atp12
Rp13
.(dp0
S'model.dstate'
p1
S'vector'
p2
sS'arg1'
p3
S'object'
p4
sS'graphics'
p5
g4
sS'rpar'
p6
S'matrix'
p7
sS'x.model'
p8
g4
sS'model.out'
p9
S'double'
p10
sS'out'
p11
g2
sS'x.graphics'
p12
g4
sS'model.evtin'
p13
g10
sS'A'
p14
g10
sS'model.sim'
p15
S'list'
p16
sS'C'
p17
g10
sS'B'
p18
g10
sS'D'
p19
g10
sS'in1'
p20
g2
sS'model.rpar'
p21
g7
sS'mmm'
p22
S'vector_boolean'
p23
sS'model.in'
p24
g10
sS'graphics.exprs'
p25
g10
sS'x0'
p26
g10
sS'typ'
p27
g2
sS'model.blocktype'
p28
S'string'
p29
sS'model.dep_ut'
p30
g23
sS'exprs'
p31
g7
sS'gr_i'
p32
g2
sS'okD'
p33
S'boolean'
p34
sS'y'
p35
g2
sS'x'
p36
NsS'model'
p37
g4
s.