c__builtin__
set
p0
((lp1
S'A'
p2
aS'C'
p3
aS'B'
p4
aS'D'
p5
aS'graphics'
p6
aS'x'
p7
aS'model'
p8
aS'x0'
p9
atp10
Rp11
.(dp0
S'model.dstate'
p1
S'vector'
p2
sS'graphics'
p3
S'object'
p4
sS'rpar'
p5
S'matrix'
p6
sS'x.model'
p7
g4
sS'model.out'
p8
S'double'
p9
sS'out'
p10
g2
sS'x.graphics'
p11
g4
sS'model.evtin'
p12
g9
sS'A'
p13
g9
sS'model.sim'
p14
S'list'
p15
sS'C'
p16
g9
sS'B'
p17
g9
sS'D'
p18
g9
sS'in1'
p19
g2
sS'model.rpar'
p20
g6
sS'mmm'
p21
S'vector_boolean'
p22
sS'model.in'
p23
g9
sS'graphics.exprs'
p24
g9
sS'x0'
p25
g9
sS'typ'
p26
g2
sS'model.blocktype'
p27
S'string'
p28
sS'model.dep_ut'
p29
g22
sS'exprs'
p30
g6
sS'gr_i'
p31
g2
sS'okD'
p32
S'boolean'
p33
sS'y'
p34
g2
sS'x'
p35
g2
sS'model'
p36
g4
s.