c__builtin__
set
p0
((lp1
S'A'
p2
aS'C'
p3
aS'B'
p4
aS'D'
p5
aS'x'
p6
aS'model'
p7
aS'x0'
p8
atp9
Rp10
.(dp0
S'model.dstate'
p1
S'vector'
p2
sS'arg1'
p3
S'object'
p4
sS'graphics'
p5
g4
sS'rpar'
p6
S'matrix'
p7
sS'x.model'
p8
g4
sS'[ms,ns]'
p9
S'double'
p10
sS'model.out'
p11
g10
sS'out'
p12
g2
sS'model.in1'
p13
g10
sS'x.graphics'
p14
g4
sS'model.evtin'
p15
g10
sS'A'
p16
g10
sS'model.sim'
p17
S'list'
p18
sS'C'
p19
g10
sS'B'
p20
g10
sS'D'
p21
g10
sS'in1'
p22
g2
sS'model.rpar'
p23
g7
sS'mmm'
p24
g2
sS'graphics.exprs'
p25
g10
sS'x0'
p26
g10
sS'typ'
p27
g2
sS'[model,graphics,ok]'
p28
g10
sS'model.blocktype'
p29
S'string'
p30
sS'model.dep_ut'
p31
g2
sS'exprs'
p32
g7
sS'gr_i'
p33
g2
sS'okD'
p34
S'boolean'
p35
sS'y'
p36
g2
sS'x'
p37
g10
sS'model'
p38
g4
s.