c__builtin__
set
p0
((lp1
S'A'
p2
aS'C'
p3
aS'B'
p4
aS'D'
p5
aS'x'
p6
aS'x0'
p7
atp8
Rp9
.(dp0
S'model.dstate'
p1
S'vector'
p2
sS'arg1'
p3
S'object'
p4
sS'graphics'
p5
g4
sS'rpar'
p6
S'matrix'
p7
sS'[ms,ns]'
p8
S'double'
p9
sS'this.x.model'
p10
g4
sS'model.out'
p11
g9
sS'out'
p12
g2
sS'model.in1'
p13
g9
sS'this.x.graphics'
p14
g4
sS'model.evtin'
p15
g9
sS'this.x'
p16
g9
sS'model.sim'
p17
g2
sS'in1'
p18
g2
sS'model.rpar'
p19
g7
sS'mmm'
p20
g2
sS'graphics.exprs'
p21
g9
sS'typ'
p22
g2
sS'this.B'
p23
g9
sS'model.blocktype'
p24
S'string'
p25
sS'[model,graphics,ok]'
p26
g9
sS'this.x0'
p27
g9
sS'model.dep_ut'
p28
g2
sS'exprs'
p29
g7
sS'gr_i'
p30
g2
sS'okD'
p31
S'boolean'
p32
sS'y'
p33
g2
sS'this.A'
p34
g9
sS'model'
p35
g4
sS'this.C'
p36
g9
sS'this.D'
p37
g9
s.