c__builtin__
set
p0
((lp1
S'A'
p2
aS'C'
p3
aS'B'
p4
aS'D'
p5
aS'graphics'
p6
aS'x'
p7
aS'model'
p8
aS'x0'
p9
atp10
Rp11
.(dp0
S'model.dstate'
p1
S'vector'
p2
sS'arg1'
p3
S'object'
p4
sS'graphics'
p5
g4
sS'rpar'
p6
S'matrix'
p7
sS'x.model'
p8
g4
sS'model.out'
p9
S'double'
p10
sS'out'
p11
g2
sS'model.in1'
p12
g10
sS'x.graphics'
p13
g4
sS'model.evtin'
p14
g10
sS'A'
p15
g10
sS'model.sim'
p16
S'list'
p17
sS'C'
p18
g10
sS'B'
p19
g10
sS'D'
p20
g10
sS'in1'
p21
g2
sS'model.rpar'
p22
g7
sS'mmm'
p23
g2
sS'graphics.exprs'
p24
g10
sS'x0'
p25
g10
sS'typ'
p26
g2
sS'model.blocktype'
p27
S'string'
p28
sS'model.dep_ut'
p29
g2
sS'exprs'
p30
g7
sS'gr_i'
p31
g2
sS'okD'
p32
S'boolean'
p33
sS'y'
p34
g2
sS'x'
p35
g10
sS'model'
p36
g4
s.