c__builtin__
set
p0
((lp1
S'a'
p2
aS'x'
p3
aS'model'
p4
aS'inh'
p5
atp6
Rp7
.(dp0
S'model.dstate'
p1
S'double'
p2
sS'arg1'
p3
S'object'
p4
sS'graphics'
p5
g4
sS'x.model'
p6
NsS'inh'
p7
g2
sS'model.out'
p8
g2
sS'out'
p9
S'vector'
p10
sS'model.in1'
p11
g2
sS'x.graphics'
p12
g4
sS'model.evtin'
p13
g2
sS'exprs[2-1]'
p14
S'string'
p15
sS'model.sim'
p16
g15
sS'in1'
p17
g2
sS'graphics.exprs'
p18
NsS'typ'
p19
g10
sS'[model,graphics,ok]'
p20
g2
sS'model.blocktype'
p21
g15
sS'model.dep_ut'
p22
g10
sS'exprs'
p23
g15
sS'gr_i'
p24
g10
sS'y'
p25
g10
sS'x'
p26
g2
sS'model'
p27
g4
sS'z'
p28
g2
s.