c__builtin__
set
p0
((lp1
S'a'
p2
aS'x'
p3
aS'model'
p4
aS'inh'
p5
aS'type'
p6
atp7
Rp8
.(dp0
S'model.odstate'
p1
S'list'
p2
sS'model.dstate'
p3
S'double'
p4
sS'arg1'
p5
S'object'
p6
sS'graphics'
p7
g6
sS'it'
p8
g4
sS'x.model'
p9
NsS'inh'
p10
g4
sS'model.out'
p11
g4
sS'out'
p12
S'vector'
p13
sS'model.in1'
p14
g4
sS'x.graphics'
p15
g6
sS'model.evtin'
p16
g4
sS'exprs[2-1]'
p17
S'string'
p18
sS'model.sim'
p19
g2
sS'[this.model,graphics,ok]'
p20
g4
sS'in1'
p21
g4
sS'graphics.exprs'
p22
NsS'typ'
p23
g13
sS'ot'
p24
g4
sS'ok'
p25
S'boolean'
p26
sS'model.blocktype'
p27
g18
sS'model.dep_ut'
p28
g13
sS'exprs'
p29
g18
sS'gr_i'
p30
g13
sS'y'
p31
g13
sS'x'
p32
g4
sS'model'
p33
g6
sS'z'
p34
g4
s.