c__builtin__
set
p0
((lp1
S'a'
p2
aS'exprs'
p3
aS'gr_i'
p4
aS'inh'
p5
aS'graphics'
p6
aS'x'
p7
aS'model'
p8
aS'type'
p9
atp10
Rp11
.(dp0
S'model.odstate'
p1
S'list'
p2
sS'model.dstate'
p3
S'double'
p4
sS'arg1'
p5
S'object'
p6
sS'graphics'
p7
g6
sS'it'
p8
g4
sS'x.model'
p9
NsS'inh'
p10
g4
sS'model.out'
p11
g4
sS'out'
p12
S'vector'
p13
sS'x.graphics'
p14
g6
sS'model.evtin'
p15
g4
sS'exprs[2-1]'
p16
S'string'
p17
sS'model.sim'
p18
g2
sS'in1'
p19
g4
sS'model.in'
p20
g4
sS'graphics.exprs'
p21
NsS'typ'
p22
g13
sS'ot'
p23
g4
sS'ok'
p24
S'boolean'
p25
sS'model.blocktype'
p26
g17
sS'model.dep_ut'
p27
g13
sS'exprs'
p28
g17
sS'gr_i'
p29
g13
sS'y'
p30
g13
sS'x'
p31
NsS'model'
p32
g6
sS'z'
p33
g4
s.