c__builtin__
set
p0
((lp1
S'a'
p2
aS'x'
p3
aS'model'
p4
aS'inh'
p5
aS'graphics'
p6
atp7
Rp8
.(dp0
S'model.dstate'
p1
S'double'
p2
sS'graphics'
p3
S'object'
p4
sS'x.model'
p5
NsS'inh'
p6
g2
sS'model.out'
p7
g2
sS'out'
p8
S'vector'
p9
sS'x.graphics'
p10
g4
sS'model.evtin'
p11
g2
sS'exprs[2-1]'
p12
S'string'
p13
sS'model.sim'
p14
g13
sS'in1'
p15
g2
sS'model.in'
p16
g2
sS'graphics.exprs'
p17
NsS'typ'
p18
g9
sS'model.blocktype'
p19
g13
sS'model.dep_ut'
p20
S'vector_boolean'
p21
sS'exprs'
p22
g13
sS'gr_i'
p23
g9
sS'y'
p24
g9
sS'x'
p25
g9
sS'model'
p26
g4
sS'z'
p27
g2
s.