c__builtin__
set
p0
((lp1
S'a'
p2
aS'x'
p3
aS'model'
p4
aS'inh'
p5
aS'graphics'
p6
atp7
Rp8
.(dp0
S'model.dstate'
p1
S'double'
p2
sS'arg1'
p3
S'object'
p4
sS'graphics'
p5
g4
sS'x.model'
p6
NsS'inh'
p7
g2
sS'model.out'
p8
g2
sS'out'
p9
S'vector'
p10
sS'x.graphics'
p11
g4
sS'model.evtin'
p12
g2
sS'exprs[2-1]'
p13
S'string'
p14
sS'model.sim'
p15
g14
sS'in1'
p16
g2
sS'model.in'
p17
g2
sS'graphics.exprs'
p18
NsS'typ'
p19
g10
sS'model.blocktype'
p20
g14
sS'model.dep_ut'
p21
S'vector_boolean'
p22
sS'exprs'
p23
g14
sS'gr_i'
p24
g10
sS'y'
p25
g10
sS'x'
p26
NsS'model'
p27
g4
sS'z'
p28
g2
s.