c__builtin__
set
p0
((lp1
S'a'
p2
aS'x'
p3
aS'model'
p4
aS'inh'
p5
aS'type'
p6
atp7
Rp8
.(dp0
S'model.odstate'
p1
S'list'
p2
sS'model.dstate'
p3
S'double'
p4
sS'arg1'
p5
S'object'
p6
sS'graphics'
p7
g6
sS'it'
p8
g4
sS'x.model'
p9
NsS'inh'
p10
g4
sS'model.out'
p11
g4
sS'out'
p12
S'vector'
p13
sS'model.in1'
p14
g4
sS'x.graphics'
p15
g6
sS'model.evtin'
p16
g4
sS'exprs[2-1]'
p17
S'string'
p18
sS'model.sim'
p19
g2
sS'in1'
p20
g4
sS'graphics.exprs'
p21
NsS'typ'
p22
g13
sS'ot'
p23
g4
sS'ok'
p24
S'boolean'
p25
sS'model.blocktype'
p26
g18
sS'model.dep_ut'
p27
g13
sS'exprs'
p28
g18
sS'gr_i'
p29
g13
sS'y'
p30
g13
sS'x'
p31
g4
sS'model'
p32
g6
sS'z'
p33
g4
s.