c__builtin__
set
p0
((lp1
S'a'
p2
aS'x'
p3
aS'inh'
p4
atp5
Rp6
.(dp0
S'model.dstate'
p1
S'double'
p2
sS'arg1'
p3
S'object'
p4
sS'graphics'
p5
g4
sS'this.x.model'
p6
NsS'model.out'
p7
g2
sS'out'
p8
S'vector'
p9
sS'this.inh'
p10
g2
sS'model.in1'
p11
g2
sS'typ'
p12
g9
sS'model.evtin'
p13
S'string'
p14
sS'exprs[2-1]'
p15
g14
sS'this.x'
p16
g2
sS'model.sim'
p17
g14
sS'in1'
p18
g2
sS'graphics.exprs'
p19
NsS'this.x.graphics'
p20
g4
sS'[model,graphics,ok]'
p21
g2
sS'model.blocktype'
p22
g14
sS'model.dep_ut'
p23
g9
sS'exprs'
p24
g14
sS'gr_i'
p25
g9
sS'y'
p26
g9
sS'model'
p27
g4
sS'z'
p28
g2
s.