c__builtin__
set
p0
((lp1
S'a'
p2
aS'x'
p3
aS'inh'
p4
aS'type'
p5
atp6
Rp7
.(dp0
S'model.odstate'
p1
S'vector'
p2
sS'model.dstate'
p3
S'double'
p4
sS'arg1'
p5
S'object'
p6
sS'graphics'
p7
g6
sS'it'
p8
g4
sS'this.x.model'
p9
NsS'model.out'
p10
g4
sS'out'
p11
g2
sS'this.inh'
p12
g4
sS'model.in1'
p13
g4
sS'typ'
p14
g2
sS'model.evtin'
p15
S'string'
p16
sS'exprs[2-1]'
p17
g16
sS'this.x'
p18
g4
sS'model.sim'
p19
g2
sS'in1'
p20
g4
sS'graphics.exprs'
p21
NsS'this.x.graphics'
p22
g6
sS'[model,graphics,ok]'
p23
g4
sS'ot'
p24
g4
sS'ok'
p25
S'boolean'
p26
sS'model.blocktype'
p27
g16
sS'model.dep_ut'
p28
g2
sS'exprs'
p29
g16
sS'gr_i'
p30
g2
sS'y'
p31
g2
sS'model'
p32
g6
sS'z'
p33
g4
s.