c__builtin__
set
p0
((lp1
S'a'
p2
aS'x'
p3
aS'model'
p4
aS'inh'
p5
aS'graphics'
p6
atp7
Rp8
.(dp0
S'model.odstate'
p1
S'list'
p2
sS'model.dstate'
p3
S'double'
p4
sS'graphics'
p5
S'object'
p6
sS'it'
p7
g4
sS'x.model'
p8
NsS'inh'
p9
g4
sS'model.out'
p10
g4
sS'out'
p11
S'vector'
p12
sS'x.graphics'
p13
g6
sS'model.evtin'
p14
g4
sS'exprs[2-1]'
p15
S'string'
p16
sS'model.sim'
p17
g2
sS'in1'
p18
g4
sS'model.in'
p19
g4
sS'graphics.exprs'
p20
NsS'typ'
p21
g12
sS'ot'
p22
g4
sS'ok'
p23
S'boolean'
p24
sS'model.blocktype'
p25
g16
sS'model.dep_ut'
p26
S'vector_boolean'
p27
sS'exprs'
p28
g16
sS'gr_i'
p29
g12
sS'y'
p30
g12
sS'x'
p31
g12
sS'model'
p32
g6
sS'z'
p33
g4
s.