c__builtin__
set
p0
((lp1
S'exprs'
p2
aS'gr_i'
p3
aS'gain'
p4
aS'graphics'
p5
aS'x'
p6
aS'model'
p7
atp8
Rp9
.(dp0
S'model.sim'
p1
S'string'
p2
sS'model.out'
p3
S'double'
p4
sS'model.blocktype'
p5
g2
sS'x.graphics'
p6
S'object'
p7
sS'model.dep_ut'
p8
S'vector'
p9
sS'arg1'
p10
g7
sS'graphics.exprs'
p11
NsS'in1'
p12
g4
sS'model.rpar'
p13
g4
sS'exprs'
p14
S'matrix'
p15
sS'x.model'
p16
NsS'gr_i'
p17
g9
sS'gain'
p18
g4
sS'model.in'
p19
g4
sS'graphics'
p20
g7
sS'y'
p21
g9
sS'x'
p22
g4
sS'model'
p23
g7
sS'typ'
p24
g9
sS'out'
p25
g4
s.