c__builtin__
set
p0
((lp1
S'x'
p2
aS'model'
p3
aS'gain'
p4
atp5
Rp6
.(dp0
S'arg1'
p1
S'object'
p2
sS'graphics'
p3
g2
sS'x.model'
p4
NsS'model.out'
p5
S'double'
p6
sS'out'
p7
g6
sS'model.in1'
p8
g6
sS'x.graphics'
p9
g2
sS'model.sim'
p10
S'string'
p11
sS'[out,in1]'
p12
g6
sS'[this.model,graphics,ok]'
p13
g6
sS'in1'
p14
g6
sS'model.rpar'
p15
g6
sS'gain'
p16
g6
sS'graphics.exprs'
p17
NsS'typ'
p18
S'vector'
p19
sS'model.blocktype'
p20
g11
sS'model.dep_ut'
p21
g19
sS'exprs'
p22
g19
sS'gr_i'
p23
g19
sS'y'
p24
g19
sS'x'
p25
g6
sS'model'
p26
g2
s.