c__builtin__
set
p0
((lp1
S'x'
p2
aS'model'
p3
aS'over'
p4
aS'gain'
p5
atp6
Rp7
.(dp0
S'arg1'
p1
S'object'
p2
sS'graphics'
p3
g2
sS'it'
p4
S'double'
p5
sS'x.model'
p6
NsS'model.out'
p7
g5
sS'out'
p8
g5
sS'model.in2'
p9
g5
sS'model.in1'
p10
g5
sS'x.graphics'
p11
g2
sS'model.sim'
p12
S'list'
p13
sS'[out,in1]'
p14
g5
sS'model.out2'
p15
g5
sS'in1'
p16
g5
sS'in2'
p17
g5
sS'model.rpar'
p18
g5
sS'graphics.exprs'
p19
S'matrix'
p20
sS'typ'
p21
S'vector'
p22
sS'model.opar'
p23
g13
sS'[model,graphics,ok]'
p24
g5
sS'out2'
p25
g5
sS'ok'
p26
S'boolean'
p27
sS'model.blocktype'
p28
S'string'
p29
sS'model.dep_ut'
p30
g22
sS'exprs'
p31
g22
sS'gr_i'
p32
g22
sS'y'
p33
g22
sS'x'
p34
g5
sS'model'
p35
g2
sS'ot'
p36
g5
sS'gain'
p37
g5
s.