c__builtin__
set
p0
((lp1
S'x'
p2
aS'model'
p3
aS'over'
p4
aS'gain'
p5
aS'graphics'
p6
atp7
Rp8
.(dp0
S'arg1'
p1
S'object'
p2
sS'graphics'
p3
g2
sS'it'
p4
S'double'
p5
sS'x.model'
p6
NsS'model.out'
p7
g5
sS'out'
p8
g5
sS'model.in2'
p9
g5
sS'x.graphics'
p10
g2
sS'model.sim'
p11
S'list'
p12
sS'model.out2'
p13
g5
sS'in1'
p14
g5
sS'in2'
p15
g5
sS'model.rpar'
p16
g5
sS'model.in'
p17
g5
sS'graphics.exprs'
p18
S'matrix'
p19
sS'typ'
p20
S'vector'
p21
sS'model.opar'
p22
g12
sS'out2'
p23
g5
sS'ok'
p24
S'boolean'
p25
sS'model.blocktype'
p26
S'string'
p27
sS'model.dep_ut'
p28
S'vector_boolean'
p29
sS'exprs'
p30
g21
sS'gr_i'
p31
g21
sS'y'
p32
g21
sS'x'
p33
NsS'model'
p34
g2
sS'ot'
p35
g5
sS'gain'
p36
g5
s.