c__builtin__
set
p0
((lp1
S'x'
p2
aS'over'
p3
aS'gain'
p4
atp5
Rp6
.(dp0
S'arg1'
p1
S'object'
p2
sS'graphics'
p3
g2
sS'it'
p4
S'double'
p5
sS'this.x.model'
p6
NsS'model.out'
p7
g5
sS'out'
p8
g5
sS'model.in2'
p9
g5
sS'model.in1'
p10
g5
sS'typ'
p11
S'vector'
p12
sS'this.x'
p13
g5
sS'model.sim'
p14
g12
sS'[out,in1]'
p15
g5
sS'model.out2'
p16
g5
sS'in1'
p17
g5
sS'model.rpar'
p18
NsS'in2'
p19
g5
sS'graphics.exprs'
p20
S'matrix'
p21
sS'this.x.graphics'
p22
g2
sS'model.opar'
p23
g12
sS'[model,graphics,ok]'
p24
g5
sS'this.gain'
p25
g5
sS'ok'
p26
S'boolean'
p27
sS'model.blocktype'
p28
S'string'
p29
sS'model.dep_ut'
p30
g12
sS'exprs'
p31
g12
sS'gr_i'
p32
g12
sS'y'
p33
g12
sS'out2'
p34
g5
sS'model'
p35
g2
sS'ot'
p36
g5
s.