c__builtin__
set
p0
((lp1
S'x'
p2
aS'model'
p3
aS'over'
p4
aS'gain'
p5
aS'graphics'
p6
atp7
Rp8
.(dp0
S'graphics'
p1
S'object'
p2
sS'it'
p3
S'double'
p4
sS'x.model'
p5
NsS'model.out'
p6
g4
sS'out'
p7
g4
sS'model.in2'
p8
g4
sS'x.graphics'
p9
g2
sS'model.sim'
p10
S'list'
p11
sS'model.out2'
p12
g4
sS'in1'
p13
g4
sS'in2'
p14
g4
sS'model.rpar'
p15
g4
sS'model.in'
p16
g4
sS'graphics.exprs'
p17
S'matrix'
p18
sS'typ'
p19
S'vector'
p20
sS'model.opar'
p21
g11
sS'out2'
p22
g4
sS'ok'
p23
S'boolean'
p24
sS'model.blocktype'
p25
S'string'
p26
sS'model.dep_ut'
p27
S'vector_boolean'
p28
sS'exprs'
p29
g20
sS'gr_i'
p30
g20
sS'y'
p31
g20
sS'x'
p32
g20
sS'model'
p33
g2
sS'ot'
p34
g4
sS'gain'
p35
g4
s.