c__builtin__
set
p0
((lp1
S'x'
p2
aS'model'
p3
aS'over'
p4
aS'gain'
p5
atp6
Rp7
.(dp0
S'arg1'
p1
S'object'
p2
sS'graphics'
p3
g2
sS'it'
p4
S'double'
p5
sS'x.model'
p6
NsS'model.out'
p7
g5
sS'out'
p8
g5
sS'model.in2'
p9
g5
sS'model.in1'
p10
g5
sS'x.graphics'
p11
g2
sS'model.sim'
p12
S'vector'
p13
sS'[out,in1]'
p14
g5
sS'model.out2'
p15
g5
sS'in1'
p16
g5
sS'in2'
p17
g5
sS'model.rpar'
p18
g5
sS'graphics.exprs'
p19
S'matrix'
p20
sS'typ'
p21
g13
sS'model.opar'
p22
g13
sS'[model,graphics,ok]'
p23
g5
sS'out2'
p24
g5
sS'ok'
p25
S'boolean'
p26
sS'model.blocktype'
p27
S'string'
p28
sS'model.dep_ut'
p29
g13
sS'exprs'
p30
g13
sS'gr_i'
p31
g13
sS'y'
p32
g13
sS'x'
p33
g5
sS'model'
p34
g2
sS'ot'
p35
g5
sS'gain'
p36
g5
s.