c__builtin__
set
p0
((lp1
S'x'
p2
aS'model'
p3
aS'gain'
p4
aS'graphics'
p5
atp6
Rp7
.(dp0
S'model.sim'
p1
S'string'
p2
sS'model.in1'
p3
S'double'
p4
sS'model.blocktype'
p5
g2
sS'x.graphics'
p6
S'object'
p7
sS'model.dep_ut'
p8
S'vector'
p9
sS'arg1'
p10
g7
sS'graphics.exprs'
p11
NsS'in1'
p12
g4
sS'model.rpar'
p13
g4
sS'exprs'
p14
g9
sS'x.model'
p15
NsS'gr_i'
p16
g9
sS'gain'
p17
g4
sS'graphics'
p18
g7
sS'y'
p19
g9
sS'x'
p20
g4
sS'model'
p21
g7
sS'model.out'
p22
g4
sS'typ'
p23
g9
sS'out'
p24
g4
s.