c__builtin__
set
p0
((lp1
S'x'
p2
aS'model'
p3
aS'gain'
p4
atp5
Rp6
.(dp0
S'arg1'
p1
S'object'
p2
sS'graphics'
p3
g2
sS'x.model'
p4
NsS'model.out'
p5
S'double'
p6
sS'out'
p7
g6
sS'model.in1'
p8
g6
sS'x.graphics'
p9
g2
sS'model.sim'
p10
S'string'
p11
sS'[out,in1]'
p12
g6
sS'[this.model,graphics,ok]'
p13
S'list'
p14
sS'in1'
p15
g6
sS'model.rpar'
p16
g6
sS'gain'
p17
g6
sS'graphics.exprs'
p18
NsS'typ'
p19
S'vector'
p20
sS'model.blocktype'
p21
g11
sS'model.dep_ut'
p22
g20
sS'exprs'
p23
g20
sS'gr_i'
p24
g20
sS'y'
p25
g20
sS'x'
p26
g6
sS'model'
p27
g2
s.