c__builtin__
set
p0
((lp1
S'x'
p2
aS'model'
p3
aS'over'
p4
aS'gain'
p5
atp6
Rp7
.(dp0
S'arg1'
p1
S'object'
p2
sS'graphics'
p3
g2
sS'it'
p4
S'double'
p5
sS'x.model'
p6
NsS'model.out'
p7
g5
sS'out'
p8
g5
sS'model.in2'
p9
g5
sS'model.in1'
p10
g5
sS'x.graphics'
p11
g2
sS'model.sim'
p12
S'list'
p13
sS'model.out2'
p14
g5
sS'in1'
p15
g5
sS'in2'
p16
g5
sS'model.rpar'
p17
g5
sS'graphics.exprs'
p18
S'matrix'
p19
sS'typ'
p20
S'vector'
p21
sS'model.opar'
p22
g13
sS'out2'
p23
g5
sS'ok'
p24
S'boolean'
p25
sS'model.blocktype'
p26
S'string'
p27
sS'model.dep_ut'
p28
g21
sS'exprs'
p29
g21
sS'gr_i'
p30
g21
sS'y'
p31
g21
sS'x'
p32
g5
sS'model'
p33
g2
sS'ot'
p34
g5
sS'gain'
p35
g5
s.