c__builtin__
set
p0
((lp1
S'x'
p2
aS'gain'
p3
atp4
Rp5
.(dp0
S'arg1'
p1
S'object'
p2
sS'graphics'
p3
g2
sS'this.x.model'
p4
NsS'model.out'
p5
S'double'
p6
sS'out'
p7
g6
sS'model.in1'
p8
g6
sS'typ'
p9
S'vector'
p10
sS'this.x'
p11
g6
sS'model.sim'
p12
S'string'
p13
sS'[out,in1]'
p14
g6
sS'in1'
p15
g6
sS'model.rpar'
p16
NsS'graphics.exprs'
p17
NsS'this.x.graphics'
p18
g2
sS'[model,graphics,ok]'
p19
g6
sS'this.gain'
p20
g6
sS'model.blocktype'
p21
g13
sS'model.dep_ut'
p22
g10
sS'exprs'
p23
S'matrix'
p24
sS'gr_i'
p25
g10
sS'y'
p26
g10
sS'model'
p27
g6
s.