c__builtin__
set
p0
((lp1
S'x'
p2
aS'model'
p3
aS'gain'
p4
aS'graphics'
p5
atp6
Rp7
.(dp0
S'model.sim'
p1
S'string'
p2
sS'model.out'
p3
S'double'
p4
sS'model.blocktype'
p5
g2
sS'x.graphics'
p6
S'object'
p7
sS'model.dep_ut'
p8
S'vector_boolean'
p9
sS'graphics'
p10
g7
sS'in1'
p11
g4
sS'model.rpar'
p12
g4
sS'exprs'
p13
S'vector'
p14
sS'x.model'
p15
NsS'gr_i'
p16
g14
sS'gain'
p17
g4
sS'model.in'
p18
g4
sS'graphics.exprs'
p19
NsS'y'
p20
g14
sS'x'
p21
g14
sS'model'
p22
g7
sS'typ'
p23
g14
sS'out'
p24
g4
s.