c__builtin__
set
p0
((lp1
S'exprs'
p2
aS'gr_i'
p3
aS'gain'
p4
aS'graphics'
p5
aS'x'
p6
aS'model'
p7
atp8
Rp9
.(dp0
S'model.sim'
p1
S'string'
p2
sS'model.out'
p3
S'double'
p4
sS'model.blocktype'
p5
g2
sS'x.graphics'
p6
S'object'
p7
sS'model.dep_ut'
p8
S'vector'
p9
sS'arg1'
p10
g7
sS'graphics.exprs'
p11
NsS'in1'
p12
g4
sS'model.rpar'
p13
g4
sS'exprs'
p14
g9
sS'x.model'
p15
NsS'gr_i'
p16
g9
sS'gain'
p17
g4
sS'model.in'
p18
g4
sS'graphics'
p19
g7
sS'y'
p20
g9
sS'x'
p21
NsS'model'
p22
g7
sS'typ'
p23
g9
sS'out'
p24
g4
s.