c__builtin__
set
p0
((lp1
S'maxp'
p2
aS'reinit'
p3
aS'satur'
p4
aS'lowp'
p5
aS'graphics'
p6
aS'x'
p7
aS'model'
p8
aS'x0'
p9
atp10
Rp11
.(dp0
S'model.in'
p1
S'double'
p2
sS'arg1'
p3
S'object'
p4
sS'reinit'
p5
g2
sS'rpar'
p6
S'vector'
p7
sS'model.out'
p8
g2
sS'x.model'
p9
NsS'minp'
p10
g2
sS'graphics'
p11
g4
sS'x.graphics'
p12
g4
sS'typ'
p13
g7
sS'maxp'
p14
g2
sS'model.sim'
p15
S'list'
p16
sS'model.nmode'
p17
g2
sS'model.rpar'
p18
g7
sS'satur'
p19
g2
sS'model.state'
p20
g2
sS'lowp'
p21
S'string'
p22
sS'graphics.exprs'
p23
NsS'x0'
p24
g7
sS'model.nzcross'
p25
g2
sS'x.graphics.id'
p26
g22
sS'ok'
p27
S'boolean'
p28
sS'model.blocktype'
p29
g22
sS'model.dep_ut'
p30
S'vector_boolean'
p31
sS'exprs'
p32
g22
sS'gr_i'
p33
g7
sS'y'
p34
g7
sS'x'
p35
NsS'model'
p36
g4
s.