c__builtin__
set
p0
((lp1
S'maxp'
p2
aS'reinit'
p3
aS'satur'
p4
aS'lowp'
p5
aS'graphics'
p6
aS'x'
p7
aS'model'
p8
aS'x0'
p9
atp10
Rp11
.(dp0
S'model.in'
p1
S'double'
p2
sS'reinit'
p3
g2
sS'it'
p4
S'matrix'
p5
sS'rpar'
p6
S'vector'
p7
sS'model.out'
p8
g2
sS'x.model'
p9
NsS'minp'
p10
g2
sS'out'
p11
g2
sS'model.in2'
p12
g2
sS'graphics'
p13
S'object'
p14
sS'x.graphics'
p15
g14
sS'typ'
p16
g7
sS'maxp'
p17
g2
sS'model.sim'
p18
S'list'
p19
sS'Datatype'
p20
g2
sS'model.out2'
p21
g2
sS'in1'
p22
S'vector_string'
p23
sS'model.rpar'
p24
g7
sS'model.nmode'
p25
g2
sS'satur'
p26
g2
sS'model.state'
p27
g2
sS'lowp'
p28
g2
sS'graphics.exprs'
p29
NsS'model.nzcross'
p30
g2
sS'ok'
p31
S'boolean'
p32
sS'model.blocktype'
p33
S'string'
p34
sS'model.dep_ut'
p35
S'vector_boolean'
p36
sS'exprs'
p37
g34
sS'gr_i'
p38
g7
sS'y'
p39
g7
sS'x'
p40
g7
sS'model'
p41
g14
sS'ot'
p42
g2
s.