c__builtin__
set
p0
((lp1
S'maxp'
p2
aS'reinit'
p3
aS'exprs'
p4
aS'gr_i'
p5
aS'satur'
p6
aS'lowp'
p7
aS'graphics'
p8
aS'x'
p9
aS'model'
p10
aS'x0'
p11
atp12
Rp13
.(dp0
S'model.in'
p1
S'double'
p2
sS'arg1'
p3
S'object'
p4
sS'reinit'
p5
g2
sS'it'
p6
S'matrix'
p7
sS'rpar'
p8
S'vector'
p9
sS'model.out'
p10
g2
sS'x.model'
p11
NsS'minp'
p12
g2
sS'out'
p13
g2
sS'model.in2'
p14
g2
sS'x.graphics'
p15
g4
sS'typ'
p16
g9
sS'maxp'
p17
g2
sS'model.sim'
p18
S'list'
p19
sS'Datatype'
p20
g2
sS'model.out2'
p21
g2
sS'in1'
p22
S'vector_string'
p23
sS'model.rpar'
p24
g9
sS'model.nmode'
p25
g2
sS'satur'
p26
g2
sS'model.state'
p27
g2
sS'lowp'
p28
g2
sS'graphics'
p29
g4
sS'model.nzcross'
p30
g2
sS'ok'
p31
S'boolean'
p32
sS'model.blocktype'
p33
S'string'
p34
sS'model.dep_ut'
p35
S'vector_boolean'
p36
sS'exprs'
p37
g34
sS'gr_i'
p38
g9
sS'graphics.exprs'
p39
NsS'y'
p40
g9
sS'x'
p41
NsS'model'
p42
g4
sS'ot'
p43
g2
s.