c__builtin__
set
p0
((lp1
S'x'
p2
aS'model'
p3
aS'x0'
p4
aS'graphics'
p5
atp6
Rp7
.(dp0
S'model.sim'
p1
S'string'
p2
sS'model.in1'
p3
S'double'
p4
sS'model.blocktype'
p5
g2
sS'x.model.firing'
p6
S'vector'
p7
sS'x.graphics'
p8
S'object'
p9
sS'arg1'
p10
g9
sS'graphics.exprs'
p11
NsS'model.dep_ut'
p12
g7
sS'model.out'
p13
g4
sS'exprs'
p14
g4
sS'x.model'
p15
NsS'gr_i'
p16
g7
sS'model.state'
p17
g4
sS'graphics'
p18
g9
sS'y'
p19
g7
sS'x'
p20
g4
sS'model'
p21
g9
sS'typ'
p22
g7
sS'x0'
p23
g4
s.