c__builtin__
set
p0
((lp1
S'maxp'
p2
aS'reinit'
p3
aS'satur'
p4
aS'lowp'
p5
aS'graphics'
p6
aS'x'
p7
aS'model'
p8
aS'x0'
p9
atp10
Rp11
.(dp0
S'model.in'
p1
S'double'
p2
sS'reinit'
p3
g2
sS'rpar'
p4
S'vector'
p5
sS'model.out'
p6
g2
sS'x.model'
p7
NsS'minp'
p8
g2
sS'graphics'
p9
S'object'
p10
sS'x.graphics'
p11
g10
sS'typ'
p12
g5
sS'maxp'
p13
g2
sS'model.sim'
p14
S'list'
p15
sS'model.nmode'
p16
g2
sS'model.rpar'
p17
g5
sS'satur'
p18
g2
sS'model.state'
p19
g2
sS'lowp'
p20
S'string'
p21
sS'graphics.exprs'
p22
NsS'x0'
p23
g5
sS'model.nzcross'
p24
g2
sS'x.graphics.id'
p25
g21
sS'ok'
p26
S'boolean'
p27
sS'model.blocktype'
p28
g21
sS'model.dep_ut'
p29
S'vector_boolean'
p30
sS'exprs'
p31
g21
sS'gr_i'
p32
g5
sS'y'
p33
g5
sS'x'
p34
g5
sS'model'
p35
g10
s.