c__builtin__
set
p0
((lp1
S'x'
p2
aS'model'
p3
aS'x0'
p4
aS'graphics'
p5
atp6
Rp7
.(dp0
S'model.sim'
p1
S'string'
p2
sS'model.out'
p3
S'double'
p4
sS'model.blocktype'
p5
g2
sS'x.model.firing'
p6
S'vector'
p7
sS'x.graphics'
p8
S'object'
p9
sS'graphics'
p10
g9
sS'model.dep_ut'
p11
S'vector_boolean'
p12
sS'exprs'
p13
g4
sS'x.model'
p14
NsS'gr_i'
p15
g7
sS'model.state'
p16
g4
sS'model.in'
p17
g4
sS'graphics.exprs'
p18
NsS'y'
p19
g7
sS'x'
p20
g7
sS'x0'
p21
g4
sS'typ'
p22
g7
sS'model'
p23
g9
s.