c__builtin__
set
p0
((lp1
S'maxp'
p2
aS'reinit'
p3
aS'satur'
p4
aS'lowp'
p5
aS'x'
p6
aS'model'
p7
aS'x0'
p8
atp9
Rp10
.(dp0
S'arg1'
p1
S'object'
p2
sS'reinit'
p3
S'double'
p4
sS'rpar'
p5
S'vector'
p6
sS'model.out'
p7
g4
sS'x.model'
p8
NsS'minp'
p9
g4
sS'graphics'
p10
g2
sS'x.graphics'
p11
g2
sS'typ'
p12
g6
sS'maxp'
p13
g4
sS'model.sim'
p14
S'list'
p15
sS'model.nmode'
p16
g4
sS'model.rpar'
p17
g6
sS'model.in1'
p18
g4
sS'satur'
p19
g4
sS'model.state'
p20
g4
sS'lowp'
p21
S'string'
p22
sS'graphics.exprs'
p23
NsS'x0'
p24
g6
sS'model.nzcross'
p25
g4
sS'x.graphics.id'
p26
g22
sS'[model,graphics,ok]'
p27
g4
sS'ok'
p28
S'boolean'
p29
sS'model.blocktype'
p30
g22
sS'model.dep_ut'
p31
g6
sS'exprs'
p32
g22
sS'gr_i'
p33
g6
sS'y'
p34
g6
sS'x'
p35
g4
sS'model'
p36
g2
s.