c__builtin__
set
p0
((lp1
S'maxp'
p2
aS'reinit'
p3
aS'satur'
p4
aS'lowp'
p5
aS'x'
p6
aS'x0'
p7
atp8
Rp9
.(dp0
S'this.x.graphics'
p1
S'object'
p2
sS'arg1'
p3
g2
sS'graphics.exprs'
p4
NsS'it'
p5
S'matrix'
p6
sS'rpar'
p7
S'vector'
p8
sS'model.out'
p9
S'double'
p10
sS'this.x.model'
p11
NsS'minp'
p12
g10
sS'out'
p13
g10
sS'model.in2'
p14
g10
sS'model.in1'
p15
g10
sS'this.maxp'
p16
g10
sS'this.lowp'
p17
g10
sS'this.satur'
p18
g10
sS'this.reinit'
p19
g10
sS'this.x'
p20
g10
sS'model.sim'
p21
g8
sS'Datatype'
p22
g10
sS'model.out2'
p23
g10
sS'model.nmode'
p24
g10
sS'model.rpar'
p25
g8
sS'in1'
p26
g8
sS'model.state'
p27
g10
sS'graphics'
p28
g2
sS'model.nzcross'
p29
g10
sS'[model,graphics,ok]'
p30
g10
sS'ok'
p31
S'boolean'
p32
sS'model.blocktype'
p33
S'string'
p34
sS'typ'
p35
g8
sS'model.dep_ut'
p36
g8
sS'exprs'
p37
g34
sS'gr_i'
p38
g8
sS'y'
p39
g8
sS'model'
p40
g2
sS'ot'
p41
g10
s.