c__builtin__
set
p0
((lp1
S'maxp'
p2
aS'reinit'
p3
aS'satur'
p4
aS'lowp'
p5
aS'x'
p6
aS'x0'
p7
atp8
Rp9
.c__builtin__
set
p0
((lp1
tp2
Rp3
.c__builtin__
set
p0
((lp1
tp2
Rp3
.c__builtin__
set
p0
((lp1
tp2
Rp3
.c__builtin__
set
p0
((lp1
tp2
Rp3
.c__builtin__
set
p0
((lp1
tp2
Rp3
.