c__builtin__
set
p0
((lp1
S'x'
p2
aS'x0'
p3
atp4
Rp5
.(dp0
S'this.x'
p1
S'double'
p2
sS'model.sim'
p3
S'string'
p4
sS'model.in1'
p5
g2
sS'this.x.model.firing'
p6
S'vector'
p7
sS'this.x.graphics'
p8
S'object'
p9
sS'arg1'
p10
g9
sS'graphics.exprs'
p11
NsS'model.blocktype'
p12
g4
sS'model.dep_ut'
p13
g7
sS'model.out'
p14
g2
sS'this.x.model'
p15
NsS'exprs'
p16
g2
sS'gr_i'
p17
g7
sS'model.state'
p18
NsS'graphics'
p19
g9
sS'y'
p20
g7
sS'model'
p21
g9
sS'typ'
p22
g7
sS'this.x0'
p23
g2
s.