c__builtin__
set
p0
((lp1
S'x'
p2
aS'model'
p3
aS'x0'
p4
aS'graphics'
p5
atp6
Rp7
.(dp0
S'model.sim'
p1
S'string'
p2
sS'model.out'
p3
S'double'
p4
sS'model.blocktype'
p5
g2
sS'x.model.firing'
p6
S'vector'
p7
sS'x.graphics'
p8
S'object'
p9
sS'arg1'
p10
g9
sS'graphics.exprs'
p11
NsS'model.dep_ut'
p12
S'vector_boolean'
p13
sS'exprs'
p14
g4
sS'x.model'
p15
NsS'gr_i'
p16
g7
sS'model.state'
p17
g4
sS'model.in'
p18
g4
sS'graphics'
p19
g9
sS'y'
p20
g7
sS'x'
p21
NsS'model'
p22
g9
sS'typ'
p23
g7
sS'x0'
p24
g4
s.