c__builtin__
set
p0
((lp1
S'maxp'
p2
aS'reinit'
p3
aS'satur'
p4
aS'lowp'
p5
aS'x'
p6
aS'model'
p7
aS'x0'
p8
atp9
Rp10
.(dp0
S'arg1'
p1
S'object'
p2
sS'reinit'
p3
S'double'
p4
sS'it'
p5
S'matrix'
p6
sS'rpar'
p7
S'vector'
p8
sS'model.out'
p9
g4
sS'x.model'
p10
NsS'minp'
p11
g4
sS'out'
p12
g4
sS'model.in2'
p13
g4
sS'model.in1'
p14
g4
sS'x.graphics'
p15
g2
sS'typ'
p16
g8
sS'maxp'
p17
g4
sS'model.sim'
p18
S'list'
p19
sS'Datatype'
p20
g4
sS'[this.model,graphics,ok]'
p21
g4
sS'model.out2'
p22
g4
sS'in1'
p23
g8
sS'model.rpar'
p24
g8
sS'model.nmode'
p25
g4
sS'satur'
p26
g4
sS'model.state'
p27
g4
sS'lowp'
p28
g4
sS'graphics'
p29
g2
sS'model.nzcross'
p30
g4
sS'ok'
p31
S'boolean'
p32
sS'model.blocktype'
p33
S'string'
p34
sS'model.dep_ut'
p35
g8
sS'exprs'
p36
g34
sS'gr_i'
p37
g8
sS'graphics.exprs'
p38
NsS'y'
p39
g8
sS'x'
p40
g4
sS'model'
p41
g2
sS'ot'
p42
g4
s.