c__builtin__
set
p0
((lp1
S'maxp'
p2
aS'reinit'
p3
aS'satur'
p4
aS'lowp'
p5
aS'x'
p6
aS'x0'
p7
atp8
Rp9
.(dp0
S'arg1'
p1
S'object'
p2
sS'graphics'
p3
g2
sS'this.lowp'
p4
S'string'
p5
sS'rpar'
p6
S'vector'
p7
sS'model.nzcross'
p8
S'double'
p9
sS'model.out'
p10
g9
sS'this.x.model'
p11
NsS'minp'
p12
g9
sS'model.in1'
p13
g9
sS'this.maxp'
p14
g9
sS'this.satur'
p15
g9
sS'this.x.graphics.id'
p16
g5
sS'this.reinit'
p17
g9
sS'this.x'
p18
g9
sS'model.sim'
p19
g7
sS'model.nmode'
p20
g9
sS'model.rpar'
p21
g7
sS'model.state'
p22
g9
sS'graphics.exprs'
p23
NsS'this.x.graphics'
p24
g2
sS'model.blocktype'
p25
g5
sS'[model,graphics,ok]'
p26
g9
sS'ok'
p27
S'boolean'
p28
sS'this.x0'
p29
g7
sS'typ'
p30
g7
sS'model.dep_ut'
p31
g7
sS'exprs'
p32
g5
sS'gr_i'
p33
g7
sS'y'
p34
g7
sS'model'
p35
g9
s.