c__builtin__
set
p0
((lp1
S'maxp'
p2
aS'reinit'
p3
aS'satur'
p4
aS'lowp'
p5
aS'x'
p6
aS'model'
p7
aS'x0'
p8
atp9
Rp10
.(dp0
S'arg1'
p1
S'object'
p2
sS'reinit'
p3
S'double'
p4
sS'rpar'
p5
S'vector'
p6
sS'model.out'
p7
g4
sS'x.model'
p8
NsS'minp'
p9
g4
sS'graphics'
p10
g2
sS'x.graphics'
p11
g2
sS'typ'
p12
g6
sS'maxp'
p13
g4
sS'model.sim'
p14
g6
sS'model.nmode'
p15
g4
sS'model.rpar'
p16
g6
sS'model.in1'
p17
g4
sS'satur'
p18
g4
sS'model.state'
p19
g4
sS'lowp'
p20
S'string'
p21
sS'graphics.exprs'
p22
NsS'x0'
p23
g6
sS'model.nzcross'
p24
g4
sS'x.graphics.id'
p25
g21
sS'[model,graphics,ok]'
p26
g4
sS'ok'
p27
S'boolean'
p28
sS'model.blocktype'
p29
g21
sS'model.dep_ut'
p30
g6
sS'exprs'
p31
g21
sS'gr_i'
p32
g6
sS'y'
p33
g6
sS'x'
p34
g4
sS'model'
p35
g2
s.