c__builtin__
set
p0
((lp1
S'maxp'
p2
aS'reinit'
p3
aS'satur'
p4
aS'lowp'
p5
aS'graphics'
p6
aS'x'
p7
aS'model'
p8
aS'x0'
p9
atp10
Rp11
.(dp0
S'arg1'
p1
S'object'
p2
sS'reinit'
p3
S'double'
p4
sS'it'
p5
S'matrix'
p6
sS'rpar'
p7
S'vector'
p8
sS'model.out'
p9
g4
sS'x.model'
p10
NsS'minp'
p11
g4
sS'out'
p12
g4
sS'model.in2'
p13
g4
sS'model.in1'
p14
g4
sS'x.graphics'
p15
g2
sS'typ'
p16
g8
sS'maxp'
p17
g4
sS'model.sim'
p18
S'list'
p19
sS'Datatype'
p20
g4
sS'model.out2'
p21
g4
sS'in1'
p22
g8
sS'model.rpar'
p23
g8
sS'model.nmode'
p24
g4
sS'satur'
p25
g4
sS'model.state'
p26
g4
sS'lowp'
p27
g4
sS'graphics'
p28
g2
sS'model.nzcross'
p29
g4
sS'ok'
p30
S'boolean'
p31
sS'model.blocktype'
p32
S'string'
p33
sS'model.dep_ut'
p34
g8
sS'exprs'
p35
g33
sS'gr_i'
p36
g8
sS'graphics.exprs'
p37
NsS'y'
p38
g8
sS'x'
p39
g4
sS'model'
p40
g2
sS'ot'
p41
g4
s.