c__builtin__
set
p0
((lp1
S'd'
p2
aS'i'
p3
aS'p'
p4
aS'graphics'
p5
aS'x'
p6
aS'model'
p7
atp8
Rp9
.(dp0
S'xx3'
p1
S'object'
p2
sS'exprs[1-1]'
p3
S'double'
p4
sS'xx1'
p5
g2
sS'xx3.graphics.exprs'
p6
g4
sS'xx1.model'
p7
g2
sS'xx2'
p8
g2
sS'ppath'
p9
S'list'
p10
sS'arg1'
p11
g2
sS'xx2.model.rpar'
p12
NsS'xx1.graphics.exprs'
p13
g4
sS'model.rpar'
p14
g4
sS'xx2.model'
p15
g2
sS'gr_i'
p16
S'vector'
p17
sS'model.out2'
p18
g4
sS'model.out'
p19
g4
sS'scs_m.objs[20-1]'
p20
g4
sS'ppath[3-1]'
p21
g4
sS'xx1.model.rpar'
p22
NsS'scs_m.objs[10-1]'
p23
g4
sS'xx3.model.rpar'
p24
NsS'model.intyp'
p25
g4
sS'scs_m.objs[19-1]'
p26
g4
sS'from'
p27
g2
sS'xx2.graphics.exprs'
p28
g4
sS'scs_m.objs[18-1]'
p29
g4
sS'scs_m.objs[2-1]'
p30
g4
sS'xx1.graphics'
p31
g2
sS'arg1.model.rpar.objs[ppath[2-1]-1]'
p32
g2
sS'model.dep_ut'
p33
S'vector_boolean'
p34
sS'scs_m.objs[5-1]'
p35
g4
sS'newpar[size(newpar)+1-1]'
p36
g4
sS'to'
p37
g2
sS'ppath[2-1]'
p38
g4
sS'exprs[2-1]'
p39
g4
sS'scs_m.objs[12-1]'
p40
g4
sS'scs_m.objs[13-1]'
p41
g4
sS'd_old'
p42
NsS'newpar'
p43
g10
sS'model.in2'
p44
g4
sS'scs_m.objs[6-1]'
p45
g4
sS'scs_m.objs[9-1]'
p46
g4
sS'xx2.graphics'
p47
g2
sS'i_old'
p48
NsS'scs_m.objs[3-1]'
p49
g4
sS'arg1.model.rpar.objs[ppath[3-1]-1]'
p50
g2
sS'ppath[1-1]'
p51
g4
sS'exprs[3-1]'
p52
g4
sS'scs_m.objs[14-1]'
p53
g4
sS'scs_m.objs[17-1]'
p54
g4
sS'model.in'
p55
g4
sS'scs_m.objs[4-1]'
p56
g4
sS'scs_m.objs[7-1]'
p57
g4
sS'typ'
p58
g10
sS'model.outtyp'
p59
g4
sS'p_old'
p60
NsS'needcompile'
p61
g4
sS'scs_m'
p62
g4
sS'arg1.model'
p63
g2
sS'xx3.graphics'
p64
g2
sS'model.blocktype'
p65
S'string'
p66
sS'scs_m.objs[8-1]'
p67
g4
sS'xx3.model'
p68
g2
sS'scs_m.objs[21-1]'
p69
g4
sS'scs_m.objs[15-1]'
p70
g4
sS'scs_m.objs[16-1]'
p71
g4
sS'o'
p72
g2
sS'scs_m.objs[1-1]'
p73
g4
sS'model.sim'
p74
g66
sS'scs_m.objs[11-1]'
p75
g4
sS'model.firing'
p76
S'boolean'
p77
sS'arg1.model.rpar.objs[ppath[1-1]-1]'
p78
g2
sS'y'
p79
g4
sS'x'
p80
g2
sS'model'
p81
g2
sS'arg1.model.rpar'
p82
g2
s.