c__builtin__
set
p0
((lp1
S'd'
p2
aS'i'
p3
aS'p'
p4
aS'graphics'
p5
aS'x'
p6
aS'model'
p7
atp8
Rp9
.(dp0
S'xx3'
p1
S'object'
p2
sS'exprs[1-1]'
p3
S'double'
p4
sS'xx1'
p5
g2
sS'xx3.graphics.exprs'
p6
g4
sS'xx1.model'
p7
g2
sS'xx2'
p8
g2
sS'ppath'
p9
S'list'
p10
sS'xx2.model.rpar'
p11
NsS'xx1.graphics.exprs'
p12
g4
sS'o'
p13
g2
sS'scs_m'
p14
g4
sS'model.out2'
p15
g4
sS'model.out'
p16
g4
sS'scs_m.objs[20-1]'
p17
g4
sS'ppath[3-1]'
p18
g4
sS'xx1.model.rpar'
p19
NsS'scs_m.objs[10-1]'
p20
g4
sS'xx3.model.rpar'
p21
NsS'model.intyp'
p22
g4
sS'scs_m.objs[19-1]'
p23
g4
sS'from'
p24
g2
sS'xx2.graphics.exprs'
p25
g4
sS'scs_m.objs[18-1]'
p26
g4
sS'scs_m.objs[2-1]'
p27
g4
sS'xx1.graphics'
p28
g2
sS'model.dep_ut'
p29
S'vector_boolean'
p30
sS'scs_m.objs[5-1]'
p31
g4
sS'newpar[size(newpar)+1-1]'
p32
g4
sS'to'
p33
g2
sS'ppath[2-1]'
p34
g4
sS'model.rpar.objs[ppath[1-1]-1]'
p35
g2
sS'exprs[2-1]'
p36
g4
sS'scs_m.objs[12-1]'
p37
g4
sS'scs_m.objs[13-1]'
p38
g4
sS'd_old'
p39
NsS'newpar'
p40
g10
sS'model.in2'
p41
g4
sS'scs_m.objs[6-1]'
p42
g4
sS'scs_m.objs[9-1]'
p43
g4
sS'xx2.graphics'
p44
g2
sS'model.rpar'
p45
g4
sS'scs_m.objs[3-1]'
p46
g4
sS'model.outtyp'
p47
g4
sS'ppath[1-1]'
p48
g4
sS'exprs[3-1]'
p49
g4
sS'scs_m.objs[14-1]'
p50
g4
sS'i_old'
p51
NsS'model.in'
p52
g4
sS'scs_m.objs[4-1]'
p53
g4
sS'scs_m.objs[7-1]'
p54
g4
sS'typ'
p55
g10
sS'p_old'
p56
NsS'needcompile'
p57
g4
sS'model.rpar.objs[ppath[3-1]-1]'
p58
g2
sS'xx3.graphics'
p59
g2
sS'model.blocktype'
p60
S'string'
p61
sS'scs_m.objs[8-1]'
p62
g4
sS'xx3.model'
p63
g2
sS'scs_m.objs[21-1]'
p64
g4
sS'scs_m.objs[15-1]'
p65
g4
sS'model.rpar.objs[ppath[2-1]-1]'
p66
g2
sS'scs_m.objs[16-1]'
p67
g4
sS'xx2.model'
p68
g2
sS'scs_m.objs[1-1]'
p69
g4
sS'model.sim'
p70
g61
sS'scs_m.objs[11-1]'
p71
g4
sS'model.firing'
p72
S'boolean'
p73
sS'y'
p74
g4
sS'x'
p75
S'vector'
p76
sS'model'
p77
g2
sS'gr_i'
p78
g76
sS'scs_m.objs[17-1]'
p79
g4
s.