c__builtin__
set
p0
((lp1
S'i'
p2
aS'x'
p3
aS'exprs0'
p4
aS'd'
p5
aS'p'
p6
atp7
Rp8
.(dp0
S'xx3'
p1
S'object'
p2
sS'exprs[1-1]'
p3
S'double'
p4
sS'xx1'
p5
g2
sS'xx3.graphics.exprs'
p6
g4
sS'xx1.model'
p7
g2
sS'xx2'
p8
g2
sS'ppath'
p9
S'vector'
p10
sS'arg1'
p11
g2
sS'xx2.model.rpar'
p12
NsS'xx1.graphics.exprs'
p13
g4
sS'xx2.model'
p14
g2
sS'gr_i'
p15
g10
sS'model.out2'
p16
g4
sS'model.out'
p17
g4
sS'scs_m.objs[20-1]'
p18
g4
sS'ppath[3-1]'
p19
g4
sS'xx1.model.rpar'
p20
NsS'scs_m.objs[10-1]'
p21
g4
sS'xx3.model.rpar'
p22
NsS'model.in1'
p23
g4
sS'scs_m.objs[19-1]'
p24
g4
sS'from'
p25
g2
sS'xx2.graphics.exprs'
p26
g4
sS'scs_m.objs[18-1]'
p27
g4
sS'scs_m.objs[2-1]'
p28
g4
sS'xx1.graphics'
p29
g2
sS'arg1.model.rpar.objs[ppath[2-1]-1]'
p30
g2
sS'model.dep_ut'
p31
g10
sS'scs_m.objs[5-1]'
p32
g4
sS'newpar[size(newpar)+1-1]'
p33
g4
sS'to'
p34
g2
sS'ppath[2-1]'
p35
g4
sS'exprs[2-1]'
p36
g4
sS'scs_m.objs[12-1]'
p37
g4
sS'this.x'
p38
g4
sS'scs_m.objs[13-1]'
p39
g4
sS'd_old'
p40
NsS'newpar'
p41
g10
sS'model.in2'
p42
g4
sS'scs_m.objs[6-1]'
p43
g4
sS'scs_m.objs[9-1]'
p44
g4
sS'xx2.graphics'
p45
g2
sS'model.intyp'
p46
g4
sS'i_old'
p47
NsS'scs_m.objs[3-1]'
p48
g4
sS'arg1.model.rpar.objs[ppath[3-1]-1]'
p49
g2
sS'ppath[1-1]'
p50
g4
sS'exprs[3-1]'
p51
g4
sS'scs_m.objs[14-1]'
p52
g4
sS'scs_m.objs[17-1]'
p53
g4
sS'scs_m.objs[4-1]'
p54
g4
sS'scs_m.objs[7-1]'
p55
g4
sS'typ'
p56
g10
sS'model.outtyp'
p57
g4
sS'p_old'
p58
NsS'needcompile'
p59
g4
sS'scs_m'
p60
g4
sS'arg1.model'
p61
g2
sS'xx3.graphics'
p62
g2
sS'model.blocktype'
p63
S'string'
p64
sS'scs_m.objs[8-1]'
p65
g4
sS'xx3.model'
p66
g2
sS'scs_m.objs[21-1]'
p67
g4
sS'scs_m.objs[15-1]'
p68
g4
sS'scs_m.objs[16-1]'
p69
g4
sS'o'
p70
g2
sS'scs_m.objs[1-1]'
p71
g4
sS'model.sim'
p72
g64
sS'scs_m.objs[11-1]'
p73
g4
sS'model.firing'
p74
S'boolean'
p75
sS'arg1.model.rpar.objs[ppath[1-1]-1]'
p76
g2
sS'y'
p77
g4
sS'model.rpar'
p78
g4
sS'model'
p79
g4
sS'arg1.model.rpar'
p80
g2
s.