c__builtin__
set
p0
((lp1
S'i'
p2
aS'x'
p3
aS'exprs0'
p4
aS'd'
p5
aS'p'
p6
atp7
Rp8
.c__builtin__
set
p0
((lp1
tp2
Rp3
.c__builtin__
set
p0
((lp1
tp2
Rp3
.c__builtin__
set
p0
((lp1
tp2
Rp3
.c__builtin__
set
p0
((lp1
tp2
Rp3
.c__builtin__
set
p0
((lp1
tp2
Rp3
.