c__builtin__
set
p0
((lp1
S'd'
p2
aS'p'
p3
aS'i'
p4
aS'exprs0'
p5
aS'exprs'
p6
aS'gr_i'
p7
aS'graphics'
p8
aS'x'
p9
aS'model'
p10
atp11
Rp12
.(dp0
S'xx3'
p1
S'object'
p2
sS'exprs[1-1]'
p3
S'double'
p4
sS'xx1'
p5
g2
sS'xx3.graphics.exprs'
p6
g4
sS'xx1.model'
p7
g2
sS'xx2'
p8
g2
sS'ppath'
p9
S'list'
p10
sS'arg1'
p11
g2
sS'xx2.model.rpar'
p12
NsS'xx1.graphics.exprs'
p13
g4
sS'model.rpar'
p14
g4
sS'xx2.model'
p15
g2
sS'gr_i'
p16
S'vector'
p17
sS'model.out2'
p18
g4
sS'model.out'
p19
g4
sS'scs_m.objs[20-1]'
p20
g4
sS'ppath[3-1]'
p21
g4
sS'xx1.model.rpar'
p22
NsS'scs_m.objs[10-1]'
p23
g4
sS'xx3.model.rpar'
p24
NsS'model.intyp'
p25
g4
sS'scs_m.objs[19-1]'
p26
g4
sS'from'
p27
g2
sS'xx2.graphics.exprs'
p28
g4
sS'scs_m.objs[18-1]'
p29
g4
sS'scs_m.objs[2-1]'
p30
g4
sS'xx1.graphics'
p31
g2
sS'arg1.model.rpar.objs[ppath[2-1]-1]'
p32
g2
sS'model.dep_ut'
p33
g17
sS'scs_m.objs[5-1]'
p34
g4
sS'newpar[size(newpar)+1-1]'
p35
g4
sS'to'
p36
g2
sS'ppath[2-1]'
p37
g4
sS'exprs[2-1]'
p38
g4
sS'scs_m.objs[12-1]'
p39
g4
sS'scs_m.objs[13-1]'
p40
g4
sS'd_old'
p41
NsS'newpar'
p42
g10
sS'model.in2'
p43
g4
sS'scs_m.objs[6-1]'
p44
g4
sS'scs_m.objs[9-1]'
p45
g4
sS'xx2.graphics'
p46
g2
sS'i_old'
p47
NsS'scs_m.objs[3-1]'
p48
g4
sS'arg1.model.rpar.objs[ppath[3-1]-1]'
p49
g2
sS'ppath[1-1]'
p50
g4
sS'exprs[3-1]'
p51
g4
sS'scs_m.objs[14-1]'
p52
g4
sS'scs_m.objs[17-1]'
p53
g4
sS'model.in'
p54
g4
sS'scs_m.objs[4-1]'
p55
g4
sS'scs_m.objs[7-1]'
p56
g4
sS'typ'
p57
g10
sS'model.outtyp'
p58
g4
sS'p_old'
p59
NsS'needcompile'
p60
g4
sS'scs_m'
p61
g4
sS'arg1.model'
p62
g2
sS'xx3.graphics'
p63
g2
sS'model.blocktype'
p64
S'string'
p65
sS'scs_m.objs[8-1]'
p66
g4
sS'xx3.model'
p67
g2
sS'scs_m.objs[21-1]'
p68
g4
sS'scs_m.objs[15-1]'
p69
g4
sS'scs_m.objs[16-1]'
p70
g4
sS'o'
p71
g2
sS'scs_m.objs[1-1]'
p72
g4
sS'model.sim'
p73
g65
sS'scs_m.objs[11-1]'
p74
g4
sS'model.firing'
p75
S'boolean'
p76
sS'arg1.model.rpar.objs[ppath[1-1]-1]'
p77
g2
sS'y'
p78
g4
sS'x'
p79
g4
sS'model'
p80
g2
sS'arg1.model.rpar'
p81
g2
s.