c__builtin__
set
p0
((lp1
S'x'
p2
aS'z0'
p3
aS'it'
p4
atp5
Rp6
.(dp0
S'model.odstate'
p1
S'vector'
p2
sS'model.dstate'
p3
NsS'arg1'
p4
S'object'
p5
sS'graphics'
p6
g5
sS'this.x.model'
p7
NsS'model.out'
p8
S'double'
p9
sS'model.in1'
p10
g9
sS'typ'
p11
g2
sS'model.evtin'
p12
g9
sS'this.x'
p13
g9
sS'model.sim'
p14
g2
sS'in1'
p15
g2
sS'graphics.exprs'
p16
S'matrix'
p17
sS'this.x.graphics'
p18
g5
sS'[model,graphics,ok]'
p19
g9
sS'ok'
p20
S'boolean'
p21
sS'model.blocktype'
p22
S'string'
p23
sS'model.dep_ut'
p24
g2
sS'exprs'
p25
g9
sS'gr_i'
p26
g2
sS'y'
p27
g2
sS'model'
p28
g5
sS'this.z0'
p29
g9
s.