c__builtin__
set
p0
((lp1
S'x'
p2
aS'model'
p3
aS'z0'
p4
aS'graphics'
p5
atp6
Rp7
.(dp0
S'model.sim'
p1
S'string'
p2
sS'model.out'
p3
S'double'
p4
sS'ok'
p5
S'boolean'
p6
sS'model.evtin'
p7
g4
sS'x.graphics'
p8
S'object'
p9
sS'z0'
p10
g4
sS'graphics.exprs'
p11
NsS'model.dstate'
p12
g4
sS'exprs'
p13
g4
sS'x.model'
p14
NsS'gr_i'
p15
S'vector'
p16
sS'model.dep_ut'
p17
S'vector_boolean'
p18
sS'model.in'
p19
g4
sS'graphics'
p20
g9
sS'y'
p21
g16
sS'x'
p22
g16
sS'model'
p23
g9
sS'typ'
p24
g16
sS'model.blocktype'
p25
g2
s.