c__builtin__
set
p0
((lp1
S'x'
p2
aS'model'
p3
aS'z0'
p4
aS'it'
p5
aS'graphics'
p6
atp7
Rp8
.(dp0
S'model.odstate'
p1
S'list'
p2
sS'model.dstate'
p3
S'double'
p4
sS'arg1'
p5
S'object'
p6
sS'graphics'
p7
g6
sS'x.model'
p8
NsS'model.out'
p9
g4
sS'model.in1'
p10
g4
sS'x.graphics'
p11
g6
sS'typ'
p12
S'vector'
p13
sS'model.evtin'
p14
g4
sS'model.sim'
p15
g2
sS'in1'
p16
g13
sS'graphics.exprs'
p17
S'matrix'
p18
sS'z0'
p19
g4
sS'ok'
p20
S'boolean'
p21
sS'model.blocktype'
p22
S'string'
p23
sS'model.dep_ut'
p24
g13
sS'exprs'
p25
g4
sS'gr_i'
p26
g13
sS'y'
p27
g13
sS'x'
p28
g4
sS'model'
p29
g6
s.