c__builtin__
set
p0
((lp1
S'exprs'
p2
aS'gr_i'
p3
aS'graphics'
p4
aS'x'
p5
aS'model'
p6
aS'z0'
p7
atp8
Rp9
.(dp0
S'model.sim'
p1
S'string'
p2
sS'model.out'
p3
S'double'
p4
sS'ok'
p5
S'boolean'
p6
sS'model.evtin'
p7
g4
sS'x.graphics'
p8
S'object'
p9
sS'arg1'
p10
g9
sS'graphics.exprs'
p11
NsS'model.dstate'
p12
g4
sS'exprs'
p13
g4
sS'x.model'
p14
NsS'gr_i'
p15
S'vector'
p16
sS'z0'
p17
g4
sS'model.dep_ut'
p18
g16
sS'model.in'
p19
g4
sS'graphics'
p20
g9
sS'y'
p21
g16
sS'x'
p22
g4
sS'model'
p23
g9
sS'typ'
p24
g16
sS'model.blocktype'
p25
g2
s.