c__builtin__
set
p0
((lp1
S'x'
p2
aS'z0'
p3
atp4
Rp5
.(dp0
S'model.sim'
p1
S'string'
p2
sS'model.in1'
p3
S'double'
p4
sS'ok'
p5
S'boolean'
p6
sS'model.evtin'
p7
g4
sS'x.graphics'
p8
S'object'
p9
sS'arg1'
p10
g9
sS'graphics.exprs'
p11
NsS'model.dstate'
p12
g4
sS'model.blocktype'
p13
g2
sS'exprs'
p14
g4
sS'x.model'
p15
NsS'gr_i'
p16
S'vector'
p17
sS'z0'
p18
g4
sS'model.dep_ut'
p19
g17
sS'graphics'
p20
g9
sS'y'
p21
g17
sS'x'
p22
g4
sS'model'
p23
g9
sS'typ'
p24
g17
sS'model.out'
p25
g4
s.