c__builtin__
set
p0
((lp1
S'x'
p2
aS'z0'
p3
atp4
Rp5
.(dp0
S'this.x'
p1
S'double'
p2
sS'model.sim'
p3
S'string'
p4
sS'model.in1'
p5
g2
sS'ok'
p6
S'boolean'
p7
sS'model.evtin'
p8
g2
sS'this.x.graphics'
p9
S'object'
p10
sS'arg1'
p11
g10
sS'graphics.exprs'
p12
NsS'model.out'
p13
g2
sS'this.x.model'
p14
NsS'exprs'
p15
g2
sS'gr_i'
p16
S'vector'
p17
sS'model.dep_ut'
p18
g17
sS'graphics'
p19
g10
sS'y'
p20
g17
sS'model.dstate'
p21
NsS'model'
p22
g10
sS'this.z0'
p23
g2
sS'typ'
p24
g17
sS'model.blocktype'
p25
g4
s.