c__builtin__
set
p0
((lp1
S'it'
p2
aS'exprs'
p3
aS'gr_i'
p4
aS'graphics'
p5
aS'x'
p6
aS'model'
p7
aS'z0'
p8
atp9
Rp10
.(dp0
S'model.odstate'
p1
S'list'
p2
sS'model.dstate'
p3
S'double'
p4
sS'arg1'
p5
S'object'
p6
sS'graphics'
p7
g6
sS'x.model'
p8
NsS'model.out'
p9
g4
sS'x.graphics'
p10
g6
sS'typ'
p11
S'vector'
p12
sS'model.evtin'
p13
g4
sS'model.sim'
p14
g2
sS'in1'
p15
g12
sS'model.in'
p16
g4
sS'graphics.exprs'
p17
S'matrix'
p18
sS'z0'
p19
g4
sS'ok'
p20
S'boolean'
p21
sS'model.blocktype'
p22
S'string'
p23
sS'model.dep_ut'
p24
g12
sS'exprs'
p25
g4
sS'gr_i'
p26
g12
sS'y'
p27
g12
sS'x'
p28
NsS'model'
p29
g6
s.