c__builtin__
set
p0
((lp1
S'x'
p2
aS'model'
p3
aS'z0'
p4
aS'it'
p5
aS'graphics'
p6
atp7
Rp8
.(dp0
S'model.odstate'
p1
S'list'
p2
sS'model.sim'
p3
g2
sS'model.out'
p4
S'double'
p5
sS'ok'
p6
S'boolean'
p7
sS'model.evtin'
p8
g5
sS'x.graphics'
p9
S'object'
p10
sS'z0'
p11
g5
sS'graphics.exprs'
p12
S'matrix'
p13
sS'in1'
p14
S'vector'
p15
sS'model.dstate'
p16
g5
sS'exprs'
p17
g5
sS'x.model'
p18
NsS'gr_i'
p19
g15
sS'model.dep_ut'
p20
S'vector_boolean'
p21
sS'model.in'
p22
g5
sS'graphics'
p23
g10
sS'y'
p24
g15
sS'x'
p25
g15
sS'model'
p26
g10
sS'typ'
p27
g15
sS'model.blocktype'
p28
S'string'
p29
s.