c__builtin__
set
p0
((lp1
S'it'
p2
aS'exprs'
p3
aS'gr_i'
p4
aS'graphics'
p5
aS'x'
p6
aS'model'
p7
atp8
Rp9
.(dp0
S'arg1'
p1
S'object'
p2
sS'graphics'
p3
g2
sS'model.out'
p4
S'double'
p5
sS'model.in2'
p6
g5
sS'model.intyp'
p7
g5
sS'x.model.firing'
p8
S'vector'
p9
sS'label'
p10
S'vector_string'
p11
sS'model.evtin'
p12
g5
sS'model.sim'
p13
S'list'
p14
sS'arg1.graphics'
p15
g2
sS'model.out2'
p16
g5
sS'in1'
p17
g9
sS'model.outtyp'
p18
g5
sS'model.in'
p19
g5
sS'graphics.exprs'
p20
NsS'typ'
p21
g9
sS'arg1.model'
p22
g2
sS'ok'
p23
S'boolean'
p24
sS'model.blocktype'
p25
S'string'
p26
sS'model.dep_ut'
p27
S'vector_boolean'
p28
sS'gr_i'
p29
g9
sS'y'
p30
g9
sS'x'
p31
g2
sS'model'
p32
g2
s.