c__builtin__
set
p0
((lp1
S'x'
p2
aS'it'
p3
atp4
Rp5
.(dp0
S'arg1'
p1
S'object'
p2
sS'graphics'
p3
g2
sS'model.out'
p4
S'double'
p5
sS'model.in2'
p6
g5
sS'model.intyp'
p7
g5
sS'x.model.firing'
p8
S'vector'
p9
sS'label'
p10
g9
sS'model.evtin'
p11
g5
sS'model.sim'
p12
g9
sS'arg1.graphics'
p13
g2
sS'model.out2'
p14
g5
sS'in1'
p15
g9
sS'model.in1'
p16
g5
sS'model.outtyp'
p17
g5
sS'graphics.exprs'
p18
NsS'typ'
p19
g9
sS'[model,graphics,ok]'
p20
g5
sS'arg1.model'
p21
g2
sS'ok'
p22
S'boolean'
p23
sS'model.blocktype'
p24
S'string'
p25
sS'model.dep_ut'
p26
g9
sS'gr_i'
p27
g9
sS'y'
p28
g9
sS'x'
p29
g5
sS'model'
p30
g2
s.