c__builtin__
set
p0
((lp1
S'x'
p2
atp3
Rp4
.(dp0
S'this.x'
p1
S'double'
p2
sS'model.sim'
p3
S'vector'
p4
sS'model.in1'
p5
g2
sS'this.x.model.firing'
p6
g4
sS'model.evtin'
p7
g2
sS'in1'
p8
g2
sS'model.dep_ut'
p9
g4
sS'model.out'
p10
g2
sS'gr_i'
p11
g4
sS'y'
p12
g4
sS'model'
p13
S'object'
p14
sS'typ'
p15
g4
sS'model.blocktype'
p16
S'string'
p17
s.