c__builtin__
set
p0
((lp1
S'x'
p2
aS'model'
p3
atp4
Rp5
.(dp0
S'model.sim'
p1
S'list'
p2
sS'model.in1'
p3
S'double'
p4
sS'model.blocktype'
p5
S'string'
p6
sS'x.model.firing'
p7
S'vector'
p8
sS'model.evtin'
p9
g4
sS'in1'
p10
g4
sS'model.dep_ut'
p11
g8
sS'model.out'
p12
g4
sS'gr_i'
p13
g8
sS'y'
p14
g8
sS'x'
p15
g4
sS'model'
p16
S'object'
p17
sS'typ'
p18
g8
s.