c__builtin__
set
p0
((lp1
S'x'
p2
aS'model'
p3
aS'graphics'
p4
atp5
Rp6
.(dp0
S'model.sim'
p1
S'list'
p2
sS'model.blocktype'
p3
S'string'
p4
sS'x.model.firing'
p5
S'vector'
p6
sS'model.evtin'
p7
S'double'
p8
sS'in1'
p9
g8
sS'model.dep_ut'
p10
S'vector_boolean'
p11
sS'model.out'
p12
g8
sS'gr_i'
p13
g6
sS'model.in'
p14
g8
sS'y'
p15
g6
sS'x'
p16
NsS'model'
p17
S'object'
p18
sS'typ'
p19
g6
s.