c__builtin__
set
p0
((lp1
S'x'
p2
aS'model'
p3
aS'it'
p4
atp5
Rp6
.(dp0
S'arg1'
p1
S'object'
p2
sS'graphics'
p3
g2
sS'model.out'
p4
S'double'
p5
sS'model.in2'
p6
g5
sS'model.intyp'
p7
g5
sS'x.model.firing'
p8
S'vector'
p9
sS'label'
p10
g9
sS'model.evtin'
p11
g5
sS'model.sim'
p12
S'list'
p13
sS'arg1.graphics'
p14
g2
sS'model.out2'
p15
g5
sS'in1'
p16
g9
sS'model.in1'
p17
g5
sS'model.outtyp'
p18
g5
sS'graphics.exprs'
p19
NsS'typ'
p20
g9
sS'arg1.model'
p21
g2
sS'ok'
p22
S'boolean'
p23
sS'model.blocktype'
p24
S'string'
p25
sS'model.dep_ut'
p26
g9
sS'gr_i'
p27
g9
sS'y'
p28
g9
sS'x'
p29
g5
sS'model'
p30
g2
s.