c__builtin__
set
p0
((lp1
S'x'
p2
aS'model'
p3
aS'graphics'
p4
atp5
Rp6
.(dp0
S'model.sim'
p1
S'string'
p2
sS'model.blocktype'
p3
g2
sS'x.model.firing'
p4
S'vector'
p5
sS'model.evtin'
p6
S'double'
p7
sS'in1'
p8
g7
sS'model.dep_ut'
p9
S'vector_boolean'
p10
sS'model.out'
p11
g7
sS'gr_i'
p12
g5
sS'model.in'
p13
g7
sS'y'
p14
g5
sS'x'
p15
g5
sS'model'
p16
S'object'
p17
sS'typ'
p18
g5
s.