c__builtin__
set
p0
((lp1
S'it'
p2
aS'exprs'
p3
aS'gr_i'
p4
aS'graphics'
p5
aS'x'
p6
aS'model'
p7
atp8
Rp9
.(dp0
S'arg1'
p1
S'object'
p2
sS'graphics'
p3
g2
sS'model.out'
p4
S'double'
p5
sS'model.in2'
p6
g5
sS'model.intyp'
p7
g5
sS'x.model.firing'
p8
S'vector'
p9
sS'label'
p10
g9
sS'model.evtin'
p11
g5
sS'model.sim'
p12
S'list'
p13
sS'arg1.graphics'
p14
g2
sS'model.out2'
p15
g5
sS'in1'
p16
g9
sS'model.outtyp'
p17
g5
sS'model.in'
p18
g5
sS'graphics.exprs'
p19
NsS'typ'
p20
g9
sS'arg1.model'
p21
g2
sS'ok'
p22
S'boolean'
p23
sS'model.blocktype'
p24
S'string'
p25
sS'model.dep_ut'
p26
S'vector_boolean'
p27
sS'gr_i'
p28
g9
sS'y'
p29
g9
sS'x'
p30
g2
sS'model'
p31
g2
s.