c__builtin__
set
p0
((lp1
S'x'
p2
aS'model'
p3
aS'it'
p4
aS'graphics'
p5
atp6
Rp7
.(dp0
S'model.sim'
p1
S'list'
p2
sS'model.intyp'
p3
S'double'
p4
sS'model.out2'
p5
g4
sS'ok'
p6
S'boolean'
p7
sS'model.evtin'
p8
g4
sS'x.model.firing'
p9
S'vector'
p10
sS'model.in2'
p11
g4
sS'graphics.exprs'
p12
NsS'in1'
p13
g10
sS'model.out'
p14
g4
sS'label'
p15
S'vector_string'
p16
sS'model.outtyp'
p17
g4
sS'gr_i'
p18
g10
sS'model.dep_ut'
p19
S'vector_boolean'
p20
sS'model.in'
p21
g4
sS'graphics'
p22
S'object'
p23
sS'y'
p24
g10
sS'x'
p25
g10
sS'model'
p26
g23
sS'typ'
p27
g10
sS'model.blocktype'
p28
S'string'
p29
s.