c__builtin__
set
p0
((lp1
S'x'
p2
aS'model'
p3
aS'graphics'
p4
atp5
Rp6
.(dp0
S'model.sim'
p1
S'list'
p2
sS'model.out'
p3
S'double'
p4
sS'model.in'
p5
S'matrix'
p6
sS'exprs'
p7
g6
sS'arg1'
p8
S'object'
p9
sS'sgn'
p10
g6
sS'model.rpar'
p11
g6
sS'labs'
p12
S'vector_string'
p13
sS'p'
p14
g4
sS'gr_i'
p15
S'vector'
p16
sS'model.dep_ut'
p17
S'vector_boolean'
p18
sS'str'
p19
g6
sS'graphics'
p20
g9
sS'y'
p21
g16
sS'x'
p22
NsS'model'
p23
g9
sS'typ'
p24
g16
sS'model.blocktype'
p25
S'string'
p26
s.