c__builtin__
set
p0
((lp1
S'x'
p2
atp3
Rp4
.(dp0
S'this.x'
p1
S'double'
p2
sS'model.sim'
p3
S'vector'
p4
sS'model.in1'
p5
S'matrix'
p6
sS'model.blocktype'
p7
S'string'
p8
sS'exprs'
p9
g6
sS'arg1'
p10
S'object'
p11
sS'sgn'
p12
g6
sS'model.dep_ut'
p13
g4
sS'model.out'
p14
g2
sS'labs'
p15
g4
sS'p'
p16
g2
sS'gr_i'
p17
g4
sS'model.rpar'
p18
g6
sS'str'
p19
g6
sS'graphics'
p20
g11
sS'y'
p21
g4
sS'model'
p22
g2
sS'typ'
p23
g4
s.