c__builtin__
set
p0
((lp1
S'x'
p2
atp3
Rp4
.(dp0
S'model.sim'
p1
S'vector'
p2
sS'model.in1'
p3
S'matrix'
p4
sS'model.blocktype'
p5
S'string'
p6
sS'exprs'
p7
g4
sS'arg1'
p8
S'object'
p9
sS'sgn'
p10
g4
sS'model.dep_ut'
p11
g2
sS'model.out'
p12
S'double'
p13
sS'labs'
p14
g2
sS'p'
p15
g13
sS'gr_i'
p16
g2
sS'model.rpar'
p17
g4
sS'str'
p18
g4
sS'graphics'
p19
g9
sS'y'
p20
g2
sS'x'
p21
g13
sS'model'
p22
g9
sS'typ'
p23
g2
s.