c__builtin__
set
p0
((lp1
S'x'
p2
aS'model'
p3
aS'graphics'
p4
atp5
Rp6
.(dp0
S'model.sim'
p1
S'list'
p2
sS'model.out'
p3
S'double'
p4
sS'model.in'
p5
S'matrix'
p6
sS'p'
p7
g4
sS'sgn'
p8
g6
sS'model.rpar'
p9
g6
sS'labs'
p10
S'vector_string'
p11
sS'exprs'
p12
g6
sS'gr_i'
p13
S'vector'
p14
sS'model.dep_ut'
p15
S'vector_boolean'
p16
sS'str'
p17
g6
sS'graphics'
p18
S'object'
p19
sS'y'
p20
g14
sS'x'
p21
g14
sS'model'
p22
g19
sS'typ'
p23
g14
sS'model.blocktype'
p24
S'string'
p25
s.