c__builtin__
set
p0
((lp1
S'x'
p2
aS'model'
p3
aS'gr_i'
p4
aS'exprs'
p5
aS'graphics'
p6
atp7
Rp8
.(dp0
S'model.sim'
p1
S'list'
p2
sS'model.out'
p3
S'double'
p4
sS'model.in'
p5
S'matrix'
p6
sS'exprs'
p7
g6
sS'arg1'
p8
S'object'
p9
sS'sgn'
p10
g6
sS'model.rpar'
p11
g6
sS'labs'
p12
S'vector'
p13
sS'p'
p14
g4
sS'gr_i'
p15
g13
sS'model.dep_ut'
p16
S'vector_boolean'
p17
sS'str'
p18
g6
sS'graphics'
p19
g9
sS'y'
p20
g13
sS'x'
p21
NsS'model'
p22
g9
sS'typ'
p23
g13
sS'model.blocktype'
p24
S'string'
p25
s.