c__builtin__
set
p0
((lp1
S'x'
p2
aS'model'
p3
aS'gr_i'
p4
aS'exprs'
p5
aS'graphics'
p6
atp7
Rp8
.(dp0
S'model.sim'
p1
S'list'
p2
sS'model.in1'
p3
S'matrix'
p4
sS'model.blocktype'
p5
S'string'
p6
sS'exprs'
p7
g4
sS'arg1'
p8
S'object'
p9
sS'sgn'
p10
g4
sS'model.dep_ut'
p11
S'vector'
p12
sS'model.out'
p13
S'double'
p14
sS'labs'
p15
g12
sS'p'
p16
g14
sS'gr_i'
p17
g12
sS'model.rpar'
p18
g4
sS'str'
p19
g4
sS'graphics'
p20
g9
sS'y'
p21
g12
sS'x'
p22
g14
sS'model'
p23
g9
sS'typ'
p24
g12
s.