c__builtin__
set
p0
((lp1
S'x'
p2
atp3
Rp4
.(dp0
S'this.x'
p1
S'double'
p2
sS'model.sim'
p3
S'vector'
p4
sS'model.in1'
p5
S'matrix'
p6
sS'model.blocktype'
p7
S'string'
p8
sS'exprs'
p9
g4
sS'model.out'
p10
g2
sS'p'
p11
g2
sS'gr_i'
p12
g4
sS'model.dep_ut'
p13
g4
sS'y'
p14
g4
sS'model'
p15
S'object'
p16
sS'typ'
p17
g4
s.