c__builtin__
set
p0
((lp1
S'x'
p2
aS'model'
p3
aS'gr_i'
p4
aS'exprs'
p5
aS'graphics'
p6
atp7
Rp8
.(dp0
S'model.sim'
p1
S'list'
p2
sS'model.in1'
p3
S'matrix'
p4
sS'model.blocktype'
p5
S'string'
p6
sS'exprs'
p7
S'vector'
p8
sS'model.out'
p9
S'double'
p10
sS'p'
p11
g10
sS'gr_i'
p12
g8
sS'model.dep_ut'
p13
g8
sS'y'
p14
g8
sS'x'
p15
g10
sS'model'
p16
S'object'
p17
sS'typ'
p18
g8
s.