c__builtin__
set
p0
((lp1
S'x'
p2
aS'model'
p3
atp4
Rp5
.(dp0
S'model.sim'
p1
S'vector'
p2
sS'model.in1'
p3
S'matrix'
p4
sS'model.blocktype'
p5
S'string'
p6
sS'exprs'
p7
g2
sS'model.out'
p8
S'double'
p9
sS'p'
p10
g9
sS'gr_i'
p11
g2
sS'model.dep_ut'
p12
g2
sS'y'
p13
g2
sS'x'
p14
g9
sS'model'
p15
S'object'
p16
sS'typ'
p17
g2
s.