c__builtin__
set
p0
((lp1
S'x'
p2
aS'model'
p3
aS'graphics'
p4
atp5
Rp6
.(dp0
S'model.sim'
p1
S'list'
p2
sS'model.out'
p3
S'double'
p4
sS'model.blocktype'
p5
S'string'
p6
sS'exprs'
p7
S'vector'
p8
sS'model.dep_ut'
p9
S'vector_boolean'
p10
sS'p'
p11
g4
sS'gr_i'
p12
g8
sS'model.in'
p13
S'matrix'
p14
sS'y'
p15
g8
sS'x'
p16
NsS'model'
p17
S'object'
p18
sS'typ'
p19
g8
s.