c__builtin__
set
p0
((lp1
S'Datatype'
p2
aS'x'
p3
aS'model'
p4
aS'satur'
p5
aS'sgn'
p6
atp7
Rp8
.(dp0
S'arg1'
p1
S'object'
p2
sS'graphics'
p3
g2
sS'it'
p4
S'string'
p5
sS'x.model'
p6
NsS'sgn'
p7
S'matrix'
p8
sS'model.out'
p9
S'double'
p10
sS'model.in2'
p11
g8
sS'model.in1'
p12
g8
sS'x.graphics'
p13
g2
sS'model.sim'
p14
S'list'
p15
sS'[this.model,graphics,ok]'
p16
g10
sS'model.out2'
p17
g10
sS'in1'
p18
g10
sS'in2'
p19
g10
sS'model.rpar'
p20
NsS'graphics.exprs'
p21
g8
sS'nout2'
p22
g10
sS'model.ipar'
p23
g8
sS'typ'
p24
S'vector'
p25
sS'ok'
p26
S'boolean'
p27
sS'model.blocktype'
p28
g5
sS'model.dep_ut'
p29
g25
sS'exprs'
p30
g10
sS'gr_i'
p31
g25
sS'y'
p32
g25
sS'x'
p33
g10
sS'model'
p34
g2
sS'ot'
p35
NsS'nout'
p36
g10
s.