c__builtin__
set
p0
((lp1
S'Datatype'
p2
aS'graphics'
p3
aS'satur'
p4
aS'sgn'
p5
aS'x'
p6
aS'model'
p7
atp8
Rp9
.(dp0
S'graphics'
p1
S'object'
p2
sS'it'
p3
S'string'
p4
sS'x.model'
p5
NsS'sgn'
p6
S'matrix'
p7
sS'model.out'
p8
S'double'
p9
sS'model.in2'
p10
g7
sS'x.graphics'
p11
g2
sS'model.sim'
p12
S'list'
p13
sS'model.out2'
p14
g9
sS'in1'
p15
g9
sS'in2'
p16
g9
sS'model.rpar'
p17
NsS'model.in'
p18
g7
sS'graphics.exprs'
p19
g7
sS'nout2'
p20
g9
sS'model.ipar'
p21
g7
sS'typ'
p22
S'vector'
p23
sS'ok'
p24
S'boolean'
p25
sS'model.blocktype'
p26
g4
sS'model.dep_ut'
p27
S'vector_boolean'
p28
sS'exprs'
p29
g4
sS'gr_i'
p30
g23
sS'y'
p31
g23
sS'x'
p32
g23
sS'model'
p33
g2
sS'ot'
p34
NsS'nout'
p35
g9
s.