c__builtin__
set
p0
((lp1
S'Datatype'
p2
aS'sgn'
p3
aS'exprs'
p4
aS'gr_i'
p5
aS'satur'
p6
aS'graphics'
p7
aS'x'
p8
aS'model'
p9
atp10
Rp11
.(dp0
S'arg1'
p1
S'object'
p2
sS'graphics'
p3
g2
sS'it'
p4
S'string'
p5
sS'x.model'
p6
NsS'sgn'
p7
S'matrix'
p8
sS'model.out'
p9
S'double'
p10
sS'model.in2'
p11
g8
sS'x.graphics'
p12
g2
sS'model.sim'
p13
S'list'
p14
sS'model.out2'
p15
g10
sS'in1'
p16
g10
sS'in2'
p17
g10
sS'model.rpar'
p18
NsS'model.in'
p19
g8
sS'graphics.exprs'
p20
g8
sS'nout2'
p21
g10
sS'model.ipar'
p22
g8
sS'typ'
p23
S'vector'
p24
sS'ok'
p25
S'boolean'
p26
sS'model.blocktype'
p27
g5
sS'model.dep_ut'
p28
g24
sS'exprs'
p29
g5
sS'gr_i'
p30
g24
sS'y'
p31
g24
sS'x'
p32
NsS'model'
p33
g2
sS'ot'
p34
NsS'nout'
p35
g10
s.