c__builtin__
set
p0
((lp1
S'Datatype'
p2
aS'x'
p3
aS'satur'
p4
aS'sgn'
p5
atp6
Rp7
.(dp0
S'arg1'
p1
S'object'
p2
sS'graphics'
p3
g2
sS'it'
p4
S'string'
p5
sS'this.x.model'
p6
NsS'model.out'
p7
S'double'
p8
sS'model.in2'
p9
S'matrix'
p10
sS'model.in1'
p11
g10
sS'this.sgn'
p12
g10
sS'typ'
p13
S'vector'
p14
sS'this.x'
p15
g8
sS'model.sim'
p16
g14
sS'model.out2'
p17
g8
sS'in1'
p18
g8
sS'in2'
p19
g8
sS'model.rpar'
p20
NsS'graphics.exprs'
p21
g10
sS'nout2'
p22
g8
sS'model.ipar'
p23
NsS'this.x.graphics'
p24
g2
sS'[model,graphics,ok]'
p25
g8
sS'ok'
p26
S'boolean'
p27
sS'model.blocktype'
p28
g5
sS'model.dep_ut'
p29
g14
sS'exprs'
p30
g8
sS'gr_i'
p31
g14
sS'y'
p32
g14
sS'model'
p33
g2
sS'ot'
p34
NsS'nout'
p35
g8
s.