c__builtin__
set
p0
((lp1
S'A'
p2
aS'C'
p3
aS'B'
p4
aS'D'
p5
aS'x'
p6
aS'x0'
p7
atp8
Rp9
.(dp0
S'arg1'
p1
S'object'
p2
sS'graphics'
p3
g2
sS'rpar'
p4
S'matrix'
p5
sS'x.model'
p6
g2
sS'model.dep_ut'
p7
S'vector'
p8
sS'model.out'
p9
S'double'
p10
sS'out'
p11
g10
sS'model.in1'
p12
g5
sS'x.graphics'
p13
g2
sS'nx'
p14
g10
sS'model.evtin'
p15
g10
sS'A'
p16
g10
sS'model.sim'
p17
g8
sS'C'
p18
g10
sS'B'
p19
g10
sS'D'
p20
g10
sS'in1'
p21
g10
sS'model.rpar'
p22
g5
sS'mmm'
p23
g8
sS'model.state'
p24
g10
sS'graphics.exprs'
p25
g10
sS'x0'
p26
g10
sS'typ'
p27
g8
sS'[model,graphics,ok]'
p28
g10
sS'model.blocktype'
p29
S'string'
p30
sS'[ms,ns]'
p31
g10
sS'exprs'
p32
g5
sS'gr_i'
p33
g8
sS'y'
p34
g8
sS'x'
p35
g10
sS'model'
p36
g2
s.