c__builtin__
set
p0
((lp1
S'A'
p2
aS'C'
p3
aS'B'
p4
aS'D'
p5
aS'exprs'
p6
aS'gr_i'
p7
aS'graphics'
p8
aS'x'
p9
aS'model'
p10
aS'x0'
p11
atp12
Rp13
.(dp0
S'arg1'
p1
S'object'
p2
sS'graphics'
p3
g2
sS'rpar'
p4
S'matrix'
p5
sS'x.model'
p6
g2
sS'model.out'
p7
S'double'
p8
sS'out'
p9
g8
sS'x.graphics'
p10
g2
sS'nx'
p11
g8
sS'model.evtin'
p12
g8
sS'A'
p13
g8
sS'model.sim'
p14
S'list'
p15
sS'C'
p16
g8
sS'B'
p17
g8
sS'D'
p18
g8
sS'in1'
p19
g8
sS'model.rpar'
p20
g5
sS'mmm'
p21
S'vector'
p22
sS'model.state'
p23
g8
sS'model.in'
p24
g5
sS'graphics.exprs'
p25
g8
sS'x0'
p26
g8
sS'typ'
p27
g22
sS'model.blocktype'
p28
S'string'
p29
sS'model.dep_ut'
p30
g22
sS'exprs'
p31
g5
sS'gr_i'
p32
g22
sS'y'
p33
g22
sS'x'
p34
NsS'model'
p35
g2
s.