c__builtin__
set
p0
((lp1
S'A'
p2
aS'C'
p3
aS'B'
p4
aS'D'
p5
aS'graphics'
p6
aS'x'
p7
aS'model'
p8
aS'x0'
p9
atp10
Rp11
.(dp0
S'graphics'
p1
S'object'
p2
sS'rpar'
p3
S'matrix'
p4
sS'x.model'
p5
g2
sS'model.out'
p6
S'double'
p7
sS'out'
p8
g7
sS'x.graphics'
p9
g2
sS'nx'
p10
g7
sS'model.evtin'
p11
g7
sS'A'
p12
g7
sS'model.sim'
p13
S'list'
p14
sS'C'
p15
g7
sS'B'
p16
g7
sS'D'
p17
g7
sS'in1'
p18
g7
sS'model.rpar'
p19
g4
sS'mmm'
p20
S'vector_boolean'
p21
sS'model.state'
p22
g7
sS'model.in'
p23
g4
sS'graphics.exprs'
p24
g7
sS'x0'
p25
g7
sS'typ'
p26
S'vector'
p27
sS'model.blocktype'
p28
S'string'
p29
sS'model.dep_ut'
p30
g21
sS'exprs'
p31
g4
sS'gr_i'
p32
g27
sS'y'
p33
g27
sS'x'
p34
g27
sS'model'
p35
g2
s.