c__builtin__
set
p0
((lp1
S'A'
p2
aS'C'
p3
aS'B'
p4
aS'D'
p5
aS'x'
p6
aS'x0'
p7
atp8
Rp9
.(dp0
S'arg1'
p1
S'object'
p2
sS'graphics'
p3
g2
sS'rpar'
p4
S'matrix'
p5
sS'model.dep_ut'
p6
S'vector'
p7
sS'this.x.model'
p8
g2
sS'model.out'
p9
S'double'
p10
sS'out'
p11
g10
sS'model.in1'
p12
g5
sS'typ'
p13
g7
sS'nx'
p14
g10
sS'model.evtin'
p15
g10
sS'this.x'
p16
g10
sS'model.sim'
p17
g7
sS'in1'
p18
g10
sS'model.rpar'
p19
g5
sS'mmm'
p20
g7
sS'model.state'
p21
NsS'graphics.exprs'
p22
g10
sS'this.x.graphics'
p23
g2
sS'this.B'
p24
g10
sS'model.blocktype'
p25
S'string'
p26
sS'[model,graphics,ok]'
p27
g10
sS'this.x0'
p28
g10
sS'[ms,ns]'
p29
g10
sS'exprs'
p30
g5
sS'gr_i'
p31
g7
sS'y'
p32
g7
sS'this.A'
p33
g10
sS'model'
p34
g10
sS'this.C'
p35
g10
sS'this.D'
p36
g10
s.