c__builtin__
set
p0
((lp1
S'A'
p2
aS'C'
p3
aS'B'
p4
aS'D'
p5
aS'x'
p6
aS'model'
p7
aS'x0'
p8
atp9
Rp10
.(dp0
S'arg1'
p1
S'object'
p2
sS'graphics'
p3
g2
sS'rpar'
p4
S'matrix'
p5
sS'x.model'
p6
g2
sS'model.dep_ut'
p7
S'vector'
p8
sS'model.out'
p9
S'double'
p10
sS'out'
p11
g10
sS'model.in1'
p12
g5
sS'x.graphics'
p13
g2
sS'nx'
p14
g10
sS'model.evtin'
p15
g10
sS'A'
p16
g10
sS'model.sim'
p17
S'list'
p18
sS'C'
p19
g10
sS'B'
p20
g10
sS'D'
p21
g10
sS'[this.model,graphics,ok]'
p22
g10
sS'in1'
p23
g10
sS'model.rpar'
p24
g5
sS'mmm'
p25
g8
sS'model.state'
p26
g10
sS'graphics.exprs'
p27
g10
sS'x0'
p28
g10
sS'typ'
p29
g8
sS'model.blocktype'
p30
S'string'
p31
sS'[ms,ns]'
p32
g10
sS'exprs'
p33
g5
sS'gr_i'
p34
g8
sS'y'
p35
g8
sS'x'
p36
g10
sS'model'
p37
g2
s.