c__builtin__
set
p0
((lp1
S'A'
p2
aS'C'
p3
aS'B'
p4
aS'D'
p5
aS'x'
p6
aS'model'
p7
aS'x0'
p8
atp9
Rp10
.(dp0
S'arg1'
p1
S'object'
p2
sS'graphics'
p3
g2
sS'rpar'
p4
S'matrix'
p5
sS'x.model'
p6
g2
sS'model.out'
p7
S'double'
p8
sS'out'
p9
g8
sS'model.in1'
p10
g5
sS'x.graphics'
p11
g2
sS'nx'
p12
g8
sS'model.evtin'
p13
g8
sS'A'
p14
g8
sS'model.sim'
p15
S'list'
p16
sS'C'
p17
g8
sS'B'
p18
g8
sS'D'
p19
g8
sS'in1'
p20
g8
sS'model.rpar'
p21
g5
sS'mmm'
p22
S'vector'
p23
sS'model.state'
p24
g8
sS'graphics.exprs'
p25
g8
sS'x0'
p26
g8
sS'typ'
p27
g23
sS'model.blocktype'
p28
S'string'
p29
sS'model.dep_ut'
p30
g23
sS'exprs'
p31
g5
sS'gr_i'
p32
g23
sS'y'
p33
g23
sS'x'
p34
g8
sS'model'
p35
g2
s.