c__builtin__
set
p0
((lp1
S'x'
p2
aS'init'
p3
aS'T'
p4
aS'N'
p5
atp6
Rp7
.(dp0
S'this.init'
p1
S'double'
p2
sS'arg1'
p3
S'object'
p4
sS'graphics'
p5
g4
sS'this.x.model'
p6
g4
sS'model.out'
p7
g2
sS'model.in1'
p8
S'vector'
p9
sS'typ'
p10
g9
sS'this.x'
p11
g2
sS'model.sim'
p12
g9
sS'nin'
p13
g2
sS'model.rpar'
p14
g9
sS'graphics.exprs'
p15
NsS'model.ipar'
p16
NsS'this.x.graphics'
p17
g4
sS'[model,graphics,ok]'
p18
g2
sS'ok'
p19
S'boolean'
p20
sS'model.blocktype'
p21
S'string'
p22
sS'this.T'
p23
g2
sS'model.dep_ut'
p24
g9
sS'exprs'
p25
S'matrix'
p26
sS'gr_i'
p27
g9
sS'this.N'
p28
g2
sS'y'
p29
g9
sS'model'
p30
g2
s.