c__builtin__
set
p0
((lp1
S'N'
p2
aS'exprs'
p3
aS'init'
p4
aS'gr_i'
p5
aS'T'
p6
aS'graphics'
p7
aS'x'
p8
aS'model'
p9
atp10
Rp11
.(dp0
S'arg1'
p1
S'object'
p2
sS'graphics'
p3
g2
sS'x.model'
p4
g2
sS'model.out'
p5
S'double'
p6
sS'x.graphics'
p7
g2
sS'init'
p8
g6
sS'model.sim'
p9
S'list'
p10
sS'nin'
p11
g6
sS'model.rpar'
p12
S'vector'
p13
sS'N'
p14
g6
sS'T'
p15
g6
sS'model.in'
p16
g13
sS'graphics.exprs'
p17
NsS'model.ipar'
p18
g6
sS'typ'
p19
g13
sS'ok'
p20
S'boolean'
p21
sS'model.blocktype'
p22
S'string'
p23
sS'model.dep_ut'
p24
g13
sS'exprs'
p25
S'matrix'
p26
sS'gr_i'
p27
g13
sS'y'
p28
g13
sS'x'
p29
NsS'model'
p30
g2
s.