c__builtin__
set
p0
((lp1
S'x'
p2
aS'model'
p3
aS'init'
p4
aS'T'
p5
aS'N'
p6
atp7
Rp8
.(dp0
S'arg1'
p1
S'object'
p2
sS'graphics'
p3
g2
sS'x.model'
p4
g2
sS'model.out'
p5
S'double'
p6
sS'model.in1'
p7
S'vector'
p8
sS'x.graphics'
p9
g2
sS'init'
p10
g6
sS'model.sim'
p11
S'list'
p12
sS'nin'
p13
g6
sS'[this.model,graphics,ok]'
p14
g12
sS'model.rpar'
p15
g8
sS'N'
p16
g6
sS'T'
p17
g6
sS'graphics.exprs'
p18
NsS'model.ipar'
p19
g6
sS'typ'
p20
g8
sS'ok'
p21
S'boolean'
p22
sS'model.blocktype'
p23
S'string'
p24
sS'model.dep_ut'
p25
g8
sS'exprs'
p26
S'matrix'
p27
sS'gr_i'
p28
g8
sS'y'
p29
g8
sS'x'
p30
g6
sS'model'
p31
g2
s.