c__builtin__
set
p0
((lp1
S'N'
p2
aS'init'
p3
aS'T'
p4
aS'graphics'
p5
aS'x'
p6
aS'model'
p7
atp8
Rp9
.(dp0
S'graphics'
p1
S'object'
p2
sS'x.model'
p3
g2
sS'model.out'
p4
S'double'
p5
sS'x.graphics'
p6
g2
sS'init'
p7
g5
sS'model.sim'
p8
S'list'
p9
sS'nin'
p10
g5
sS'model.rpar'
p11
S'vector'
p12
sS'N'
p13
g5
sS'T'
p14
g5
sS'model.in'
p15
g12
sS'graphics.exprs'
p16
NsS'model.ipar'
p17
g5
sS'typ'
p18
g12
sS'ok'
p19
S'boolean'
p20
sS'model.blocktype'
p21
S'string'
p22
sS'model.dep_ut'
p23
S'vector_boolean'
p24
sS'exprs'
p25
S'matrix'
p26
sS'gr_i'
p27
g12
sS'y'
p28
g12
sS'x'
p29
g12
sS'model'
p30
g2
s.