c__builtin__
set
p0
((lp1
S'N'
p2
aS'exprs'
p3
aS'init'
p4
aS'gr_i'
p5
aS'T'
p6
aS'graphics'
p7
aS'x'
p8
aS'model'
p9
atp10
Rp11
.(dp0
S'arg1'
p1
S'object'
p2
sS'graphics'
p3
g2
sS'x.model'
p4
g2
sS'model.out'
p5
S'double'
p6
sS'model.in1'
p7
S'matrix'
p8
sS'x.graphics'
p9
g2
sS'init'
p10
g6
sS'model.sim'
p11
S'list'
p12
sS'nin'
p13
g6
sS'model.rpar'
p14
S'vector'
p15
sS'N'
p16
g6
sS'T'
p17
g6
sS'graphics.exprs'
p18
NsS'model.ipar'
p19
g6
sS'typ'
p20
g15
sS'ok'
p21
S'boolean'
p22
sS'model.blocktype'
p23
S'string'
p24
sS'model.dep_ut'
p25
g15
sS'exprs'
p26
g8
sS'gr_i'
p27
g15
sS'y'
p28
g15
sS'x'
p29
g6
sS'model'
p30
g2
s.