c__builtin__
set
p0
((lp1
S'x'
p2
aS'init'
p3
aS'T'
p4
aS'N'
p5
atp6
Rp7
.(dp0
S'this.init'
p1
S'double'
p2
sS'arg1'
p3
S'object'
p4
sS'graphics'
p5
g4
sS'this.x.model'
p6
g4
sS'model.out'
p7
g2
sS'model.in1'
p8
S'matrix'
p9
sS'typ'
p10
S'vector'
p11
sS'this.x'
p12
g2
sS'model.sim'
p13
g11
sS'nin'
p14
g2
sS'model.rpar'
p15
g11
sS'graphics.exprs'
p16
NsS'model.ipar'
p17
NsS'this.x.graphics'
p18
g4
sS'[model,graphics,ok]'
p19
g2
sS'ok'
p20
S'boolean'
p21
sS'model.blocktype'
p22
S'string'
p23
sS'this.T'
p24
g2
sS'model.dep_ut'
p25
g11
sS'exprs'
p26
g9
sS'gr_i'
p27
g11
sS'this.N'
p28
g2
sS'y'
p29
g11
sS'model'
p30
g4
s.