c__builtin__
set
p0
((lp1
S'N'
p2
aS'exprs'
p3
aS'init'
p4
aS'gr_i'
p5
aS'T'
p6
aS'graphics'
p7
aS'x'
p8
aS'model'
p9
atp10
Rp11
.(dp0
S'arg1'
p1
S'object'
p2
sS'graphics'
p3
g2
sS'x.model'
p4
g2
sS'model.out'
p5
S'double'
p6
sS'x.graphics'
p7
g2
sS'init'
p8
g6
sS'model.sim'
p9
S'list'
p10
sS'nin'
p11
g6
sS'model.rpar'
p12
S'vector'
p13
sS'N'
p14
g6
sS'T'
p15
g6
sS'model.in'
p16
S'matrix'
p17
sS'graphics.exprs'
p18
NsS'model.ipar'
p19
g6
sS'typ'
p20
g13
sS'ok'
p21
S'boolean'
p22
sS'model.blocktype'
p23
S'string'
p24
sS'model.dep_ut'
p25
g13
sS'exprs'
p26
g17
sS'gr_i'
p27
g13
sS'y'
p28
g13
sS'x'
p29
NsS'model'
p30
g2
s.