c__builtin__
set
p0
((lp1
S'x'
p2
aS'model'
p3
aS'init'
p4
aS'T'
p5
aS'N'
p6
atp7
Rp8
.(dp0
S'arg1'
p1
S'object'
p2
sS'graphics'
p3
g2
sS'x.model'
p4
g2
sS'model.out'
p5
S'double'
p6
sS'model.in1'
p7
S'matrix'
p8
sS'x.graphics'
p9
g2
sS'init'
p10
g6
sS'model.sim'
p11
S'list'
p12
sS'nin'
p13
g6
sS'model.rpar'
p14
S'vector'
p15
sS'N'
p16
g6
sS'T'
p17
g6
sS'graphics.exprs'
p18
NsS'model.ipar'
p19
g6
sS'typ'
p20
g15
sS'[model,graphics,ok]'
p21
g6
sS'ok'
p22
S'boolean'
p23
sS'model.blocktype'
p24
S'string'
p25
sS'model.dep_ut'
p26
g15
sS'exprs'
p27
g8
sS'gr_i'
p28
g15
sS'y'
p29
g15
sS'x'
p30
g6
sS'model'
p31
g2
s.