c__builtin__
set
p0
((lp1
S'x'
p2
aS'model'
p3
aS'init'
p4
aS'T'
p5
aS'N'
p6
atp7
Rp8
.(dp0
S'arg1'
p1
S'object'
p2
sS'graphics'
p3
g2
sS'x.model'
p4
g2
sS'model.out'
p5
S'double'
p6
sS'model.in1'
p7
S'matrix'
p8
sS'x.graphics'
p9
g2
sS'init'
p10
g6
sS'model.sim'
p11
S'vector'
p12
sS'nin'
p13
g6
sS'model.rpar'
p14
g12
sS'N'
p15
g6
sS'T'
p16
g6
sS'graphics.exprs'
p17
NsS'model.ipar'
p18
g6
sS'typ'
p19
g12
sS'[model,graphics,ok]'
p20
g6
sS'ok'
p21
S'boolean'
p22
sS'model.blocktype'
p23
S'string'
p24
sS'model.dep_ut'
p25
g12
sS'exprs'
p26
g8
sS'gr_i'
p27
g12
sS'y'
p28
g12
sS'x'
p29
g6
sS'model'
p30
g2
s.