c__builtin__
set
p0
((lp1
S'x'
p2
aS'in1'
p3
aS'out'
p4
atp5
Rp6
.(dp0
S'this.x.graphics'
p1
S'object'
p2
sS'arg1'
p3
g2
sS'graphics.exprs'
p4
NsS'rpar'
p5
S'matrix'
p6
sS'result'
p7
S'double'
p8
sS'this.x.model'
p9
g2
sS'out'
p10
NsS'nin1'
p11
NsS'model.in1'
p12
NsS'rp'
p13
g8
sS'typ'
p14
S'vector'
p15
sS'this.out'
p16
g8
sS'model.firing'
p17
g8
sS'this.x'
p18
g8
sS'model.sim'
p19
g15
sS'model.evtout'
p20
g8
sS'nin'
p21
g8
sS'rp.slice(1-1,nout1).slice(1-1,2*n)'
p22
g8
sS'in1'
p23
NsS'model.rpar'
p24
g6
sS'this.in1'
p25
g8
sS'graphics'
p26
g2
sS'nout1'
p27
NsS'model.nzcross'
p28
NsS'[model,graphics,ok]'
p29
g8
sS'model.blocktype'
p30
S'string'
p31
sS'model.dep_ut'
p32
g15
sS'n'
p33
g8
sS'exprs'
p34
g6
sS'gr_i'
p35
g15
sS'y'
p36
g15
sS'model'
p37
g2
sS'nout'
p38
g8
s.