c__builtin__
set
p0
((lp1
S'x'
p2
aS'model'
p3
aS'out'
p4
aS'in1'
p5
aS'graphics'
p6
atp7
Rp8
.(dp0
S'arg1'
p1
S'object'
p2
sS'graphics'
p3
g2
sS'rpar'
p4
S'matrix'
p5
sS'x.model'
p6
g2
sS'result'
p7
S'double'
p8
sS'out'
p9
g8
sS'nin1'
p10
NsS'rp'
p11
g8
sS'x.graphics'
p12
g2
sS'typ'
p13
S'vector'
p14
sS'model.firing'
p15
g8
sS'model.sim'
p16
S'list'
p17
sS'model.evtout'
p18
g8
sS'nin'
p19
g8
sS'rp.slice(1-1,nout1).slice(1-1,2*n)'
p20
g8
sS'in1'
p21
g8
sS'model.rpar'
p22
g5
sS'model.in'
p23
g8
sS'graphics.exprs'
p24
NsS'nout1'
p25
NsS'model.nzcross'
p26
g8
sS'model.blocktype'
p27
S'string'
p28
sS'model.dep_ut'
p29
S'vector_boolean'
p30
sS'n'
p31
g8
sS'exprs'
p32
g5
sS'gr_i'
p33
g14
sS'y'
p34
g14
sS'x'
p35
NsS'model'
p36
g2
sS'nout'
p37
g8
s.