c__builtin__
set
p0
((lp1
S'in1'
p2
aS'exprs'
p3
aS'gr_i'
p4
aS'graphics'
p5
aS'x'
p6
aS'model'
p7
aS'out'
p8
atp9
Rp10
.(dp0
S'arg1'
p1
S'object'
p2
sS'graphics'
p3
g2
sS'rpar'
p4
S'matrix'
p5
sS'x.model'
p6
g2
sS'result'
p7
S'double'
p8
sS'out'
p9
g8
sS'nin1'
p10
NsS'rp'
p11
g8
sS'x.graphics'
p12
g2
sS'typ'
p13
S'vector'
p14
sS'model.firing'
p15
g8
sS'model.sim'
p16
S'list'
p17
sS'model.evtout'
p18
g8
sS'nin'
p19
g8
sS'rp.slice(1-1,nout1).slice(1-1,2*n)'
p20
g8
sS'in1'
p21
g8
sS'model.rpar'
p22
g5
sS'model.in'
p23
g8
sS'graphics.exprs'
p24
NsS'nout1'
p25
NsS'model.nzcross'
p26
g8
sS'model.blocktype'
p27
S'string'
p28
sS'model.dep_ut'
p29
g14
sS'n'
p30
g8
sS'exprs'
p31
g5
sS'gr_i'
p32
g14
sS'y'
p33
g14
sS'x'
p34
g8
sS'model'
p35
g2
sS'nout'
p36
g8
s.