c__builtin__
set
p0
((lp1
S'x'
p2
aS'model'
p3
aS'in1'
p4
aS'out'
p5
atp6
Rp7
.(dp0
S'arg1'
p1
S'object'
p2
sS'graphics.exprs'
p3
NsS'rpar'
p4
S'matrix'
p5
sS'x.model'
p6
g2
sS'result'
p7
S'double'
p8
sS'out'
p9
g8
sS'nin1'
p10
NsS'model.in1'
p11
g8
sS'rp'
p12
g8
sS'x.graphics'
p13
g2
sS'typ'
p14
S'vector'
p15
sS'model.firing'
p16
g8
sS'model.sim'
p17
S'list'
p18
sS'model.evtout'
p19
g8
sS'nin'
p20
g8
sS'rp.slice(1-1,nout1).slice(1-1,2*n)'
p21
g8
sS'[this.model,graphics,ok]'
p22
g18
sS'in1'
p23
g8
sS'model.rpar'
p24
g5
sS'graphics'
p25
g2
sS'nout1'
p26
NsS'model.nzcross'
p27
g8
sS'model.blocktype'
p28
S'string'
p29
sS'model.dep_ut'
p30
g15
sS'n'
p31
g8
sS'exprs'
p32
g5
sS'gr_i'
p33
g15
sS'y'
p34
g15
sS'x'
p35
g8
sS'model'
p36
g2
sS'nout'
p37
g8
s.