c__builtin__
set
p0
((lp1
S'x'
p2
aS'model'
p3
aS'out'
p4
aS'in1'
p5
aS'graphics'
p6
atp7
Rp8
.(dp0
S'graphics'
p1
S'object'
p2
sS'rpar'
p3
S'matrix'
p4
sS'x.model'
p5
g2
sS'result'
p6
S'double'
p7
sS'out'
p8
g7
sS'nin1'
p9
NsS'rp'
p10
g7
sS'x.graphics'
p11
g2
sS'typ'
p12
S'vector'
p13
sS'model.firing'
p14
g7
sS'model.sim'
p15
S'list'
p16
sS'model.evtout'
p17
g7
sS'nin'
p18
g7
sS'rp.slice(1-1,nout1).slice(1-1,2*n)'
p19
g7
sS'in1'
p20
g7
sS'model.rpar'
p21
g4
sS'model.in'
p22
g7
sS'graphics.exprs'
p23
NsS'nout1'
p24
NsS'model.nzcross'
p25
g7
sS'model.blocktype'
p26
S'string'
p27
sS'model.dep_ut'
p28
S'vector_boolean'
p29
sS'n'
p30
g7
sS'exprs'
p31
g4
sS'gr_i'
p32
g13
sS'y'
p33
g13
sS'x'
p34
g13
sS'model'
p35
g2
sS'nout'
p36
g7
s.