c__builtin__
set
p0
((lp1
S'x'
p2
aS'in1'
p3
aS'out'
p4
atp5
Rp6
.(dp0
S'arg1'
p1
S'object'
p2
sS'graphics.exprs'
p3
NsS'rpar'
p4
S'matrix'
p5
sS'x.model'
p6
g2
sS'result'
p7
S'double'
p8
sS'out'
p9
g8
sS'nin1'
p10
NsS'model.in1'
p11
g8
sS'rp'
p12
g8
sS'x.graphics'
p13
g2
sS'typ'
p14
S'vector'
p15
sS'model.firing'
p16
g8
sS'model.sim'
p17
g15
sS'model.evtout'
p18
g8
sS'nin'
p19
g8
sS'rp.slice(1-1,nout1).slice(1-1,2*n)'
p20
g8
sS'in1'
p21
g8
sS'model.rpar'
p22
g5
sS'graphics'
p23
g2
sS'nout1'
p24
NsS'model.nzcross'
p25
g8
sS'[model,graphics,ok]'
p26
g8
sS'model.blocktype'
p27
S'string'
p28
sS'model.dep_ut'
p29
g15
sS'n'
p30
g8
sS'exprs'
p31
g5
sS'gr_i'
p32
g15
sS'y'
p33
g15
sS'x'
p34
g8
sS'model'
p35
g2
sS'nout'
p36
g8
s.