c__builtin__
set
p0
((lp1
S'x'
p2
atp3
Rp4
.(dp0
S'this.x'
p1
S'double'
p2
sS'model.sim'
p3
S'vector'
p4
sS'model.in1'
p5
g2
sS'this.x.model.firing'
p6
g2
sS'model.nzcross'
p7
g2
sS'model.evtout'
p8
g2
sS'model.rpar'
p9
S'matrix'
p10
sS'gr_i'
p11
g4
sS'model.dep_ut'
p12
g4
sS'y'
p13
g4
sS'model'
p14
g2
sS'typ'
p15
g4
sS'model.firing'
p16
g2
sS'model.blocktype'
p17
S'string'
p18
s.