c__builtin__
set
p0
((lp1
S'x'
p2
atp3
Rp4
.(dp0
S'model.sim'
p1
S'vector'
p2
sS'model.in1'
p3
S'double'
p4
sS'model.blocktype'
p5
S'string'
p6
sS'x.model.firing'
p7
g4
sS'model.nzcross'
p8
g4
sS'model.evtout'
p9
g4
sS'model.rpar'
p10
S'matrix'
p11
sS'gr_i'
p12
g2
sS'model.dep_ut'
p13
g2
sS'y'
p14
g2
sS'x'
p15
g4
sS'model'
p16
S'object'
p17
sS'typ'
p18
g2
sS'model.firing'
p19
g4
s.