c__builtin__
set
p0
((lp1
S'x'
p2
aS'model'
p3
aS'gr_i'
p4
aS'exprs'
p5
aS'graphics'
p6
atp7
Rp8
.(dp0
S'model.sim'
p1
S'list'
p2
sS'model.evtout'
p3
S'double'
p4
sS'model.blocktype'
p5
S'string'
p6
sS'x.model.firing'
p7
g4
sS'model.nzcross'
p8
g4
sS'model.rpar'
p9
S'matrix'
p10
sS'gr_i'
p11
S'vector'
p12
sS'model.dep_ut'
p13
S'vector_boolean'
p14
sS'model.in'
p15
g4
sS'y'
p16
g12
sS'x'
p17
NsS'model'
p18
S'object'
p19
sS'typ'
p20
g12
sS'model.firing'
p21
g4
s.