c__builtin__
set
p0
((lp1
S'x'
p2
aS'model'
p3
aS'gr_i'
p4
aS'exprs'
p5
aS'graphics'
p6
atp7
Rp8
.(dp0
S'model.sim'
p1
S'list'
p2
sS'model.in1'
p3
S'double'
p4
sS'model.blocktype'
p5
S'string'
p6
sS'x.model.firing'
p7
g4
sS'model.nzcross'
p8
g4
sS'model.evtout'
p9
g4
sS'model.rpar'
p10
S'matrix'
p11
sS'gr_i'
p12
S'vector'
p13
sS'model.dep_ut'
p14
g13
sS'y'
p15
g13
sS'x'
p16
g4
sS'model'
p17
S'object'
p18
sS'typ'
p19
g13
sS'model.firing'
p20
g4
s.