c__builtin__
set
p0
((lp1
S'x'
p2
aS'model'
p3
atp4
Rp5
.(dp0
S'model.sim'
p1
S'vector'
p2
sS'model.in1'
p3
S'double'
p4
sS'model.blocktype'
p5
S'string'
p6
sS'x.model.firing'
p7
g2
sS'model.nzcross'
p8
g4
sS'model.evtout'
p9
g4
sS'model.rpar'
p10
S'matrix'
p11
sS'rpar'
p12
g11
sS'gr_i'
p13
g2
sS'model.dep_ut'
p14
g2
sS'y'
p15
g2
sS'x'
p16
g4
sS'model'
p17
S'object'
p18
sS'typ'
p19
g2
sS'model.firing'
p20
g2
s.