c__builtin__
set
p0
((lp1
S'x'
p2
atp3
Rp4
.(dp0
S'this.x'
p1
S'double'
p2
sS'model.sim'
p3
S'vector'
p4
sS'model.in1'
p5
g2
sS'this.x.model.firing'
p6
g4
sS'model.nzcross'
p7
g2
sS'model.evtout'
p8
g2
sS'model.rpar'
p9
S'matrix'
p10
sS'rpar'
p11
g10
sS'gr_i'
p12
g4
sS'model.dep_ut'
p13
g4
sS'y'
p14
g4
sS'model'
p15
g2
sS'typ'
p16
g4
sS'model.firing'
p17
g4
sS'model.blocktype'
p18
S'string'
p19
s.