c__builtin__
set
p0
((lp1
S'x'
p2
aS'model'
p3
aS'gr_i'
p4
aS'exprs'
p5
aS'graphics'
p6
atp7
Rp8
.(dp0
S'model.sim'
p1
S'list'
p2
sS'model.in1'
p3
S'double'
p4
sS'model.blocktype'
p5
S'string'
p6
sS'x.model.firing'
p7
S'vector'
p8
sS'model.nzcross'
p9
g4
sS'model.evtout'
p10
g4
sS'model.rpar'
p11
S'matrix'
p12
sS'rpar'
p13
g12
sS'gr_i'
p14
g8
sS'model.dep_ut'
p15
g8
sS'y'
p16
g8
sS'x'
p17
g4
sS'model'
p18
S'object'
p19
sS'typ'
p20
g8
sS'model.firing'
p21
g8
s.