c__builtin__
set
p0
((lp1
S'x'
p2
aS'model'
p3
aS'gr_i'
p4
aS'exprs'
p5
aS'graphics'
p6
atp7
Rp8
.(dp0
S'model.sim'
p1
S'list'
p2
sS'model.evtout'
p3
S'double'
p4
sS'model.blocktype'
p5
S'string'
p6
sS'x.model.firing'
p7
S'vector'
p8
sS'model.nzcross'
p9
g4
sS'model.rpar'
p10
S'matrix'
p11
sS'rpar'
p12
g11
sS'gr_i'
p13
g8
sS'model.dep_ut'
p14
g8
sS'model.in'
p15
g4
sS'y'
p16
g8
sS'x'
p17
g4
sS'model'
p18
S'object'
p19
sS'typ'
p20
g8
sS'model.firing'
p21
g8
s.