c__builtin__
set
p0
((lp1
S'x'
p2
aS'model'
p3
aS'graphics'
p4
atp5
Rp6
.(dp0
S'model.sim'
p1
S'list'
p2
sS'model.evtout'
p3
S'double'
p4
sS'model.blocktype'
p5
S'string'
p6
sS'x.model.firing'
p7
S'vector'
p8
sS'model.nzcross'
p9
g4
sS'model.rpar'
p10
S'matrix'
p11
sS'rpar'
p12
g11
sS'gr_i'
p13
g8
sS'model.dep_ut'
p14
S'vector_boolean'
p15
sS'model.in'
p16
g4
sS'y'
p17
g8
sS'x'
p18
g8
sS'model'
p19
S'object'
p20
sS'typ'
p21
g8
sS'model.firing'
p22
g8
s.