c__builtin__
set
p0
((lp1
S'x'
p2
aS'model'
p3
aS'in1'
p4
atp5
Rp6
.(dp0
S'arg1'
p1
S'object'
p2
sS'graphics'
p3
g2
sS'rpar'
p4
S'matrix'
p5
sS'x.model'
p6
NsS'model.in1'
p7
S'double'
p8
sS'x.graphics'
p9
g2
sS'typ'
p10
S'vector'
p11
sS'model.firing'
p12
g8
sS'model.sim'
p13
g11
sS'model.evtout'
p14
g8
sS'in1'
p15
g8
sS'model.rpar'
p16
g5
sS'graphics.exprs'
p17
NsS'model.nzcross'
p18
g8
sS'model.blocktype'
p19
S'string'
p20
sS'kk'
p21
g20
sS'model.dep_ut'
p22
g11
sS'exprs'
p23
g8
sS'gr_i'
p24
g11
sS'y'
p25
g11
sS'x'
p26
g8
sS'model'
p27
g2
s.