c__builtin__
set
p0
((lp1
S'x'
p2
aS'model'
p3
aS'in1'
p4
atp5
Rp6
.(dp0
S'arg1'
p1
S'object'
p2
sS'graphics'
p3
g2
sS'rpar'
p4
S'matrix'
p5
sS'x.model'
p6
NsS'model.in1'
p7
S'double'
p8
sS'x.graphics'
p9
g2
sS'typ'
p10
S'vector'
p11
sS'model.firing'
p12
g8
sS'model.sim'
p13
S'list'
p14
sS'model.evtout'
p15
g8
sS'in1'
p16
g8
sS'model.rpar'
p17
g5
sS'graphics.exprs'
p18
NsS'model.nzcross'
p19
g8
sS'model.blocktype'
p20
S'string'
p21
sS'kk'
p22
g21
sS'model.dep_ut'
p23
g11
sS'exprs'
p24
g8
sS'gr_i'
p25
g11
sS'y'
p26
g11
sS'x'
p27
g8
sS'model'
p28
g2
s.