c__builtin__
set
p0
((lp1
S'in1'
p2
aS'exprs'
p3
aS'gr_i'
p4
aS'graphics'
p5
aS'x'
p6
aS'model'
p7
atp8
Rp9
.(dp0
S'arg1'
p1
S'object'
p2
sS'graphics'
p3
g2
sS'rpar'
p4
S'matrix'
p5
sS'x.model'
p6
NsS'x.graphics'
p7
g2
sS'typ'
p8
S'vector'
p9
sS'model.firing'
p10
S'double'
p11
sS'model.sim'
p12
S'list'
p13
sS'model.evtout'
p14
g11
sS'in1'
p15
g11
sS'model.rpar'
p16
g5
sS'model.in'
p17
g11
sS'graphics.exprs'
p18
NsS'model.nzcross'
p19
g11
sS'model.blocktype'
p20
S'string'
p21
sS'kk'
p22
g21
sS'model.dep_ut'
p23
g9
sS'exprs'
p24
g11
sS'gr_i'
p25
g9
sS'y'
p26
g9
sS'x'
p27
NsS'model'
p28
g2
s.