c__builtin__
set
p0
((lp1
S'x'
p2
aS'model'
p3
aS'in1'
p4
aS'graphics'
p5
atp6
Rp7
.(dp0
S'model.sim'
p1
S'list'
p2
sS'model.evtout'
p3
S'double'
p4
sS'model.in'
p5
NsS'x.graphics'
p6
S'object'
p7
sS'kk'
p8
S'string'
p9
sS'model.nzcross'
p10
NsS'graphics'
p11
g7
sS'model.rpar'
p12
S'matrix'
p13
sS'rpar'
p14
g13
sS'exprs'
p15
g4
sS'x.model'
p16
NsS'gr_i'
p17
S'vector'
p18
sS'model.dep_ut'
p19
S'vector_boolean'
p20
sS'graphics.exprs'
p21
NsS'in'
p22
g4
sS'y'
p23
g18
sS'x'
p24
g18
sS'model'
p25
g7
sS'typ'
p26
g18
sS'model.firing'
p27
g4
sS'model.blocktype'
p28
g9
s.