c__builtin__
set
p0
((lp1
S'x'
p2
aS'in1'
p3
atp4
Rp5
.(dp0
S'arg1'
p1
S'object'
p2
sS'graphics'
p3
g2
sS'rpar'
p4
S'matrix'
p5
sS'this.x.model'
p6
NsS'model.in1'
p7
NsS'this.x.graphics'
p8
g2
sS'model.firing'
p9
S'double'
p10
sS'this.x'
p11
g10
sS'model.sim'
p12
S'vector'
p13
sS'model.evtout'
p14
g10
sS'model.rpar'
p15
g5
sS'this.in1'
p16
g10
sS'graphics.exprs'
p17
NsS'model.nzcross'
p18
NsS'model.blocktype'
p19
S'string'
p20
sS'kk'
p21
g20
sS'typ'
p22
g13
sS'model.dep_ut'
p23
g13
sS'exprs'
p24
g10
sS'gr_i'
p25
g13
sS'y'
p26
g13
sS'model'
p27
g2
s.