c__builtin__
set
p0
((lp1
S'x'
p2
atp3
Rp4
.(dp0
S'diagram.objs[1-1]'
p1
S'double'
p2
sS'output_port.graphics.exprs'
p3
S'string'
p4
sS'this.x.model.rpar'
p5
g2
sS'input_port1'
p6
g2
sS'diagram.objs[9-1]'
p7
g2
sS'output_port.graphics.flip'
p8
S'boolean'
p9
sS'input_port2'
p10
g2
sS'input_port1.graphics.exprs'
p11
g4
sS'input_port2.graphics.sz'
p12
S'vector'
p13
sS'input_port2.graphics.orig'
p14
g13
sS'input_port1.graphics.flip'
p15
g9
sS'split.graphics.orig'
p16
S'matrix'
p17
sS'ifthel'
p18
g2
sS'split.graphics.peout'
p19
g17
sS'output_port.graphics.pein'
p20
g2
sS'diagram.objs[2-1]'
p21
g2
sS'andlog'
p22
g2
sS'this.x.model.firing'
p23
g9
sS'ifthel.graphics.pin'
p24
g2
sS'output_port.model.ipar'
p25
g2
sS'typ'
p26
g13
sS'split.graphics.pein'
p27
g2
sS'andlog.graphics.pein'
p28
g17
sS'this.x.graphics.pein'
p29
g17
sS'this.x.graphics.gr_i'
p30
g13
sS'diagram.objs[7-1]'
p31
g2
sS'diagram.objs[6-1]'
p32
g2
sS'split'
p33
g2
sS'andlog.graphics.pout'
p34
g2
sS'this.x.model.evtout'
p35
g2
sS'this.x.model.sim'
p36
g4
sS'diagram.objs[8-1]'
p37
g2
sS'diagram.objs[3-1]'
p38
g2
sS'this.x.graphics.sz'
p39
g13
sS'input_port1.graphics.sz'
p40
g13
sS'diagram.objs[5-1]'
p41
g2
sS'this.x'
p42
g2
sS'this.x.graphics.peout'
p43
g2
sS'andlog.graphics.orig'
p44
g13
sS'diagram.objs[4-1]'
p45
g2
sS'this.x.gui'
p46
g4
sS'ifthel.graphics.pein'
p47
g2
sS'ifthel.graphics.orig'
p48
g13
sS'input_port2.model.ipar'
p49
g2
sS'diagram'
p50
g2
sS'input_port2.graphics.peout'
p51
g2
sS'diagram.objs[10-1]'
p52
g2
sS'this.x.model.dep_ut'
p53
g13
sS'output_port.graphics.sz'
p54
g13
sS'andlog.graphics.sz'
p55
g13
sS'this.x.model.blocktype'
p56
g4
sS'diagram.objs[12-1]'
p57
g2
sS'ifthel.graphics.peout'
p58
g17
sS'input_port1.graphics.orig'
p59
g13
sS'output_port'
p60
g2
sS'this.x.model.evtin'
p61
g17
sS'andlog.graphics.flip'
p62
g9
sS'input_port1.graphics.peout'
p63
g2
sS'ifthel.graphics.sz'
p64
g13
sS'ifthel.graphics.flip'
p65
g9
sS'input_port1.model.ipar'
p66
g2
sS'input_port2.graphics.exprs'
p67
g4
sS'output_port.graphics.orig'
p68
g13
sS'y'
p69
g13
sS'input_port2.graphics.flip'
p70
g9
sS'diagram.objs[11-1]'
p71
g2
s.