c__builtin__
set
p0
((lp1
S'x'
p2
atp3
Rp4
.(dp0
S'diagram.objs[1-1]'
p1
S'object'
p2
sS'output_port.graphics.exprs'
p3
S'string'
p4
sS'this.x.model.rpar'
p5
S'double'
p6
sS'input_port1'
p7
g2
sS'diagram.objs[9-1]'
p8
g6
sS'output_port.graphics.flip'
p9
S'boolean'
p10
sS'input_port2'
p11
g2
sS'input_port1.graphics.exprs'
p12
g4
sS'input_port2.graphics.sz'
p13
S'vector'
p14
sS'input_port2.graphics.orig'
p15
g14
sS'input_port1.graphics.flip'
p16
g10
sS'split.graphics.orig'
p17
S'matrix'
p18
sS'ifthel'
p19
g2
sS'split.graphics.peout'
p20
g18
sS'output_port.graphics.pein'
p21
g6
sS'diagram.objs[2-1]'
p22
g2
sS'andlog'
p23
g2
sS'this.x.model.firing'
p24
g10
sS'ifthel.graphics.pin'
p25
g6
sS'output_port.model.ipar'
p26
g6
sS'typ'
p27
g14
sS'split.graphics.pein'
p28
g6
sS'andlog.graphics.pein'
p29
g18
sS'this.x.graphics.pein'
p30
g18
sS'this.x.graphics.gr_i'
p31
g14
sS'diagram.objs[7-1]'
p32
g2
sS'diagram.objs[6-1]'
p33
g6
sS'split'
p34
g2
sS'andlog.graphics.pout'
p35
g6
sS'this.x.model.evtout'
p36
g6
sS'this.x.model.sim'
p37
g4
sS'diagram.objs[8-1]'
p38
g6
sS'diagram.objs[3-1]'
p39
g2
sS'this.x.graphics.sz'
p40
g14
sS'input_port1.graphics.sz'
p41
g14
sS'diagram.objs[5-1]'
p42
g2
sS'this.x'
p43
g6
sS'this.x.graphics.peout'
p44
g6
sS'andlog.graphics.orig'
p45
g14
sS'diagram.objs[4-1]'
p46
g6
sS'this.x.gui'
p47
g4
sS'ifthel.graphics.pein'
p48
g6
sS'ifthel.graphics.orig'
p49
g14
sS'input_port2.model.ipar'
p50
g6
sS'diagram'
p51
g6
sS'input_port2.graphics.peout'
p52
g6
sS'diagram.objs[10-1]'
p53
g2
sS'this.x.model.dep_ut'
p54
g14
sS'output_port.graphics.sz'
p55
g14
sS'andlog.graphics.sz'
p56
g14
sS'this.x.model.blocktype'
p57
g4
sS'diagram.objs[12-1]'
p58
g6
sS'ifthel.graphics.peout'
p59
g18
sS'input_port1.graphics.orig'
p60
g14
sS'output_port'
p61
g2
sS'this.x.model.evtin'
p62
g18
sS'andlog.graphics.flip'
p63
g10
sS'input_port1.graphics.peout'
p64
g6
sS'ifthel.graphics.sz'
p65
g14
sS'ifthel.graphics.flip'
p66
g10
sS'input_port1.model.ipar'
p67
g6
sS'input_port2.graphics.exprs'
p68
g4
sS'output_port.graphics.orig'
p69
g14
sS'y'
p70
g14
sS'input_port2.graphics.flip'
p71
g10
sS'diagram.objs[11-1]'
p72
g6
s.