c__builtin__
set
p0
((lp1
S'x'
p2
aS'model'
p3
aS'gr_i'
p4
aS'exprs'
p5
aS'graphics'
p6
atp7
Rp8
.(dp0
S'diagram.objs[1-1]'
p1
S'object'
p2
sS'x.gui'
p3
S'string'
p4
sS'output_port.graphics.exprs'
p5
g4
sS'input_port1'
p6
g2
sS'diagram.objs[9-1]'
p7
S'double'
p8
sS'output_port.graphics.flip'
p9
S'boolean'
p10
sS'input_port2'
p11
g2
sS'input_port1.graphics.exprs'
p12
g4
sS'input_port2.graphics.sz'
p13
S'vector'
p14
sS'x.graphics.pein'
p15
S'matrix'
p16
sS'input_port2.graphics.orig'
p17
g14
sS'x.model.evtin'
p18
g16
sS'input_port1.graphics.flip'
p19
g10
sS'x.model.dep_ut'
p20
S'vector_boolean'
p21
sS'split.graphics.orig'
p22
g16
sS'x.model.rpar'
p23
g8
sS'ifthel'
p24
g2
sS'split.graphics.peout'
p25
g16
sS'output_port.graphics.pein'
p26
g8
sS'diagram.objs[2-1]'
p27
g2
sS'andlog'
p28
g2
sS'x.model.firing'
p29
g10
sS'ifthel.graphics.pin'
p30
g8
sS'output_port.model.ipar'
p31
g8
sS'typ'
p32
g14
sS'split.graphics.pein'
p33
g8
sS'input_port2.graphics.flip'
p34
g10
sS'x.model.blocktype'
p35
g4
sS'andlog.graphics.pein'
p36
g16
sS'x.graphics.peout'
p37
g8
sS'diagram.objs[7-1]'
p38
g2
sS'diagram.objs[6-1]'
p39
g8
sS'split'
p40
g2
sS'andlog.graphics.pout'
p41
g8
sS'diagram.objs[8-1]'
p42
g8
sS'diagram.objs[3-1]'
p43
g2
sS'input_port1.graphics.sz'
p44
g14
sS'diagram.objs[5-1]'
p45
g2
sS'andlog.graphics.orig'
p46
g14
sS'diagram.objs[4-1]'
p47
g8
sS'x.graphics.gr_i'
p48
g14
sS'ifthel.graphics.pein'
p49
g8
sS'ifthel.graphics.orig'
p50
g14
sS'input_port2.model.ipar'
p51
g8
sS'diagram'
p52
g8
sS'input_port2.graphics.peout'
p53
g8
sS'diagram.objs[10-1]'
p54
g2
sS'output_port.graphics.sz'
p55
g14
sS'andlog.graphics.sz'
p56
g14
sS'diagram.objs[12-1]'
p57
g8
sS'ifthel.graphics.peout'
p58
g16
sS'input_port1.graphics.orig'
p59
g14
sS'x.model.sim'
p60
g4
sS'output_port'
p61
g2
sS'andlog.graphics.flip'
p62
g10
sS'input_port1.graphics.peout'
p63
g8
sS'ifthel.graphics.sz'
p64
g14
sS'ifthel.graphics.flip'
p65
g10
sS'x.graphics.sz'
p66
g14
sS'input_port1.model.ipar'
p67
g8
sS'input_port2.graphics.exprs'
p68
g4
sS'output_port.graphics.orig'
p69
g14
sS'y'
p70
g14
sS'x'
p71
g8
sS'diagram.objs[11-1]'
p72
g8
sS'x.model.evtout'
p73
g8
s.