c__builtin__
set
p0
((lp1
S'x'
p2
atp3
Rp4
.(dp0
S'diagram.objs[1-1]'
p1
S'object'
p2
sS'x.gui'
p3
S'string'
p4
sS'output_port.graphics.exprs'
p5
g4
sS'input_port1'
p6
g2
sS'diagram.objs[9-1]'
p7
S'double'
p8
sS'output_port.graphics.flip'
p9
S'boolean'
p10
sS'input_port2'
p11
g2
sS'input_port1.graphics.exprs'
p12
g4
sS'input_port2.graphics.sz'
p13
S'vector'
p14
sS'x.graphics.pein'
p15
S'matrix'
p16
sS'input_port2.graphics.orig'
p17
g14
sS'x.model.evtin'
p18
g16
sS'input_port1.graphics.flip'
p19
g10
sS'x.model.dep_ut'
p20
g14
sS'split.graphics.orig'
p21
g16
sS'x.model.rpar'
p22
g8
sS'ifthel'
p23
g2
sS'split.graphics.peout'
p24
g16
sS'output_port.graphics.pein'
p25
g8
sS'diagram.objs[2-1]'
p26
g2
sS'andlog'
p27
g2
sS'x.model.firing'
p28
g10
sS'ifthel.graphics.pin'
p29
g8
sS'output_port.model.ipar'
p30
g8
sS'typ'
p31
g14
sS'split.graphics.pein'
p32
g8
sS'input_port2.graphics.flip'
p33
g10
sS'x.model.blocktype'
p34
g4
sS'andlog.graphics.pein'
p35
g16
sS'x.graphics.peout'
p36
g8
sS'diagram.objs[7-1]'
p37
g2
sS'diagram.objs[6-1]'
p38
g8
sS'split'
p39
g2
sS'andlog.graphics.pout'
p40
g8
sS'diagram.objs[8-1]'
p41
g8
sS'diagram.objs[3-1]'
p42
g2
sS'input_port1.graphics.sz'
p43
g14
sS'diagram.objs[5-1]'
p44
g2
sS'andlog.graphics.orig'
p45
g14
sS'diagram.objs[4-1]'
p46
g8
sS'x.graphics.gr_i'
p47
g14
sS'ifthel.graphics.pein'
p48
g8
sS'ifthel.graphics.orig'
p49
g14
sS'input_port2.model.ipar'
p50
g8
sS'diagram'
p51
g8
sS'input_port2.graphics.peout'
p52
g8
sS'diagram.objs[10-1]'
p53
g2
sS'output_port.graphics.sz'
p54
g14
sS'andlog.graphics.sz'
p55
g14
sS'diagram.objs[12-1]'
p56
g8
sS'ifthel.graphics.peout'
p57
g16
sS'input_port1.graphics.orig'
p58
g14
sS'x.model.sim'
p59
g4
sS'output_port'
p60
g2
sS'andlog.graphics.flip'
p61
g10
sS'input_port1.graphics.peout'
p62
g8
sS'ifthel.graphics.sz'
p63
g14
sS'ifthel.graphics.flip'
p64
g10
sS'x.graphics.sz'
p65
g14
sS'input_port1.model.ipar'
p66
g8
sS'input_port2.graphics.exprs'
p67
g4
sS'output_port.graphics.orig'
p68
g14
sS'y'
p69
g14
sS'x'
p70
g8
sS'diagram.objs[11-1]'
p71
g8
sS'x.model.evtout'
p72
g8
s.