c__builtin__
set
p0
((lp1
S'x'
p2
aS'model'
p3
aS'graphics'
p4
atp5
Rp6
.(dp0
S'model.sim'
p1
S'string'
p2
sS'model.blocktype'
p3
g2
sS'model.evtin'
p4
S'matrix'
p5
sS'model.dep_ut'
p6
S'vector_boolean'
p7
sS'model.out'
p8
S'double'
p9
sS'gr_i'
p10
S'vector'
p11
sS'y'
p12
g11
sS'x'
p13
NsS'model'
p14
S'object'
p15
sS'typ'
p16
g11
sS'model.firing'
p17
g11
s.