c__builtin__
set
p0
((lp1
S'x'
p2
aS'model'
p3
aS'graphics'
p4
atp5
Rp6
.(dp0
S'model.sim'
p1
S'string'
p2
sS'model.evtout'
p3
S'double'
p4
sS'model.blocktype'
p5
g2
sS'model.evtin'
p6
S'matrix'
p7
sS'model.dep_ut'
p8
S'vector_boolean'
p9
sS'p'
p10
g4
sS'gr_i'
p11
S'vector'
p12
sS'y'
p13
g12
sS'x'
p14
NsS'model'
p15
S'object'
p16
sS'typ'
p17
g12
sS'model.firing'
p18
g4
s.