c__builtin__
set
p0
((lp1
S'x'
p2
atp3
Rp4
.(dp0
S'model.sim'
p1
S'string'
p2
sS'model.evtout'
p3
S'matrix'
p4
sS'model.blocktype'
p5
g2
sS'model.dep_ut'
p6
S'vector'
p7
sS'model.evtin'
p8
S'double'
p9
sS'y'
p10
g7
sS'x'
p11
g9
sS'model'
p12
S'object'
p13
sS'typ'
p14
g7
sS'model.firing'
p15
g7
s.