c__builtin__
set
p0
((lp1
S'x'
p2
aS'model'
p3
atp4
Rp5
.(dp0
S'model.sim'
p1
S'string'
p2
sS'model.evtout'
p3
S'double'
p4
sS'model.blocktype'
p5
g2
sS'model.evtin'
p6
S'matrix'
p7
sS'model.dep_ut'
p8
S'vector'
p9
sS'p'
p10
g4
sS'gr_i'
p11
g9
sS'y'
p12
g9
sS'x'
p13
g4
sS'model'
p14
S'object'
p15
sS'typ'
p16
g9
sS'model.firing'
p17
g4
s.