c__builtin__
set
p0
((lp1
S'x'
p2
atp3
Rp4
.(dp0
S'this.x'
p1
S'double'
p2
sS'model.sim'
p3
S'string'
p4
sS'model.evtout'
p5
S'matrix'
p6
sS'model.blocktype'
p7
g4
sS'model.dep_ut'
p8
S'vector'
p9
sS'model.evtin'
p10
g2
sS'y'
p11
g9
sS'model'
p12
S'object'
p13
sS'typ'
p14
g9
sS'model.firing'
p15
g9
s.