c__builtin__
set
p0
((lp1
S'x'
p2
aS'model'
p3
aS'gr_i'
p4
aS'exprs'
p5
aS'graphics'
p6
atp7
Rp8
.(dp0
S'model.sim'
p1
S'string'
p2
sS'model.evtout'
p3
S'double'
p4
sS'model.blocktype'
p5
g2
sS'model.evtin'
p6
S'matrix'
p7
sS'model.dep_ut'
p8
S'vector'
p9
sS'p'
p10
g4
sS'gr_i'
p11
g9
sS'y'
p12
g9
sS'x'
p13
NsS'model'
p14
S'object'
p15
sS'typ'
p16
g9
sS'model.firing'
p17
g4
s.