c__builtin__
set
p0
((lp1
S'tf'
p2
aS'x'
p3
aS'model'
p4
atp5
Rp6
.(dp0
S'model.sim'
p1
S'list'
p2
sS'model.evtout'
p3
S'double'
p4
sS'model.evtin'
p5
g4
sS'x.graphics'
p6
S'object'
p7
sS'arg1'
p8
g7
sS'graphics.exprs'
p9
NsS'model.dep_ut'
p10
S'vector'
p11
sS'tf'
p12
g4
sS'exprs'
p13
S'string'
p14
sS'x.model'
p15
NsS'gr_i'
p16
g11
sS'graphics'
p17
g7
sS'y'
p18
g11
sS'x'
p19
g4
sS'model'
p20
g7
sS'typ'
p21
g11
sS'model.firing'
p22
g4
sS'model.blocktype'
p23
g14
s.