c__builtin__
set
p0
((lp1
S'tf'
p2
aS'x'
p3
aS'model'
p4
aS'graphics'
p5
atp6
Rp7
.(dp0
S'model.sim'
p1
S'list'
p2
sS'model.evtout'
p3
S'double'
p4
sS'model.evtin'
p5
g4
sS'x.graphics'
p6
S'object'
p7
sS'graphics'
p8
g7
sS'model.dep_ut'
p9
S'vector_boolean'
p10
sS'tf'
p11
g4
sS'exprs'
p12
S'string'
p13
sS'x.model'
p14
NsS'gr_i'
p15
S'vector'
p16
sS'graphics.exprs'
p17
NsS'y'
p18
g16
sS'x'
p19
g16
sS'model'
p20
g7
sS'typ'
p21
g16
sS'model.firing'
p22
g4
sS'model.blocktype'
p23
g13
s.