c__builtin__
set
p0
((lp1
S'tf'
p2
aS'x'
p3
aS'model'
p4
aS'graphics'
p5
atp6
Rp7
.(dp0
S'model.sim'
p1
S'list'
p2
sS'model.evtout'
p3
S'double'
p4
sS'model.evtin'
p5
g4
sS'x.graphics'
p6
S'object'
p7
sS'arg1'
p8
g7
sS'graphics.exprs'
p9
NsS'model.dep_ut'
p10
S'vector_boolean'
p11
sS'tf'
p12
g4
sS'exprs'
p13
S'string'
p14
sS'x.model'
p15
NsS'gr_i'
p16
S'vector'
p17
sS'graphics'
p18
g7
sS'y'
p19
g17
sS'x'
p20
NsS'model'
p21
g7
sS'typ'
p22
g17
sS'model.firing'
p23
g4
sS'model.blocktype'
p24
g14
s.