c__builtin__
set
p0
((lp1
S'x'
p2
aS'dt'
p3
aS'ff'
p4
atp5
Rp6
.(dp0
S'this.x'
p1
S'double'
p2
sS'model.sim'
p3
S'string'
p4
sS'model.evtout'
p5
g2
sS'ok'
p6
S'boolean'
p7
sS'model.evtin'
p8
g2
sS'this.x.graphics'
p9
S'object'
p10
sS'arg1'
p11
g10
sS'graphics.exprs'
p12
NsS'model.rpar'
p13
NsS'this.x.model'
p14
NsS'exprs'
p15
S'matrix'
p16
sS'gr_i'
p17
S'vector'
p18
sS'model.dep_ut'
p19
g18
sS'graphics'
p20
g10
sS'y'
p21
g18
sS'model'
p22
g10
sS'this.ff'
p23
NsS'typ'
p24
g18
sS'this.dt'
p25
g2
sS'model.firing'
p26
NsS'model.blocktype'
p27
g4
s.