c__builtin__
set
p0
((lp1
S'x'
p2
aS'model'
p3
aS'dt'
p4
aS'ff'
p5
atp6
Rp7
.(dp0
S'model.sim'
p1
S'string'
p2
sS'model.evtout'
p3
S'double'
p4
sS'ok'
p5
S'boolean'
p6
sS'model.evtin'
p7
g4
sS'x.graphics'
p8
S'object'
p9
sS'arg1'
p10
g9
sS'graphics.exprs'
p11
NsS'model.rpar'
p12
g4
sS'exprs'
p13
S'matrix'
p14
sS'x.model'
p15
NsS'gr_i'
p16
S'vector'
p17
sS'model.dep_ut'
p18
g17
sS'ff'
p19
g4
sS'graphics'
p20
g9
sS'y'
p21
g17
sS'x'
p22
g4
sS'model'
p23
g9
sS'typ'
p24
g17
sS'dt'
p25
g4
sS'model.firing'
p26
g4
sS'model.blocktype'
p27
g2
s.