c__builtin__
set
p0
((lp1
S'x'
p2
aS'model'
p3
aS'dt'
p4
aS'ff'
p5
atp6
Rp7
.(dp0
S'model.sim'
p1
S'vector'
p2
sS'model.evtout'
p3
S'double'
p4
sS'ok'
p5
S'boolean'
p6
sS'model.evtin'
p7
g4
sS'x.graphics'
p8
S'object'
p9
sS'arg1'
p10
g9
sS'graphics.exprs'
p11
NsS'model.rpar'
p12
S'matrix'
p13
sS'exprs'
p14
g13
sS'x.model'
p15
NsS'gr_i'
p16
g2
sS'model.dep_ut'
p17
g2
sS'ff'
p18
g4
sS'graphics'
p19
g9
sS'y'
p20
g2
sS'x'
p21
g4
sS'model'
p22
g9
sS'typ'
p23
g2
sS'dt'
p24
g4
sS'model.firing'
p25
g4
sS'model.blocktype'
p26
S'string'
p27
s.