c__builtin__
set
p0
((lp1
S'x'
p2
aS'model'
p3
aS'dt'
p4
aS'ff'
p5
aS'graphics'
p6
atp7
Rp8
.(dp0
S'model.sim'
p1
S'string'
p2
sS'model.evtout'
p3
S'double'
p4
sS'ok'
p5
S'boolean'
p6
sS'model.evtin'
p7
g4
sS'x.graphics'
p8
S'object'
p9
sS'graphics.exprs'
p10
NsS'model.rpar'
p11
g4
sS'exprs'
p12
S'matrix'
p13
sS'x.model'
p14
NsS'gr_i'
p15
S'vector'
p16
sS'model.dep_ut'
p17
S'vector_boolean'
p18
sS'ff'
p19
g4
sS'graphics'
p20
g9
sS'y'
p21
g16
sS'x'
p22
g16
sS'dt'
p23
g4
sS'typ'
p24
g16
sS'model'
p25
g9
sS'model.firing'
p26
g4
sS'model.blocktype'
p27
g2
s.