c__builtin__
set
p0
((lp1
S'x'
p2
aS'model'
p3
aS'dt'
p4
aS'ff'
p5
aS'graphics'
p6
atp7
Rp8
.(dp0
S'model.sim'
p1
S'string'
p2
sS'model.evtout'
p3
S'double'
p4
sS'ok'
p5
S'boolean'
p6
sS'model.evtin'
p7
g4
sS'x.graphics'
p8
S'object'
p9
sS'arg1'
p10
g9
sS'graphics.exprs'
p11
NsS'model.rpar'
p12
g4
sS'exprs'
p13
S'matrix'
p14
sS'x.model'
p15
NsS'gr_i'
p16
S'vector'
p17
sS'model.dep_ut'
p18
S'vector_boolean'
p19
sS'ff'
p20
g4
sS'graphics'
p21
g9
sS'y'
p22
g17
sS'x'
p23
NsS'model'
p24
g9
sS'typ'
p25
g17
sS'dt'
p26
g4
sS'model.firing'
p27
g4
sS'model.blocktype'
p28
g2
s.