c__builtin__
set
p0
((lp1
S'x'
p2
aS'dt'
p3
aS'ff'
p4
atp5
Rp6
.(dp0
S'this.x'
p1
S'double'
p2
sS'model.sim'
p3
S'vector'
p4
sS'model.evtout'
p5
g2
sS'ok'
p6
S'boolean'
p7
sS'model.evtin'
p8
g2
sS'this.x.graphics'
p9
S'object'
p10
sS'arg1'
p11
g10
sS'graphics.exprs'
p12
NsS'model.rpar'
p13
S'matrix'
p14
sS'this.x.model'
p15
NsS'exprs'
p16
g14
sS'gr_i'
p17
g4
sS'model.dep_ut'
p18
g4
sS'graphics'
p19
g10
sS'y'
p20
g4
sS'model'
p21
g2
sS'this.ff'
p22
g2
sS'typ'
p23
g4
sS'this.dt'
p24
g2
sS'model.firing'
p25
NsS'model.blocktype'
p26
S'string'
p27
s.