c__builtin__
set
p0
((lp1
S'tt'
p2
aS'exprs'
p3
aS'gr_i'
p4
aS'graphics'
p5
aS'x'
p6
aS'model'
p7
atp8
Rp9
.(dp0
S'model.sim'
p1
S'string'
p2
sS'model.evtout'
p3
S'double'
p4
sS'model.blocktype'
p5
g2
sS'x.graphics'
p6
S'object'
p7
sS'arg1'
p8
g7
sS'tt'
p9
g4
sS'graphics.exprs'
p10
NsS'model.dep_ut'
p11
S'vector'
p12
sS'exprs'
p13
g2
sS'x.model'
p14
g7
sS'gr_i'
p15
g12
sS'graphics'
p16
g7
sS'y'
p17
g12
sS'x'
p18
NsS'model'
p19
g7
sS'typ'
p20
g12
sS'model.firing'
p21
g4
s.