c__builtin__
set
p0
((lp1
S'x'
p2
aS'tt'
p3
atp4
Rp5
.(dp0
S'this.x'
p1
S'double'
p2
sS'model.sim'
p3
S'string'
p4
sS'model.evtout'
p5
g2
sS'model.blocktype'
p6
g4
sS'this.x.graphics'
p7
S'object'
p8
sS'arg1'
p9
g8
sS'graphics.exprs'
p10
NsS'this.tt'
p11
g2
sS'model.dep_ut'
p12
S'vector'
p13
sS'this.x.model'
p14
g8
sS'exprs'
p15
g4
sS'gr_i'
p16
g13
sS'graphics'
p17
g8
sS'y'
p18
g13
sS'model'
p19
g2
sS'typ'
p20
g13
sS'model.firing'
p21
Ns.