c__builtin__
set
p0
((lp1
S'x'
p2
aS'model'
p3
aS'tt'
p4
aS'graphics'
p5
atp6
Rp7
.(dp0
S'model.sim'
p1
S'string'
p2
sS'model.evtout'
p3
S'double'
p4
sS'model.blocktype'
p5
g2
sS'x.graphics'
p6
S'object'
p7
sS'tt'
p8
g4
sS'graphics'
p9
g7
sS'model.dep_ut'
p10
S'vector_boolean'
p11
sS'exprs'
p12
g2
sS'x.model'
p13
g7
sS'gr_i'
p14
S'vector'
p15
sS'graphics.exprs'
p16
NsS'y'
p17
g15
sS'x'
p18
g15
sS'model'
p19
g7
sS'typ'
p20
g15
sS'model.firing'
p21
g4
s.