c__builtin__
set
p0
((lp1
S'fir'
p2
aS'x'
p3
aS'model'
p4
atp5
Rp6
.(dp0
S'model.sim'
p1
S'vector'
p2
sS'model.in1'
p3
S'double'
p4
sS'model.evtin'
p5
g4
sS'x.graphics'
p6
S'object'
p7
sS'arg1'
p8
g7
sS'graphics.exprs'
p9
NsS'model.evtout'
p10
g4
sS'model.dep_ut'
p11
g2
sS'exprs'
p12
S'string'
p13
sS'x.model'
p14
NsS'gr_i'
p15
g2
sS'graphics'
p16
g7
sS'y'
p17
g2
sS'x'
p18
g4
sS'model'
p19
g7
sS'typ'
p20
g2
sS'model.firing'
p21
g4
sS'model.blocktype'
p22
g13
s.