c__builtin__
set
p0
((lp1
S'fir'
p2
aS'x'
p3
atp4
Rp5
.(dp0
S'this.x'
p1
S'double'
p2
sS'model.sim'
p3
S'vector'
p4
sS'model.in1'
p5
g2
sS'model.evtin'
p6
g2
sS'this.x.graphics'
p7
S'object'
p8
sS'arg1'
p9
g8
sS'graphics.exprs'
p10
NsS'model.evtout'
p11
g2
sS'model.dep_ut'
p12
g4
sS'this.x.model'
p13
NsS'exprs'
p14
S'string'
p15
sS'gr_i'
p16
g4
sS'graphics'
p17
g8
sS'y'
p18
g4
sS'model'
p19
g8
sS'typ'
p20
g4
sS'model.firing'
p21
g2
sS'model.blocktype'
p22
g15
s.