c__builtin__
set
p0
((lp1
S'fir'
p2
aS'x'
p3
aS'model'
p4
aS'graphics'
p5
atp6
Rp7
.(dp0
S'model.sim'
p1
S'list'
p2
sS'model.in1'
p3
S'double'
p4
sS'model.evtin'
p5
g4
sS'x.graphics'
p6
S'object'
p7
sS'arg1'
p8
g7
sS'graphics.exprs'
p9
NsS'model.evtout'
p10
g4
sS'model.dep_ut'
p11
S'vector'
p12
sS'exprs'
p13
S'string'
p14
sS'x.model'
p15
NsS'gr_i'
p16
g12
sS'graphics'
p17
g7
sS'y'
p18
g12
sS'x'
p19
g4
sS'model'
p20
g7
sS'typ'
p21
g12
sS'model.firing'
p22
g4
sS'model.blocktype'
p23
g14
s.