c__builtin__
set
p0
((lp1
S'fir'
p2
aS'x'
p3
aS'model'
p4
aS'graphics'
p5
atp6
Rp7
.(dp0
S'model.sim'
p1
S'list'
p2
sS'model.evtout'
p3
S'double'
p4
sS'model.evtin'
p5
g4
sS'x.graphics'
p6
S'object'
p7
sS'graphics'
p8
g7
sS'model.dep_ut'
p9
S'vector_boolean'
p10
sS'exprs'
p11
S'string'
p12
sS'x.model'
p13
NsS'gr_i'
p14
S'vector'
p15
sS'model.in'
p16
g4
sS'graphics.exprs'
p17
NsS'y'
p18
g15
sS'x'
p19
g15
sS'model'
p20
g7
sS'typ'
p21
g15
sS'model.firing'
p22
g4
sS'model.blocktype'
p23
g12
s.