c__builtin__
set
p0
((lp1
S'fir'
p2
aS'exprs'
p3
aS'gr_i'
p4
aS'graphics'
p5
aS'x'
p6
aS'model'
p7
atp8
Rp9
.(dp0
S'model.sim'
p1
S'list'
p2
sS'model.evtout'
p3
S'double'
p4
sS'model.evtin'
p5
g4
sS'x.graphics'
p6
S'object'
p7
sS'arg1'
p8
g7
sS'graphics.exprs'
p9
NsS'model.dep_ut'
p10
S'vector_boolean'
p11
sS'exprs'
p12
S'string'
p13
sS'x.model'
p14
NsS'gr_i'
p15
S'vector'
p16
sS'model.in'
p17
g4
sS'graphics'
p18
g7
sS'y'
p19
g16
sS'x'
p20
NsS'model'
p21
g7
sS'typ'
p22
g16
sS'model.firing'
p23
g4
sS'model.blocktype'
p24
g13
s.