c__builtin__
set
p0
((lp1
S'x'
p2
aS'model'
p3
aS'%df'
p4
aS'%ph'
p5
atp6
Rp7
.(dp0
S'lnk.ct'
p1
S'vector'
p2
sS'scs_m_1.objs[9-1]'
p3
S'double'
p4
sS'model.dstate'
p5
g4
sS'lnk'
p6
g4
sS'scs_m_1'
p7
S'object'
p8
sS'arg1'
p9
g8
sS'scs_m_1.objs[6-1]'
p10
g4
sS'graphics'
p11
NsS'scs_m_1.objs[3-1]'
p12
g8
sS'xx'
p13
g8
sS'spath[$+1-1]'
p14
NsS'scs_m_1.objs[7-1]'
p15
g4
sS'scs_m_1.objs[8-1]'
p16
g4
sS'eq'
p17
g8
sS'graphics.orig'
p18
g2
sS'xxn.graphics'
p19
g8
sS'blk'
p20
g8
sS'newpar[size(newpar)+1-1]'
p21
g4
sS'%ph'
p22
g4
sS'eqn'
p23
g8
sS'model.evtin'
p24
g4
sS'blk.model'
p25
NsS'graphics.pein'
p26
g4
sS'lnk.from'
p27
g2
sS'scs_m_1.objs[2-1]'
p28
g8
sS'graphics.sz'
p29
g2
sS'model.sim'
p30
S'string'
p31
sS'model.evtout'
p32
g4
sS'spath'
p33
S'list'
p34
sS'%df'
p35
g4
sS'newpar'
p36
g34
sS'lnk.yy'
p37
g2
sS'graphics.pout'
p38
g4
sS'model.rpar'
p39
g8
sS'model_n'
p40
g8
sS'arg1[spath-1]'
p41
g8
sS'scs_m_1.objs[4-1]'
p42
g8
sS'graphics.pin'
p43
g4
sS'graphics.exprs'
p44
S'matrix'
p45
sS'path'
p46
NsS'xxn.model'
p47
NsS'model.ipar'
p48
g4
sS'typ'
p49
g34
sS'xxn'
p50
g8
sS'lnk.xx'
p51
g2
sS'needcompile'
p52
g4
sS'arg1.model'
p53
g8
sS'scs_m_1.objs[10-1]'
p54
g4
sS'scs_m_1.objs[1-1]'
p55
g8
sS'modified'
p56
g4
sS'o'
p57
g8
sS'exprs'
p58
NsS'scs_m_1.objs[5-1]'
p59
g8
sS'gr_i'
p60
g2
sS'blk.graphics'
p61
NsS'y'
p62
g4
sS'x'
p63
g4
sS'model'
p64
g8
sS'lnk.to'
p65
g2
sS'graphics.peout'
p66
g45
sS'arg1.model.rpar'
p67
g8
s.