c__builtin__
set
p0
((lp1
S'x'
p2
aS'%df'
p3
aS'%ph'
p4
atp5
Rp6
.(dp0
S'lnk.ct'
p1
S'vector'
p2
sS'scs_m_1.objs[9-1]'
p3
S'double'
p4
sS'model.dstate'
p5
g4
sS'lnk'
p6
g4
sS'scs_m_1'
p7
S'object'
p8
sS'arg1'
p9
g8
sS'scs_m_1.objs[6-1]'
p10
g4
sS'graphics'
p11
NsS'scs_m_1.objs[3-1]'
p12
g8
sS'xx'
p13
g8
sS'spath[$+1-1]'
p14
NsS'scs_m_1.objs[7-1]'
p15
g4
sS'scs_m_1.objs[8-1]'
p16
g4
sS'eq'
p17
g8
sS'graphics.orig'
p18
g2
sS'xxn.graphics'
p19
g8
sS'blk'
p20
g8
sS'newpar[size(newpar)+1-1]'
p21
g4
sS'%ph'
p22
g4
sS'eqn'
p23
g8
sS'model.evtin'
p24
g4
sS'blk.model'
p25
NsS'graphics.pein'
p26
g4
sS'lnk.from'
p27
g2
sS'scs_m_1.objs[2-1]'
p28
g8
sS'this.x'
p29
g4
sS'model.sim'
p30
S'string'
p31
sS'model.evtout'
p32
g4
sS'spath'
p33
g2
sS'%df'
p34
g4
sS'newpar'
p35
g2
sS'lnk.yy'
p36
g2
sS'graphics.pout'
p37
g4
sS'model.rpar'
p38
g8
sS'model_n'
p39
g8
sS'arg1[spath-1]'
p40
g8
sS'scs_m_1.objs[4-1]'
p41
g8
sS'graphics.pin'
p42
g4
sS'graphics.exprs'
p43
S'matrix'
p44
sS'path'
p45
NsS'xxn.model'
p46
NsS'model.ipar'
p47
g4
sS'typ'
p48
g2
sS'xxn'
p49
g8
sS'lnk.xx'
p50
g2
sS'needcompile'
p51
g4
sS'arg1.model'
p52
g8
sS'scs_m_1.objs[10-1]'
p53
g4
sS'scs_m_1.objs[1-1]'
p54
g8
sS'modified'
p55
g4
sS'o'
p56
g8
sS'exprs'
p57
NsS'scs_m_1.objs[5-1]'
p58
g8
sS'gr_i'
p59
g2
sS'blk.graphics'
p60
NsS'y'
p61
g4
sS'graphics.sz'
p62
g2
sS'model'
p63
g8
sS'lnk.to'
p64
g2
sS'graphics.peout'
p65
g44
sS'arg1.model.rpar'
p66
g8
s.