c__builtin__
set
p0
((lp1
S'x'
p2
aS'model'
p3
aS'%df'
p4
aS'%ph'
p5
aS'graphics'
p6
atp7
Rp8
.(dp0
S'lnk.ct'
p1
S'vector'
p2
sS'scs_m_1.objs[9-1]'
p3
S'double'
p4
sS'model.dstate'
p5
g4
sS'lnk'
p6
g4
sS'scs_m_1'
p7
S'object'
p8
sS'scs_m_1.objs[6-1]'
p9
g4
sS'graphics'
p10
NsS'scs_m_1.objs[3-1]'
p11
g8
sS'xx'
p12
g8
sS'spath[$+1-1]'
p13
NsS'scs_m_1.objs[7-1]'
p14
g4
sS'scs_m_1.objs[8-1]'
p15
g4
sS'eq'
p16
g8
sS'graphics.orig'
p17
g2
sS'xxn.graphics'
p18
g8
sS'blk'
p19
g8
sS'newpar[size(newpar)+1-1]'
p20
g4
sS'%ph'
p21
g4
sS'eqn'
p22
g8
sS'model.evtin'
p23
g4
sS'blk.model'
p24
NsS'graphics.pein'
p25
g4
sS'lnk.from'
p26
g2
sS'scs_m_1.objs[2-1]'
p27
g8
sS'graphics.sz'
p28
g2
sS'model.sim'
p29
S'string'
p30
sS'model.evtout'
p31
g4
sS'spath'
p32
S'list'
p33
sS'%df'
p34
g4
sS'newpar'
p35
g33
sS'lnk.yy'
p36
g2
sS'model.rpar'
p37
g8
sS'model_n'
p38
g8
sS'scs_m_1.objs[4-1]'
p39
g8
sS'graphics.pin'
p40
g4
sS'graphics.exprs'
p41
S'matrix'
p42
sS'path'
p43
NsS'xxn.model'
p44
NsS'model.ipar'
p45
g4
sS'typ'
p46
g33
sS'xxn'
p47
g8
sS'lnk.xx'
p48
g2
sS'needcompile'
p49
g4
sS'graphics.pout'
p50
g4
sS'scs_m_1.objs[10-1]'
p51
g4
sS'scs_m_1.objs[1-1]'
p52
g8
sS'modified'
p53
g4
sS'o'
p54
g8
sS'exprs'
p55
NsS'scs_m_1.objs[5-1]'
p56
g8
sS'gr_i'
p57
g2
sS'y'
p58
g4
sS'x'
p59
g2
sS'model'
p60
g8
sS'lnk.to'
p61
g2
sS'graphics.peout'
p62
g42
sS'blk.graphics'
p63
Ns.