c__builtin__
set
p0
((lp1
S'x'
p2
aS'n'
p3
atp4
Rp5
.(dp0
S'this.x'
p1
S'double'
p2
sS'model.sim'
p3
S'string'
p4
sS'model.dstate'
p5
g2
sS'model.evtin'
p6
g2
sS'this.x.graphics'
p7
S'object'
p8
sS'arg1'
p9
g8
sS'graphics.exprs'
p10
NsS'model.dep_ut'
p11
S'vector'
p12
sS'this.x.model'
p13
NsS'exprs'
p14
g4
sS'gr_i'
p15
g12
sS'this.n'
p16
g2
sS'graphics'
p17
g8
sS'y'
p18
g12
sS'model'
p19
g8
sS'model.ipar'
p20
g2
sS'typ'
p21
g12
sS'model.blocktype'
p22
g4
s.