c__builtin__
set
p0
((lp1
S'x'
p2
aS'n'
p3
atp4
Rp5
.(dp0
S'model.sim'
p1
S'string'
p2
sS'model.dstate'
p3
S'double'
p4
sS'model.evtin'
p5
g4
sS'x.graphics'
p6
S'object'
p7
sS'arg1'
p8
g7
sS'graphics.exprs'
p9
NsS'model.dep_ut'
p10
S'vector'
p11
sS'n'
p12
g4
sS'exprs'
p13
g2
sS'x.model'
p14
NsS'gr_i'
p15
g11
sS'graphics'
p16
g7
sS'y'
p17
g11
sS'x'
p18
g4
sS'model'
p19
g7
sS'model.ipar'
p20
g4
sS'typ'
p21
g11
sS'model.blocktype'
p22
g2
s.