c__builtin__
set
p0
((lp1
S'x'
p2
aS'model'
p3
aS'n'
p4
aS'graphics'
p5
atp6
Rp7
.(dp0
S'model.sim'
p1
S'string'
p2
sS'model.dstate'
p3
S'double'
p4
sS'model.evtin'
p5
g4
sS'x.graphics'
p6
S'object'
p7
sS'graphics'
p8
g7
sS'model.dep_ut'
p9
S'vector_boolean'
p10
sS'n'
p11
g4
sS'exprs'
p12
g2
sS'x.model'
p13
NsS'gr_i'
p14
S'vector'
p15
sS'graphics.exprs'
p16
NsS'y'
p17
g15
sS'x'
p18
g15
sS'model'
p19
g7
sS'model.ipar'
p20
g4
sS'typ'
p21
g15
sS'model.blocktype'
p22
g2
s.