c__builtin__
set
p0
((lp1
S'x'
p2
aS'model'
p3
aS'n'
p4
aS'graphics'
p5
atp6
Rp7
.(dp0
S'model.sim'
p1
S'string'
p2
sS'model.dstate'
p3
S'double'
p4
sS'model.evtin'
p5
g4
sS'x.graphics'
p6
S'object'
p7
sS'arg1'
p8
g7
sS'graphics.exprs'
p9
NsS'model.dep_ut'
p10
S'vector_boolean'
p11
sS'n'
p12
g4
sS'exprs'
p13
g2
sS'x.model'
p14
NsS'gr_i'
p15
S'vector'
p16
sS'graphics'
p17
g7
sS'y'
p18
g16
sS'x'
p19
NsS'model'
p20
g7
sS'model.ipar'
p21
g4
sS'typ'
p22
g16
sS'model.blocktype'
p23
g2
s.