c__builtin__
set
p0
((lp1
S'nmod'
p2
aS'exprs'
p3
aS'gr_i'
p4
aS'inh'
p5
aS'graphics'
p6
aS'x'
p7
aS'model'
p8
atp9
Rp10
.(dp0
S'arg1'
p1
S'object'
p2
sS'graphics'
p3
g2
sS'x.model'
p4
NsS'inh'
p5
S'vector'
p6
sS'nmod'
p7
S'double'
p8
sS'model.in2'
p9
g8
sS'model.intyp'
p10
g8
sS'x.graphics'
p11
g2
sS'typ'
p12
g6
sS'model.evtin'
p13
g8
sS'exprs[2-1]'
p14
S'string'
p15
sS'model.firing'
p16
g6
sS'model.sim'
p17
S'list'
p18
sS'model.evtout'
p19
S'matrix'
p20
sS'model.nmode'
p21
g8
sS'model.in'
p22
g8
sS'graphics.exprs'
p23
g15
sS'model.nzcross'
p24
g8
sS'model.blocktype'
p25
g15
sS'model.sim[2-1]'
p26
g8
sS'model.dep_ut'
p27
S'vector_boolean'
p28
sS'exprs'
p29
g20
sS'gr_i'
p30
g6
sS'y'
p31
g6
sS'x'
p32
NsS'model'
p33
g2
s.