c__builtin__
set
p0
((lp1
S'x'
p2
aS'model'
p3
aS'inh'
p4
aS'nmod'
p5
aS'graphics'
p6
atp7
Rp8
.(dp0
S'graphics'
p1
S'object'
p2
sS'x.model'
p3
NsS'inh'
p4
S'vector'
p5
sS'nmod'
p6
S'double'
p7
sS'model.in2'
p8
g7
sS'model.intyp'
p9
g7
sS'x.graphics'
p10
g2
sS'typ'
p11
g5
sS'model.evtin'
p12
g7
sS'exprs[2-1]'
p13
S'string'
p14
sS'model.firing'
p15
g5
sS'model.sim'
p16
S'list'
p17
sS'model.evtout'
p18
S'matrix'
p19
sS'model.nmode'
p20
g7
sS'model.in'
p21
g7
sS'graphics.exprs'
p22
g14
sS'model.nzcross'
p23
g7
sS'model.blocktype'
p24
g14
sS'model.sim[2-1]'
p25
g7
sS'model.dep_ut'
p26
S'vector_boolean'
p27
sS'exprs'
p28
g19
sS'gr_i'
p29
g5
sS'y'
p30
g5
sS'x'
p31
g5
sS'model'
p32
g2
s.