c__builtin__
set
p0
((lp1
S'x'
p2
aS'inh'
p3
aS'nmod'
p4
atp5
Rp6
.(dp0
S'arg1'
p1
S'object'
p2
sS'graphics'
p3
g2
sS'x.model'
p4
NsS'model.intyp'
p5
S'double'
p6
sS'inh'
p7
S'vector'
p8
sS'nmod'
p9
g6
sS'model.in2'
p10
g6
sS'model.in1'
p11
g6
sS'x.graphics'
p12
g2
sS'typ'
p13
g8
sS'model.evtin'
p14
g6
sS'exprs[2-1]'
p15
S'string'
p16
sS'model.firing'
p17
g8
sS'model.sim'
p18
g8
sS'model.evtout'
p19
S'matrix'
p20
sS'model.nmode'
p21
g6
sS'graphics.exprs'
p22
g16
sS'model.nzcross'
p23
g6
sS'[model,graphics,ok]'
p24
g6
sS'model.blocktype'
p25
g16
sS'model.sim[2-1]'
p26
g6
sS'model.dep_ut'
p27
g8
sS'exprs'
p28
g20
sS'gr_i'
p29
g8
sS'y'
p30
g8
sS'x'
p31
g6
sS'model'
p32
g2
s.