c__builtin__
set
p0
((lp1
S'x'
p2
aS'model'
p3
aS'inh'
p4
aS'nmod'
p5
atp6
Rp7
.(dp0
S'arg1'
p1
S'object'
p2
sS'graphics'
p3
g2
sS'x.model'
p4
NsS'model.intyp'
p5
S'double'
p6
sS'inh'
p7
S'vector'
p8
sS'nmod'
p9
g6
sS'model.in2'
p10
g6
sS'model.in1'
p11
g6
sS'x.graphics'
p12
g2
sS'typ'
p13
g8
sS'model.evtin'
p14
g6
sS'exprs[2-1]'
p15
S'string'
p16
sS'model.firing'
p17
g8
sS'model.sim'
p18
S'list'
p19
sS'model.evtout'
p20
S'matrix'
p21
sS'[this.model,graphics,ok]'
p22
g6
sS'model.nmode'
p23
g6
sS'graphics.exprs'
p24
g16
sS'model.nzcross'
p25
g6
sS'model.sim[2]'
p26
g6
sS'model.blocktype'
p27
g16
sS'model.dep_ut'
p28
g8
sS'exprs'
p29
g21
sS'gr_i'
p30
g8
sS'y'
p31
g8
sS'x'
p32
g6
sS'model'
p33
g2
s.