c__builtin__
set
p0
((lp1
S'x'
p2
aS'inh'
p3
aS'nmod'
p4
atp5
Rp6
.(dp0
S'this.nmod'
p1
S'double'
p2
sS'this.x.graphics'
p3
S'object'
p4
sS'arg1'
p5
g4
sS'graphics'
p6
g4
sS'model.intyp'
p7
g2
sS'this.x.model'
p8
NsS'this.inh'
p9
S'vector'
p10
sS'model.in1'
p11
g2
sS'typ'
p12
g10
sS'model.evtin'
p13
g2
sS'model.sim[2-1]'
p14
g2
sS'model.firing'
p15
g10
sS'this.x'
p16
g2
sS'model.sim'
p17
g10
sS'model.evtout'
p18
S'matrix'
p19
sS'model.in2'
p20
g2
sS'model.nmode'
p21
g2
sS'graphics.exprs'
p22
S'string'
p23
sS'model.nzcross'
p24
g2
sS'[model,graphics,ok]'
p25
g2
sS'model.blocktype'
p26
g23
sS'exprs[2-1]'
p27
g23
sS'model.dep_ut'
p28
g10
sS'exprs'
p29
g19
sS'gr_i'
p30
g10
sS'y'
p31
g10
sS'model'
p32
g4
s.