c__builtin__
set
p0
((lp1
S'x'
p2
aS'frequ'
p3
aS'of'
p4
aS'fr'
p5
aS'offset'
p6
atp7
Rp8
.(dp0
S'arg1'
p1
S'object'
p2
sS'graphics.exprs'
p3
NsS'[m,den,off,count,m1,fir,this.frequ,this.offset,ok]'
p4
S'double'
p5
sS'istreated'
p6
S'boolean'
p7
sS'x.model'
p8
NsS'ind'
p9
g5
sS'graphics'
p10
g2
sS'x.graphics'
p11
g2
sS'model.evtin'
p12
g5
sS'model.firing'
p13
S'vector'
p14
sS'model.sim'
p15
g14
sS'model.evtout'
p16
S'matrix'
p17
sS'model.rpar'
p18
g14
sS'graphics.sz'
p19
g14
sS'offset'
p20
g14
sS'typ'
p21
g14
sS'model.opar'
p22
g14
sS'[model,graphics,ok]'
p23
g5
sS'ok'
p24
g7
sS'model.blocktype'
p25
S'string'
p26
sS'frequ'
p27
g14
sS'mn'
p28
g5
sS'm'
p29
g17
sS'model.dep_ut'
p30
g14
sS'exprs'
p31
g17
sS'gr_i'
p32
g14
sS'y'
p33
g14
sS'x'
p34
g5
sS'model'
p35
g2
sS'ot'
p36
g17
sS'k'
p37
g17
s.