c__builtin__
set
p0
((lp1
S'fr'
p2
aS'of'
p3
aS'frequ'
p4
aS'offset'
p5
aS'x'
p6
aS'model'
p7
atp8
Rp9
.(dp0
S'arg1'
p1
S'object'
p2
sS'graphics.exprs'
p3
NsS'[m,den,off,count,m1,fir,this.frequ,this.offset,ok]'
p4
S'double'
p5
sS'istreated'
p6
S'boolean'
p7
sS'x.model'
p8
NsS'ind'
p9
g5
sS'graphics'
p10
g2
sS'x.graphics'
p11
g2
sS'model.evtin'
p12
g5
sS'model.firing'
p13
S'vector'
p14
sS'model.sim'
p15
S'list'
p16
sS'model.evtout'
p17
S'matrix'
p18
sS'[this.model,graphics,ok]'
p19
g5
sS'model.rpar'
p20
g14
sS'graphics.sz'
p21
g14
sS'offset'
p22
g14
sS'typ'
p23
g14
sS'model.opar'
p24
g16
sS'ok'
p25
g7
sS'model.blocktype'
p26
S'string'
p27
sS'frequ'
p28
g14
sS'mn'
p29
g5
sS'm'
p30
g18
sS'model.dep_ut'
p31
g14
sS'exprs'
p32
g18
sS'gr_i'
p33
g14
sS'y'
p34
g14
sS'x'
p35
g5
sS'model'
p36
g2
sS'ot'
p37
g18
sS'k'
p38
g18
s.