c__builtin__
set
p0
((lp1
S'fr'
p2
aS'of'
p3
aS'frequ'
p4
aS'graphics'
p5
aS'offset'
p6
aS'x'
p7
aS'model'
p8
atp9
Rp10
.(dp0
S'graphics.exprs'
p1
NsS'istreated'
p2
S'boolean'
p3
sS'x.model'
p4
NsS'ind'
p5
S'double'
p6
sS'x.graphics'
p7
S'object'
p8
sS'offset'
p9
S'vector'
p10
sS'model.evtin'
p11
g6
sS'model.firing'
p12
g10
sS'model.sim'
p13
S'list'
p14
sS'model.evtout'
p15
S'matrix'
p16
sS'model.rpar'
p17
g10
sS'graphics.sz'
p18
g10
sS'graphics'
p19
g8
sS'typ'
p20
g10
sS'model.opar'
p21
g14
sS'ok'
p22
g3
sS'model.blocktype'
p23
S'string'
p24
sS'frequ'
p25
g10
sS'mn'
p26
g6
sS'm'
p27
g16
sS'model.dep_ut'
p28
S'vector_boolean'
p29
sS'exprs'
p30
g16
sS'gr_i'
p31
g10
sS'y'
p32
g10
sS'x'
p33
g10
sS'model'
p34
g8
sS'ot'
p35
g16
sS'k'
p36
g16
s.