c__builtin__
set
p0
((lp1
S'x'
p2
aS'frequ'
p3
aS'of'
p4
aS'fr'
p5
aS'offset'
p6
atp7
Rp8
.(dp0
S'arg1'
p1
S'object'
p2
sS'graphics'
p3
g2
sS'[m,den,off,count,m1,fir,this.frequ,this.offset,ok]'
p4
S'double'
p5
sS'istreated'
p6
S'boolean'
p7
sS'this.x.model'
p8
NsS'ind'
p9
g5
sS'typ'
p10
S'vector'
p11
sS'model.evtin'
p12
g5
sS'model.firing'
p13
g11
sS'this.x'
p14
g5
sS'model.sim'
p15
g11
sS'model.evtout'
p16
S'matrix'
p17
sS'model.rpar'
p18
g11
sS'this.frequ'
p19
g11
sS'graphics.exprs'
p20
NsS'this.offset'
p21
g11
sS'graphics.sz'
p22
g11
sS'this.x.graphics'
p23
g2
sS'model.opar'
p24
g11
sS'[model,graphics,ok]'
p25
g5
sS'ok'
p26
g7
sS'model.blocktype'
p27
S'string'
p28
sS'k'
p29
g17
sS'mn'
p30
g5
sS'm'
p31
g17
sS'model.dep_ut'
p32
g11
sS'exprs'
p33
g17
sS'gr_i'
p34
g11
sS'y'
p35
g11
sS'model'
p36
g5
sS'ot'
p37
g17
s.