c__builtin__
set
p0
((lp1
S'fr'
p2
aS'of'
p3
aS'frequ'
p4
aS'offset'
p5
aS'exprs'
p6
aS'gr_i'
p7
aS'graphics'
p8
aS'x'
p9
aS'model'
p10
atp11
Rp12
.(dp0
S'arg1'
p1
S'object'
p2
sS'graphics.exprs'
p3
NsS'istreated'
p4
S'boolean'
p5
sS'x.model'
p6
NsS'ind'
p7
S'double'
p8
sS'graphics'
p9
g2
sS'x.graphics'
p10
g2
sS'model.evtin'
p11
g8
sS'model.firing'
p12
S'vector'
p13
sS'model.sim'
p14
S'list'
p15
sS'model.evtout'
p16
S'matrix'
p17
sS'model.rpar'
p18
g13
sS'graphics.sz'
p19
g13
sS'offset'
p20
g13
sS'typ'
p21
g13
sS'model.opar'
p22
g15
sS'ok'
p23
g5
sS'model.blocktype'
p24
S'string'
p25
sS'frequ'
p26
g13
sS'mn'
p27
g8
sS'm'
p28
g17
sS'model.dep_ut'
p29
g13
sS'exprs'
p30
g17
sS'gr_i'
p31
g13
sS'y'
p32
g13
sS'x'
p33
g8
sS'model'
p34
g2
sS'ot'
p35
g17
sS'k'
p36
g17
s.