c__builtin__
set
p0
((lp1
S'fr'
p2
aS'of'
p3
aS'frequ'
p4
aS'graphics'
p5
aS'offset'
p6
aS'x'
p7
aS'model'
p8
atp9
Rp10
.(dp0
S'arg1'
p1
S'object'
p2
sS'graphics.exprs'
p3
NsS'istreated'
p4
S'boolean'
p5
sS'x.model'
p6
NsS'ind'
p7
S'double'
p8
sS'graphics'
p9
g2
sS'x.graphics'
p10
g2
sS'model.evtin'
p11
g8
sS'model.firing'
p12
S'vector'
p13
sS'model.sim'
p14
S'list'
p15
sS'model.evtout'
p16
S'matrix'
p17
sS'model.rpar'
p18
g13
sS'graphics.sz'
p19
g13
sS'offset'
p20
g13
sS'typ'
p21
g13
sS'model.opar'
p22
g15
sS'ok'
p23
g5
sS'model.blocktype'
p24
S'string'
p25
sS'frequ'
p26
g13
sS'mn'
p27
g8
sS'm'
p28
g17
sS'model.dep_ut'
p29
S'vector_boolean'
p30
sS'exprs'
p31
g17
sS'gr_i'
p32
g13
sS'y'
p33
g13
sS'x'
p34
NsS'model'
p35
g2
sS'ot'
p36
g17
sS'k'
p37
g17
s.