c__builtin__
set
p0
((lp1
S'x'
p2
aS'model'
p3
aS'xxn'
p4
aS'graphics'
p5
atp6
Rp7
.(dp0
S'output_port1.graphics.exprs'
p1
S'string'
p2
sS'x.gui'
p3
g2
sS'diagram.objs[12-1]'
p4
S'double'
p5
sS'diagram.objs[1-1]'
p6
S'object'
p7
sS'arg1'
p8
g7
sS'split2.graphics.pein'
p9
g5
sS'mfclck.graphics.orig'
p10
S'vector'
p11
sS'mfclck.model.firing'
p12
g11
sS'diagram.objs[7-1]'
p13
g7
sS'mfclck.graphics.sz'
p14
g11
sS'x.model.rpar'
p15
g5
sS'mfclck.graphics.peout'
p16
S'matrix'
p17
sS'clksom.graphics.peout'
p18
g5
sS'output_port2.graphics.exprs'
p19
g2
sS'diagram.objs[3-1]'
p20
g5
sS'split2.graphics.orig'
p21
g17
sS'output_port2.graphics.sz'
p22
g11
sS'clksom.graphics.sz'
p23
g11
sS'split2'
p24
g7
sS'nn'
p25
g5
sS'split1'
p26
g7
sS'output_port1.graphics.orig'
p27
g11
sS'x.model.evtout'
p28
g17
sS'x.model.blocktype'
p29
g2
sS'mfclck.graphics.flip'
p30
S'boolean'
p31
sS'newpar[size(newpar)+1-1]'
p32
NsS'x.graphics.peout'
p33
g17
sS'gr_i'
p34
g11
sS'diagram.objs[6-1]'
p35
g7
sS'diagram.objs[5-1]'
p36
g5
sS'diagram.objs[9-1]'
p37
g5
sS'diagram.objs[8-1]'
p38
g7
sS'clksom.graphics.exprs'
p39
g17
sS'output_port1'
p40
g7
sS'clksom'
p41
g7
sS'output_port1.model.ipar'
p42
g5
sS'mfclck.graphics.exprs'
p43
g17
sS'diagram.objs[2-1]'
p44
g7
sS'clksom.graphics.pein'
p45
g17
sS'spath'
p46
S'list'
p47
sS'diagram.objs[10-1]'
p48
g5
sS'newpar'
p49
g47
sS'diagram.objs[4-1]'
p50
g5
sS'output_port2.model.ipar'
p51
g5
sS'diagram.objs[13-1]'
p52
g5
sS'output_port1.graphics.flip'
p53
g31
sS'x.graphics.sz'
p54
g11
sS'split1.graphics.pein'
p55
g5
sS'arg1[spath-1]'
p56
NsS'output_port1.graphics.pein'
p57
g5
sS'mfclck.model.ipar'
p58
g5
sS'mfclck.model.rpar'
p59
g5
sS'mfclck'
p60
g7
sS'path'
p61
NsS'dt'
p62
g5
sS'typ'
p63
g47
sS'x.model.sim'
p64
g2
sS'output_port2.graphics.flip'
p65
g31
sS'arg1.model'
p66
g7
sS'diagram.objs[11-1]'
p67
g7
sS'diagram'
p68
g5
sS'mfclck.graphics.pein'
p69
g5
sS'clksom.graphics.orig'
p70
g11
sS'split2.graphics.peout'
p71
g17
sS'xx'
p72
g7
sS'o'
p73
g7
sS'output_port2.graphics.orig'
p74
g11
sS'exprs'
p75
g17
sS'output_port1.graphics.sz'
p76
g11
sS'split1.graphics.orig'
p77
g17
sS'output_port2.graphics.pein'
p78
g5
sS'clksom.graphics.flip'
p79
g31
sS'y'
p80
g5
sS'x'
p81
g5
sS'split1.graphics.peout'
p82
g17
sS'output_port2'
p83
g7
sS'x.graphics.gr_i'
p84
g11
sS'arg1.model.rpar'
p85
g7
s.