c__builtin__
set
p0
((lp1
S'x'
p2
aS'xxn'
p3
atp4
Rp5
.(dp0
S'mfclck.graphics.exprs'
p1
S'matrix'
p2
sS'diagram.objs[12-1]'
p3
S'double'
p4
sS'this.x.model.evtout'
p5
g2
sS'diagram.objs[1-1]'
p6
g4
sS'output_port1.graphics.exprs'
p7
S'string'
p8
sS'arg1'
p9
S'object'
p10
sS'this.x.graphics.sz'
p11
S'vector'
p12
sS'split2.graphics.pein'
p13
g4
sS'mfclck.graphics.orig'
p14
g12
sS'mfclck.model.firing'
p15
g12
sS'diagram.objs[7-1]'
p16
g4
sS'this.x.model.blocktype'
p17
g8
sS'mfclck.graphics.sz'
p18
g12
sS'this.x.graphics.peout'
p19
g2
sS'mfclck.graphics.peout'
p20
g2
sS'clksom.graphics.peout'
p21
g4
sS'output_port2.graphics.exprs'
p22
g8
sS'diagram.objs[3-1]'
p23
g4
sS'split2.graphics.orig'
p24
g2
sS'output_port2.graphics.sz'
p25
g12
sS'clksom.graphics.sz'
p26
g12
sS'split2'
p27
g4
sS'nn'
p28
g4
sS'split1'
p29
g4
sS'output_port1.graphics.orig'
p30
g12
sS'this.x.model.rpar'
p31
g4
sS'this.x.gui'
p32
g8
sS'mfclck.graphics.flip'
p33
S'boolean'
p34
sS'newpar[size(newpar)+1-1]'
p35
NsS'this.x.graphics.gr_i'
p36
g12
sS'gr_i'
p37
g12
sS'diagram.objs[6-1]'
p38
g4
sS'diagram.objs[5-1]'
p39
g4
sS'diagram.objs[9-1]'
p40
g4
sS'this.x.model.sim'
p41
g8
sS'diagram.objs[8-1]'
p42
g4
sS'clksom.graphics.exprs'
p43
g2
sS'output_port1'
p44
g4
sS'clksom'
p45
g4
sS'output_port1.model.ipar'
p46
g4
sS'this.x'
p47
g4
sS'diagram.objs[2-1]'
p48
g4
sS'clksom.graphics.pein'
p49
g2
sS'spath'
p50
g12
sS'diagram.objs[10-1]'
p51
g4
sS'newpar'
p52
g12
sS'diagram.objs[4-1]'
p53
g4
sS'output_port2.model.ipar'
p54
g4
sS'diagram.objs[13-1]'
p55
g4
sS'output_port1.graphics.flip'
p56
g34
sS'split1.graphics.pein'
p57
g4
sS'arg1[spath-1]'
p58
NsS'output_port1.graphics.pein'
p59
g4
sS'mfclck.model.ipar'
p60
g4
sS'mfclck'
p61
g4
sS'path'
p62
NsS'dt'
p63
g4
sS'typ'
p64
g12
sS'output_port2.graphics.flip'
p65
g34
sS'arg1.model'
p66
g10
sS'diagram.objs[11-1]'
p67
g4
sS'diagram'
p68
g4
sS'mfclck.graphics.pein'
p69
g4
sS'clksom.graphics.orig'
p70
g12
sS'split2.graphics.peout'
p71
g2
sS'xx'
p72
g10
sS'o'
p73
g10
sS'output_port2.graphics.orig'
p74
g12
sS'exprs'
p75
g2
sS'output_port1.graphics.sz'
p76
g12
sS'split1.graphics.orig'
p77
g2
sS'output_port2.graphics.pein'
p78
g4
sS'clksom.graphics.flip'
p79
g34
sS'y'
p80
g4
sS'mfclck.model.rpar'
p81
g4
sS'split1.graphics.peout'
p82
g2
sS'output_port2'
p83
g4
sS'arg1.model.rpar'
p84
g10
s.