c__builtin__
set
p0
((lp1
S'x'
p2
aS'model'
p3
aS'xxn'
p4
aS'graphics'
p5
atp6
Rp7
.(dp0
S'output_port1.graphics.exprs'
p1
S'string'
p2
sS'x.gui'
p3
g2
sS'diagram.objs[12-1]'
p4
S'double'
p5
sS'diagram.objs[1-1]'
p6
S'object'
p7
sS'diagram.objs[9-1]'
p8
g5
sS'split2.graphics.pein'
p9
g5
sS'mfclck.graphics.orig'
p10
S'vector'
p11
sS'mfclck.model.firing'
p12
g11
sS'diagram.objs[7-1]'
p13
g7
sS'mfclck.graphics.sz'
p14
g11
sS'x.model.rpar'
p15
g5
sS'mfclck.graphics.peout'
p16
S'matrix'
p17
sS'clksom.graphics.peout'
p18
g5
sS'output_port2.graphics.exprs'
p19
g2
sS'diagram.objs[3-1]'
p20
g5
sS'split2.graphics.orig'
p21
g17
sS'output_port2.graphics.sz'
p22
g11
sS'clksom.graphics.sz'
p23
g11
sS'split2'
p24
g7
sS'nn'
p25
g5
sS'split1'
p26
g7
sS'output_port1.graphics.orig'
p27
g11
sS'x.model.evtout'
p28
g17
sS'x.model.blocktype'
p29
g2
sS'mfclck.graphics.flip'
p30
S'boolean'
p31
sS'x.model.sim'
p32
g2
sS'newpar[size(newpar)+1-1]'
p33
NsS'x.graphics.peout'
p34
g17
sS'gr_i'
p35
g11
sS'diagram.objs[6-1]'
p36
g7
sS'diagram.objs[5-1]'
p37
g5
sS'diagram.objs[13-1]'
p38
g5
sS'diagram.objs[8-1]'
p39
g7
sS'clksom.graphics.exprs'
p40
g17
sS'output_port1'
p41
g7
sS'clksom'
p42
g7
sS'output_port1.model.ipar'
p43
g5
sS'mfclck.graphics.exprs'
p44
g17
sS'diagram.objs[2-1]'
p45
g7
sS'clksom.graphics.pein'
p46
g17
sS'spath'
p47
S'list'
p48
sS'diagram.objs[10-1]'
p49
g5
sS'newpar'
p50
g48
sS'diagram.objs[4-1]'
p51
g5
sS'output_port2.model.ipar'
p52
g5
sS'output_port1.graphics.flip'
p53
g31
sS'x.graphics.sz'
p54
g11
sS'split1.graphics.pein'
p55
g5
sS'model.rpar'
p56
g7
sS'diagram'
p57
g5
sS'output_port1.graphics.pein'
p58
g5
sS'mfclck.model.ipar'
p59
g5
sS'x'
p60
g5
sS'mfclck'
p61
g7
sS'path'
p62
NsS'dt'
p63
g5
sS'typ'
p64
g48
sS'split1.graphics.peout'
p65
g17
sS'output_port2.graphics.flip'
p66
g31
sS'diagram.objs[11-1]'
p67
g7
sS'mfclck.graphics.pein'
p68
g5
sS'clksom.graphics.orig'
p69
g11
sS'split2.graphics.peout'
p70
g17
sS'xx'
p71
g7
sS'o'
p72
g7
sS'output_port2.graphics.orig'
p73
g11
sS'exprs'
p74
g17
sS'output_port1.graphics.sz'
p75
g11
sS'split1.graphics.orig'
p76
g17
sS'output_port2.graphics.pein'
p77
g5
sS'clksom.graphics.flip'
p78
g31
sS'y'
p79
g5
sS'mfclck.model.rpar'
p80
g5
sS'model'
p81
g7
sS'output_port2'
p82
g7
sS'x.graphics.gr_i'
p83
g11
s.