c__builtin__
set
p0
((lp1
S'x'
p2
aS'dt'
p3
aS'nn'
p4
atp5
Rp6
.(dp0
S'model.dstate'
p1
S'double'
p2
sS'arg1'
p3
S'object'
p4
sS'graphics'
p5
g4
sS'this.x.model'
p6
g4
sS'this.nn'
p7
g2
sS'hh[2-1]'
p8
g2
sS'typ'
p9
S'vector'
p10
sS'model.evtin'
p11
g2
sS'model.firing'
p12
g10
sS'this.x'
p13
g2
sS'model.sim'
p14
S'string'
p15
sS'model.evtout'
p16
S'matrix'
p17
sS'model.rpar'
p18
NsS'hh'
p19
NsS'graphics.exprs'
p20
NsS'model.ipar'
p21
NsS'this.x.graphics'
p22
g4
sS'model.blocktype'
p23
g15
sS'model.dep_ut'
p24
g10
sS'exprs'
p25
g17
sS'gr_i'
p26
g10
sS'y'
p27
g10
sS'model'
p28
g2
sS'this.dt'
p29
g2
s.