c__builtin__
set
p0
((lp1
S'x'
p2
aS'model'
p3
aS'dt'
p4
aS'nn'
p5
aS'graphics'
p6
atp7
Rp8
.(dp0
S'model.dstate'
p1
S'double'
p2
sS'graphics'
p3
S'object'
p4
sS'x.model'
p5
g4
sS'hh[2-1]'
p6
g2
sS'nn'
p7
g2
sS'x.graphics'
p8
g4
sS'model.evtin'
p9
g2
sS'model.firing'
p10
S'vector'
p11
sS'model.sim'
p12
S'string'
p13
sS'model.evtout'
p14
S'matrix'
p15
sS'model.rpar'
p16
g2
sS'hh'
p17
NsS'graphics.exprs'
p18
NsS'dt'
p19
g2
sS'model.ipar'
p20
g2
sS'typ'
p21
g11
sS'model.blocktype'
p22
g13
sS'model.dep_ut'
p23
S'vector_boolean'
p24
sS'exprs'
p25
g15
sS'gr_i'
p26
g11
sS'y'
p27
g11
sS'x'
p28
g11
sS'model'
p29
g4
s.