c__builtin__
set
p0
((lp1
S'x'
p2
aS'dt'
p3
aS'nn'
p4
atp5
Rp6
.(dp0
S'model.dstate'
p1
S'double'
p2
sS'arg1'
p3
S'object'
p4
sS'graphics'
p5
g4
sS'x.model'
p6
g4
sS'hh[2-1]'
p7
g2
sS'nn'
p8
g2
sS'x.graphics'
p9
g4
sS'model.evtin'
p10
g2
sS'model.firing'
p11
S'vector'
p12
sS'model.sim'
p13
S'string'
p14
sS'model.evtout'
p15
S'matrix'
p16
sS'model.rpar'
p17
g2
sS'hh'
p18
NsS'graphics.exprs'
p19
NsS'dt'
p20
g2
sS'model.ipar'
p21
g2
sS'typ'
p22
g12
sS'model.blocktype'
p23
g14
sS'model.dep_ut'
p24
g12
sS'exprs'
p25
g16
sS'gr_i'
p26
g12
sS'y'
p27
g12
sS'x'
p28
g2
sS'model'
p29
g4
s.