c__builtin__
set
p0
((lp1
S'x'
p2
aS'model'
p3
aS'gr_i'
p4
aS'exprs'
p5
aS'graphics'
p6
atp7
Rp8
.(dp0
S'model.sim'
p1
S'string'
p2
sS'model.blocktype'
p3
g2
sS'exprs'
p4
S'vector'
p5
sS'model.dep_ut'
p6
S'vector_boolean'
p7
sS'model.evtin'
p8
S'double'
p9
sS'y'
p10
g5
sS'x'
p11
NsS'model'
p12
S'object'
p13
sS'model.ipar'
p14
g5
sS'typ'
p15
g5
sS'model.opar'
p16
S'list'
p17
sS'model.firing'
p18
g9
s.