c__builtin__
set
p0
((lp1
S'x'
p2
atp3
Rp4
.(dp0
S'model.sim'
p1
S'string'
p2
sS'model.blocktype'
p3
g2
sS'exprs'
p4
S'vector'
p5
sS'model.dep_ut'
p6
g5
sS'model.evtin'
p7
S'double'
p8
sS'y'
p9
g5
sS'x'
p10
g8
sS'model'
p11
S'object'
p12
sS'model.ipar'
p13
g5
sS'typ'
p14
g5
sS'model.opar'
p15
g5
sS'model.firing'
p16
g8
s.