c__builtin__
set
p0
((lp1
S'x'
p2
atp3
Rp4
.(dp0
S'this.x'
p1
S'double'
p2
sS'model.sim'
p3
S'string'
p4
sS'model.blocktype'
p5
g4
sS'exprs'
p6
S'vector'
p7
sS'model.dep_ut'
p8
g7
sS'model.evtin'
p9
g2
sS'y'
p10
g7
sS'model'
p11
S'object'
p12
sS'model.ipar'
p13
g7
sS'typ'
p14
g7
sS'model.opar'
p15
g7
sS'model.firing'
p16
g2
s.