c__builtin__
set
p0
((lp1
S'x'
p2
aS'model'
p3
aS'gr_i'
p4
aS'exprs'
p5
aS'graphics'
p6
atp7
Rp8
.(dp0
S'model.sim'
p1
S'string'
p2
sS'model.blocktype'
p3
g2
sS'exprs'
p4
S'vector'
p5
sS'model.dep_ut'
p6
g5
sS'model.evtin'
p7
S'double'
p8
sS'y'
p9
g5
sS'x'
p10
NsS'model'
p11
S'object'
p12
sS'model.ipar'
p13
g5
sS'typ'
p14
g5
sS'model.opar'
p15
S'list'
p16
sS'model.firing'
p17
g8
s.