c__builtin__
set
p0
((lp1
S'Datatype'
p2
aS'x'
p3
aS'model'
p4
aS'bit'
p5
aS'graphics'
p6
atp7
Rp8
.(dp0
S'graphics'
p1
S'object'
p2
sS'it'
p3
NsS'x.model'
p4
g2
sS'model.out'
p5
S'double'
p6
sS'out'
p7
S'vector'
p8
sS'model.in2'
p9
g6
sS'model.intyp'
p10
g6
sS'x.graphics'
p11
g2
sS'model.sim'
p12
S'list'
p13
sS'model.out2'
p14
g6
sS'in1'
p15
g8
sS'model.outtyp'
p16
g6
sS'model.in'
p17
g6
sS'graphics.exprs'
p18
NsS'bit'
p19
g6
sS'typ'
p20
g8
sS'model.opar'
p21
g13
sS'ok'
p22
S'boolean'
p23
sS'model.blocktype'
p24
S'string'
p25
sS'model.dep_ut'
p26
S'vector_boolean'
p27
sS'n'
p28
g6
sS'exprs'
p29
S'matrix'
p30
sS'gr_i'
p31
g8
sS'y'
p32
g8
sS'x'
p33
g8
sS'model'
p34
g2
sS'ot'
p35
Ns.