c__builtin__
set
p0
((lp1
S'Datatype'
p2
aS'x'
p3
aS'model'
p4
aS'bit'
p5
atp6
Rp7
.(dp0
S'arg1'
p1
S'object'
p2
sS'graphics'
p3
g2
sS'it'
p4
NsS'x.model'
p5
g2
sS'model.intyp'
p6
S'double'
p7
sS'model.out'
p8
g7
sS'out'
p9
S'vector'
p10
sS'model.in2'
p11
g7
sS'model.in1'
p12
g7
sS'x.graphics'
p13
g2
sS'model.sim'
p14
g10
sS'model.out2'
p15
g7
sS'in1'
p16
g10
sS'model.outtyp'
p17
g7
sS'graphics.exprs'
p18
NsS'bit'
p19
g7
sS'typ'
p20
g10
sS'model.opar'
p21
g10
sS'[model,graphics,ok]'
p22
g7
sS'ok'
p23
S'boolean'
p24
sS'model.blocktype'
p25
S'string'
p26
sS'model.dep_ut'
p27
g10
sS'n'
p28
g7
sS'exprs'
p29
S'matrix'
p30
sS'gr_i'
p31
g10
sS'y'
p32
g10
sS'x'
p33
g7
sS'model'
p34
g2
sS'ot'
p35
Ns.