c__builtin__
set
p0
((lp1
S'Datatype'
p2
aS'x'
p3
aS'bit'
p4
atp5
Rp6
.(dp0
S'arg1'
p1
S'object'
p2
sS'graphics'
p3
g2
sS'it'
p4
NsS'model.intyp'
p5
S'double'
p6
sS'this.x.model'
p7
g2
sS'model.out'
p8
g6
sS'out'
p9
S'vector'
p10
sS'model.in2'
p11
g6
sS'model.in1'
p12
g6
sS'typ'
p13
g10
sS'this.x'
p14
g6
sS'model.sim'
p15
g10
sS'model.out2'
p16
g6
sS'this.bit'
p17
g6
sS'in1'
p18
g10
sS'model.outtyp'
p19
g6
sS'graphics.exprs'
p20
NsS'this.x.graphics'
p21
g2
sS'model.opar'
p22
g10
sS'[model,graphics,ok]'
p23
g6
sS'ok'
p24
S'boolean'
p25
sS'model.blocktype'
p26
S'string'
p27
sS'model.dep_ut'
p28
g10
sS'n'
p29
g6
sS'exprs'
p30
S'matrix'
p31
sS'gr_i'
p32
g10
sS'y'
p33
g10
sS'model'
p34
g2
sS'ot'
p35
Ns.