c__builtin__
set
p0
((lp1
S'Datatype'
p2
aS'exprs'
p3
aS'gr_i'
p4
aS'graphics'
p5
aS'x'
p6
aS'model'
p7
aS'bit'
p8
atp9
Rp10
.(dp0
S'arg1'
p1
S'object'
p2
sS'graphics'
p3
g2
sS'it'
p4
NsS'x.model'
p5
g2
sS'model.out'
p6
S'double'
p7
sS'out'
p8
S'vector'
p9
sS'model.in2'
p10
g7
sS'model.intyp'
p11
g7
sS'x.graphics'
p12
g2
sS'model.sim'
p13
S'list'
p14
sS'model.out2'
p15
g7
sS'in1'
p16
g9
sS'model.outtyp'
p17
g7
sS'model.in'
p18
g7
sS'graphics.exprs'
p19
NsS'bit'
p20
g7
sS'typ'
p21
g9
sS'model.opar'
p22
g14
sS'ok'
p23
S'boolean'
p24
sS'model.blocktype'
p25
S'string'
p26
sS'model.dep_ut'
p27
g9
sS'n'
p28
g7
sS'exprs'
p29
S'matrix'
p30
sS'gr_i'
p31
g9
sS'y'
p32
g9
sS'x'
p33
g7
sS'model'
p34
g2
sS'ot'
p35
Ns.