c__builtin__
set
p0
((lp1
S'Datatype'
p2
aS'x'
p3
aS'model'
p4
aS'bit'
p5
atp6
Rp7
.(dp0
S'arg1'
p1
S'object'
p2
sS'graphics'
p3
g2
sS'it'
p4
NsS'x.model'
p5
g2
sS'model.intyp'
p6
S'double'
p7
sS'model.out'
p8
g7
sS'out'
p9
S'vector'
p10
sS'model.in2'
p11
g7
sS'model.in1'
p12
g7
sS'x.graphics'
p13
g2
sS'model.sim'
p14
S'list'
p15
sS'[this.model,graphics,ok]'
p16
g7
sS'model.out2'
p17
g7
sS'in1'
p18
g10
sS'model.outtyp'
p19
g7
sS'graphics.exprs'
p20
NsS'bit'
p21
g7
sS'typ'
p22
g10
sS'model.opar'
p23
g15
sS'ok'
p24
S'boolean'
p25
sS'model.blocktype'
p26
S'string'
p27
sS'model.dep_ut'
p28
g10
sS'n'
p29
g7
sS'exprs'
p30
S'matrix'
p31
sS'gr_i'
p32
g10
sS'y'
p33
g10
sS'x'
p34
g7
sS'model'
p35
g2
sS'ot'
p36
Ns.