c__builtin__
set
p0
((lp1
S'it'
p2
aS'graphics'
p3
aS'np'
p4
aS'x'
p5
aS'model'
p6
aS'ot'
p7
atp8
Rp9
.(dp0
S'arg1'
p1
S'object'
p2
sS'graphics'
p3
g2
sS'it'
p4
S'double'
p5
sS'x.model'
p6
g2
sS'sgn'
p7
g5
sS'model.out'
p8
g5
sS'out'
p9
S'vector'
p10
sS'model.in2'
p11
g5
sS'model.intyp'
p12
g5
sS'x.graphics'
p13
g2
sS'model.sim'
p14
S'list'
p15
sS'model.out2'
p16
g5
sS'in1'
p17
g10
sS'model.rpar'
p18
g10
sS'model.outtyp'
p19
g5
sS'model.in'
p20
g5
sS'graphics.exprs'
p21
NsS'model.ipar'
p22
g5
sS'typ'
p23
g10
sS'ok'
p24
S'boolean'
p25
sS'model.blocktype'
p26
S'string'
p27
sS'model.dep_ut'
p28
S'vector_boolean'
p29
sS'exprs'
p30
S'matrix'
p31
sS'gr_i'
p32
g10
sS'y'
p33
g10
sS'x'
p34
NsS'model'
p35
g2
sS'ot'
p36
g5
s.