c__builtin__
set
p0
((lp1
S'np'
p2
aS'x'
p3
aS'ot'
p4
aS'it'
p5
atp6
Rp7
.c__builtin__
set
p0
((lp1
tp2
Rp3
.c__builtin__
set
p0
((lp1
tp2
Rp3
.c__builtin__
set
p0
((lp1
tp2
Rp3
.c__builtin__
set
p0
((lp1
tp2
Rp3
.c__builtin__
set
p0
((lp1
tp2
Rp3
.