c__builtin__
set
p0
((lp1
S'np'
p2
aS'x'
p3
aS'model'
p4
aS'ot'
p5
aS'it'
p6
atp7
Rp8
.(dp0
S'arg1'
p1
S'object'
p2
sS'graphics'
p3
g2
sS'it'
p4
S'double'
p5
sS'x.model'
p6
g2
sS'model.intyp'
p7
g5
sS'sgn'
p8
g5
sS'model.out'
p9
g5
sS'out'
p10
S'vector'
p11
sS'model.in2'
p12
g5
sS'model.in1'
p13
g5
sS'x.graphics'
p14
g2
sS'model.sim'
p15
S'list'
p16
sS'model.out2'
p17
g5
sS'in1'
p18
g11
sS'model.rpar'
p19
g11
sS'model.outtyp'
p20
g5
sS'graphics.exprs'
p21
NsS'model.ipar'
p22
g5
sS'typ'
p23
g11
sS'[model,graphics,ok]'
p24
g5
sS'ok'
p25
S'boolean'
p26
sS'model.blocktype'
p27
S'string'
p28
sS'model.dep_ut'
p29
g11
sS'exprs'
p30
S'matrix'
p31
sS'gr_i'
p32
g11
sS'y'
p33
g11
sS'x'
p34
g5
sS'model'
p35
g2
sS'ot'
p36
g5
s.