c__builtin__
set
p0
((lp1
S'np'
p2
aS'x'
p3
aS'ot'
p4
aS'it'
p5
atp6
Rp7
.(dp0
S'this.ot'
p1
S'double'
p2
sS'arg1'
p3
S'object'
p4
sS'this.x.model'
p5
g4
sS'graphics'
p6
g4
sS'model.intyp'
p7
g2
sS'sgn'
p8
g2
sS'model.out'
p9
g2
sS'out'
p10
S'vector'
p11
sS'model.in2'
p12
g2
sS'model.in1'
p13
g2
sS'typ'
p14
g11
sS'this.it'
p15
g2
sS'this.x'
p16
g2
sS'model.sim'
p17
g11
sS'model.out2'
p18
g2
sS'in1'
p19
g11
sS'model.rpar'
p20
g11
sS'model.outtyp'
p21
g2
sS'graphics.exprs'
p22
NsS'model.ipar'
p23
g2
sS'this.x.graphics'
p24
g4
sS'[model,graphics,ok]'
p25
g2
sS'ok'
p26
S'boolean'
p27
sS'model.blocktype'
p28
S'string'
p29
sS'model.dep_ut'
p30
g11
sS'exprs'
p31
S'matrix'
p32
sS'gr_i'
p33
g11
sS'y'
p34
g11
sS'model'
p35
g2
s.