c__builtin__
set
p0
((lp1
S'it'
p2
aS'graphics'
p3
aS'np'
p4
aS'x'
p5
aS'model'
p6
aS'ot'
p7
atp8
Rp9
.(dp0
S'graphics'
p1
S'object'
p2
sS'it'
p3
S'double'
p4
sS'x.model'
p5
g2
sS'sgn'
p6
g4
sS'model.out'
p7
g4
sS'out'
p8
S'vector'
p9
sS'model.in2'
p10
g4
sS'model.intyp'
p11
g4
sS'x.graphics'
p12
g2
sS'model.sim'
p13
S'list'
p14
sS'model.out2'
p15
g4
sS'in1'
p16
g9
sS'model.rpar'
p17
g9
sS'model.outtyp'
p18
g4
sS'model.in'
p19
g4
sS'graphics.exprs'
p20
NsS'model.ipar'
p21
g4
sS'typ'
p22
g9
sS'ok'
p23
S'boolean'
p24
sS'model.blocktype'
p25
S'string'
p26
sS'model.dep_ut'
p27
S'vector_boolean'
p28
sS'exprs'
p29
S'matrix'
p30
sS'gr_i'
p31
g9
sS'y'
p32
g9
sS'x'
p33
g9
sS'model'
p34
g2
sS'ot'
p35
g4
s.