c__builtin__
set
p0
((lp1
S'np'
p2
aS'x'
p3
aS'model'
p4
aS'ot'
p5
aS'it'
p6
atp7
Rp8
.(dp0
S'arg1'
p1
S'object'
p2
sS'graphics'
p3
g2
sS'it'
p4
S'double'
p5
sS'x.model'
p6
g2
sS'model.intyp'
p7
g5
sS'sgn'
p8
g5
sS'model.out'
p9
g5
sS'out'
p10
S'vector'
p11
sS'model.in2'
p12
g5
sS'model.in1'
p13
g5
sS'x.graphics'
p14
g2
sS'model.sim'
p15
S'list'
p16
sS'model.out2'
p17
g5
sS'in1'
p18
g11
sS'model.rpar'
p19
g11
sS'model.outtyp'
p20
g5
sS'graphics.exprs'
p21
NsS'model.ipar'
p22
g5
sS'typ'
p23
g11
sS'ok'
p24
S'boolean'
p25
sS'model.blocktype'
p26
S'string'
p27
sS'model.dep_ut'
p28
g11
sS'exprs'
p29
S'matrix'
p30
sS'gr_i'
p31
g11
sS'y'
p32
g11
sS'x'
p33
g5
sS'model'
p34
g2
sS'ot'
p35
g5
s.