c__builtin__
set
p0
((lp1
S'x'
p2
aS'model'
p3
aS'gr_i'
p4
aS'exprs'
p5
aS'graphics'
p6
atp7
Rp8
.(dp0
S'scs_m_1.objs[9-1]'
p1
S'double'
p2
sS'scs_m.objs[39-1]'
p3
g2
sS'scs_m.objs[31-1]'
p4
g2
sS'scs_m_1.objs[6-1]'
p5
g2
sS'scs_m_1.objs[3-1]'
p6
g2
sS'scs_m.objs[41-1]'
p7
g2
sS'scs_m.objs[37-1]'
p8
g2
sS'scs_m.objs[40-1]'
p9
g2
sS'scs_m.objs[28-1]'
p10
g2
sS'scs_m.objs[36-1]'
p11
g2
sS'scs_m.objs[38-1]'
p12
g2
sS'model.out'
p13
S'matrix'
p14
sS'scs_m.objs[20-1]'
p15
g2
sS'scs_m.objs[2-1]'
p16
g2
sS'scs_m.objs[5-1]'
p17
g2
sS'scs_m_1.objs[11-1]'
p18
g2
sS'scs_m.objs[10-1]'
p19
g2
sS'scs_m_1.objs[12-1]'
p20
g2
sS'model.intyp'
p21
S'vector'
p22
sS'scs_m.objs[19-1]'
p23
g2
sS'scs_m.objs[23-1]'
p24
g2
sS'scs_m.objs[18-1]'
p25
g2
sS'scs_m.objs[25-1]'
p26
g2
sS'scs_m'
p27
g2
sS'model.firing'
p28
S'boolean'
p29
sS'gr_i'
p30
g22
sS'scs_m_1'
p31
g2
sS'scs_m.objs[22-1]'
p32
g2
sS'scs_m.objs[34-1]'
p33
g2
sS'scs_m.objs[26-1]'
p34
g2
sS'scs_m_1.objs[2-1]'
p35
g2
sS'scs_m.objs[33-1]'
p36
g2
sS'scs_m.objs[13-1]'
p37
g2
sS'scs_m_1.objs[8-1]'
p38
g2
sS'scs_m_1.objs[10-1]'
p39
g2
sS'model.in2'
p40
g14
sS'scs_m.objs[6-1]'
p41
g2
sS'scs_m.objs[9-1]'
p42
g2
sS'model.out2'
p43
g14
sS'model.rpar'
p44
g2
sS'scs_m.objs[3-1]'
p45
g2
sS'scs_m_1.objs[4-1]'
p46
g2
sS'scs_m.objs[16-1]'
p47
g2
sS'scs_m.objs[11-1]'
p48
g2
sS'scs_m.objs[14-1]'
p49
g2
sS'scs_m.objs[17-1]'
p50
g2
sS'model.in'
p51
g14
sS'scs_m_1.objs[5-1]'
p52
g2
sS'model.outtyp'
p53
g22
sS'scs_m_1.objs[7-1]'
p54
g2
sS'scs_m.objs[4-1]'
p55
g2
sS'scs_m.objs[7-1]'
p56
g2
sS'typ'
p57
g22
sS'model'
p58
S'object'
p59
sS'scs_m.objs[44-1]'
p60
g2
sS'scs_m.objs[29-1]'
p61
g2
sS'scs_m.objs[42-1]'
p62
g2
sS'scs_m.objs[30-1]'
p63
g2
sS'scs_m.objs[8-1]'
p64
g2
sS'scs_m.objs[15-1]'
p65
g2
sS'scs_m.objs[21-1]'
p66
g2
sS'scs_m_1.objs[1-1]'
p67
g2
sS'model.dep_ut'
p68
g22
sS'scs_m.objs[43-1]'
p69
g2
sS'scs_m.objs[1-1]'
p70
g2
sS'model.sim'
p71
S'string'
p72
sS'scs_m.objs[32-1]'
p73
g2
sS'scs_m.objs[12-1]'
p74
g2
sS'scs_m.objs[24-1]'
p75
g2
sS'model.blocktype'
p76
g72
sS'y'
p77
g22
sS'x'
p78
g2
sS'scs_m.objs[27-1]'
p79
g2
sS'scs_m.objs[35-1]'
p80
g2
s.