c__builtin__
set
p0
((lp1
S'x'
p2
aS'model'
p3
aS'graphics'
p4
atp5
Rp6
.(dp0
S'model.sim'
p1
S'string'
p2
sS'model.out'
p3
S'matrix'
p4
sS'scs_m.objs[2-1]'
p5
S'double'
p6
sS'scs_m.objs[5-1]'
p7
g6
sS'scs_m.objs[10-1]'
p8
g6
sS'model.in2'
p9
g4
sS'model.intyp'
p10
S'vector'
p11
sS'scs_m.objs[19-1]'
p12
g6
sS'scs_m.objs[18-1]'
p13
g6
sS'scs_m'
p14
g6
sS'scs_m.objs[12-1]'
p15
g6
sS'scs_m.objs[13-1]'
p16
g6
sS'scs_m.objs[6-1]'
p17
g6
sS'scs_m.objs[9-1]'
p18
g6
sS'model.out2'
p19
g4
sS'model.rpar'
p20
g6
sS'scs_m.objs[3-1]'
p21
g6
sS'model.outtyp'
p22
g11
sS'scs_m.objs[16-1]'
p23
g6
sS'scs_m.objs[11-1]'
p24
g6
sS'scs_m.objs[14-1]'
p25
g6
sS'scs_m.objs[17-1]'
p26
g6
sS'model.in'
p27
g4
sS'scs_m.objs[4-1]'
p28
g6
sS'scs_m.objs[7-1]'
p29
g6
sS'typ'
p30
g11
sS'model.blocktype'
p31
g2
sS'scs_m.objs[8-1]'
p32
g6
sS'scs_m.objs[15-1]'
p33
g6
sS'model.dep_ut'
p34
S'vector_boolean'
p35
sS'scs_m.objs[1-1]'
p36
g6
sS'gr_i'
p37
g11
sS'model.firing'
p38
S'boolean'
p39
sS'y'
p40
g11
sS'x'
p41
g11
sS'model'
p42
S'object'
p43
s.