c__builtin__
set
p0
((lp1
S'x'
p2
atp3
Rp4
.(dp0
S'model.sim'
p1
S'string'
p2
sS'model.out'
p3
S'matrix'
p4
sS'scs_m.objs[2-1]'
p5
S'double'
p6
sS'scs_m.objs[5-1]'
p7
g6
sS'scs_m.objs[10-1]'
p8
g6
sS'model.in2'
p9
g4
sS'model.in1'
p10
g4
sS'scs_m.objs[19-1]'
p11
g6
sS'scs_m.objs[18-1]'
p12
g6
sS'scs_m'
p13
g6
sS'scs_m.objs[12-1]'
p14
g6
sS'this.x'
p15
g6
sS'scs_m.objs[13-1]'
p16
g6
sS'scs_m.objs[6-1]'
p17
g6
sS'scs_m.objs[9-1]'
p18
g6
sS'model.out2'
p19
g4
sS'model.intyp'
p20
S'vector'
p21
sS'model.rpar'
p22
g6
sS'scs_m.objs[3-1]'
p23
g6
sS'model.outtyp'
p24
g21
sS'scs_m.objs[16-1]'
p25
g6
sS'scs_m.objs[11-1]'
p26
g6
sS'scs_m.objs[14-1]'
p27
g6
sS'scs_m.objs[17-1]'
p28
g6
sS'scs_m.objs[4-1]'
p29
g6
sS'scs_m.objs[7-1]'
p30
g6
sS'typ'
p31
g21
sS'model.blocktype'
p32
g2
sS'scs_m.objs[8-1]'
p33
g6
sS'scs_m.objs[15-1]'
p34
g6
sS'model.dep_ut'
p35
g21
sS'scs_m.objs[1-1]'
p36
g6
sS'gr_i'
p37
g21
sS'model.firing'
p38
S'boolean'
p39
sS'y'
p40
g21
sS'model'
p41
g6
s.