c__builtin__
set
p0
((lp1
S'x'
p2
aS'model'
p3
aS'gr_i'
p4
aS'exprs'
p5
aS'graphics'
p6
atp7
Rp8
.(dp0
S'model.sim'
p1
S'string'
p2
sS'model.out'
p3
S'matrix'
p4
sS'scs_m.objs[2-1]'
p5
S'double'
p6
sS'scs_m.objs[5-1]'
p7
g6
sS'scs_m.objs[10-1]'
p8
g6
sS'model.in2'
p9
g4
sS'model.in1'
p10
g4
sS'scs_m.objs[19-1]'
p11
g6
sS'scs_m.objs[18-1]'
p12
g6
sS'scs_m'
p13
g6
sS'scs_m.objs[12-1]'
p14
g6
sS'scs_m.objs[13-1]'
p15
g6
sS'scs_m.objs[6-1]'
p16
g6
sS'scs_m.objs[9-1]'
p17
g6
sS'model.out2'
p18
g4
sS'model.intyp'
p19
S'vector'
p20
sS'model.rpar'
p21
g6
sS'scs_m.objs[3-1]'
p22
g6
sS'model.outtyp'
p23
g20
sS'scs_m.objs[16-1]'
p24
g6
sS'scs_m.objs[11-1]'
p25
g6
sS'scs_m.objs[14-1]'
p26
g6
sS'scs_m.objs[17-1]'
p27
g6
sS'scs_m.objs[4-1]'
p28
g6
sS'scs_m.objs[7-1]'
p29
g6
sS'typ'
p30
g20
sS'model.blocktype'
p31
g2
sS'scs_m.objs[8-1]'
p32
g6
sS'scs_m.objs[15-1]'
p33
g6
sS'model.dep_ut'
p34
g20
sS'scs_m.objs[1-1]'
p35
g6
sS'gr_i'
p36
g20
sS'model.firing'
p37
S'boolean'
p38
sS'y'
p39
g20
sS'x'
p40
g6
sS'model'
p41
S'object'
p42
s.