c__builtin__
set
p0
((lp1
S'scal'
p2
aS'Datatype'
p3
aS'rule'
p4
aS'exprs'
p5
aS'gr_i'
p6
aS'graphics'
p7
aS'x'
p8
aS'model'
p9
aS'bit'
p10
atp11
Rp12
.(dp0
S'numb'
p1
S'vector'
p2
sS'arg1'
p3
S'object'
p4
sS'graphics'
p5
g4
sS'it'
p6
NsS'x.model'
p7
g4
sS'model.dep_ut'
p8
S'vector_boolean'
p9
sS'model.out'
p10
S'double'
p11
sS'out'
p12
g2
sS'model.in2'
p13
g11
sS'model.intyp'
p14
g11
sS'x.graphics'
p15
g4
sS'model.sim'
p16
S'list'
p17
sS'model.out2'
p18
g11
sS'in1'
p19
g2
sS'model.outtyp'
p20
g11
sS'model.in'
p21
g11
sS'graphics.exprs'
p22
NsS'bit'
p23
g11
sS'model.ipar'
p24
g2
sS'typ'
p25
g2
sS'bitstr'
p26
g11
sS'ok'
p27
S'boolean'
p28
sS'model.blocktype'
p29
S'string'
p30
sS'rule'
p31
g11
sS'exprs'
p32
S'matrix'
p33
sS'gr_i'
p34
g2
sS'y'
p35
g2
sS'x'
p36
NsS'model'
p37
g4
sS'ot'
p38
Ns.