c__builtin__
set
p0
((lp1
S'scal'
p2
aS'Datatype'
p3
aS'rule'
p4
aS'exprs'
p5
aS'gr_i'
p6
aS'graphics'
p7
aS'x'
p8
aS'model'
p9
aS'bit'
p10
atp11
Rp12
.(dp0
S'numb'
p1
S'vector'
p2
sS'arg1'
p3
S'object'
p4
sS'graphics'
p5
g4
sS'it'
p6
NsS'x.model'
p7
g4
sS'model.dep_ut'
p8
g2
sS'model.out'
p9
S'double'
p10
sS'out'
p11
g2
sS'model.in2'
p12
g10
sS'model.intyp'
p13
g10
sS'x.graphics'
p14
g4
sS'model.sim'
p15
S'list'
p16
sS'model.out2'
p17
g10
sS'in1'
p18
g2
sS'model.outtyp'
p19
g10
sS'model.in'
p20
g10
sS'graphics.exprs'
p21
NsS'bit'
p22
g10
sS'model.ipar'
p23
g2
sS'typ'
p24
g2
sS'bitstr'
p25
g10
sS'ok'
p26
S'boolean'
p27
sS'model.blocktype'
p28
S'string'
p29
sS'rule'
p30
g10
sS'exprs'
p31
S'matrix'
p32
sS'gr_i'
p33
g2
sS'y'
p34
g2
sS'x'
p35
NsS'model'
p36
g4
sS'ot'
p37
Ns.