c__builtin__
set
p0
((lp1
S'Datatype'
p2
aS'x'
p3
aS'bit'
p4
aS'scal'
p5
aS'rule'
p6
atp7
Rp8
.c__builtin__
set
p0
((lp1
tp2
Rp3
.c__builtin__
set
p0
((lp1
tp2
Rp3
.c__builtin__
set
p0
((lp1
tp2
Rp3
.c__builtin__
set
p0
((lp1
tp2
Rp3
.c__builtin__
set
p0
((lp1
tp2
Rp3
.