c__builtin__
set
p0
((lp1
S'Datatype'
p2
aS'x'
p3
aS'bit'
p4
aS'scal'
p5
aS'rule'
p6
atp7
Rp8
.(dp0
S'arg1'
p1
S'object'
p2
sS'graphics'
p3
g2
sS'it'
p4
NsS'model.intyp'
p5
S'double'
p6
sS'this.x.model'
p7
g2
sS'model.out'
p8
g6
sS'out'
p9
S'vector'
p10
sS'model.in2'
p11
g6
sS'model.in1'
p12
g6
sS'exprs'
p13
S'matrix'
p14
sS'this.x.graphics'
p15
g2
sS'this.x'
p16
g6
sS'model.sim'
p17
g10
sS'model.out2'
p18
g6
sS'this.bit'
p19
g6
sS'in1'
p20
g10
sS'model.outtyp'
p21
g6
sS'numb'
p22
g10
sS'graphics.exprs'
p23
NsS'model.ipar'
p24
g10
sS'typ'
p25
g10
sS'bitstr'
p26
g6
sS'[model,graphics,ok]'
p27
g6
sS'ok'
p28
S'boolean'
p29
sS'model.blocktype'
p30
S'string'
p31
sS'model.dep_ut'
p32
g10
sS'this.rule'
p33
g6
sS'gr_i'
p34
g10
sS'y'
p35
g10
sS'model'
p36
g2
sS'ot'
p37
Ns.