c__builtin__
set
p0
((lp1
S'scal'
p2
aS'Datatype'
p3
aS'rule'
p4
aS'x'
p5
aS'model'
p6
aS'bit'
p7
atp8
Rp9
.(dp0
S'arg1'
p1
S'object'
p2
sS'graphics'
p3
g2
sS'it'
p4
NsS'x.model'
p5
g2
sS'model.intyp'
p6
S'double'
p7
sS'model.dep_ut'
p8
S'vector'
p9
sS'model.out'
p10
g7
sS'out'
p11
g9
sS'model.in2'
p12
g7
sS'model.in1'
p13
g7
sS'x.graphics'
p14
g2
sS'model.sim'
p15
S'list'
p16
sS'model.out2'
p17
g7
sS'in1'
p18
g9
sS'model.outtyp'
p19
g7
sS'numb'
p20
g9
sS'graphics.exprs'
p21
NsS'bit'
p22
g7
sS'model.ipar'
p23
g9
sS'typ'
p24
g9
sS'bitstr'
p25
g7
sS'ok'
p26
S'boolean'
p27
sS'model.blocktype'
p28
S'string'
p29
sS'rule'
p30
g7
sS'exprs'
p31
S'matrix'
p32
sS'gr_i'
p33
g9
sS'y'
p34
g9
sS'x'
p35
g7
sS'model'
p36
g2
sS'ot'
p37
Ns.