c__builtin__
set
p0
((lp1
S'Datatype'
p2
aS'x'
p3
aS'model'
p4
aS'np'
p5
atp6
Rp7
.(dp0
S'arg1'
p1
S'object'
p2
sS'graphics'
p3
g2
sS'it'
p4
S'string'
p5
sS'x.model'
p6
g2
sS'model.intyp'
p7
S'vector'
p8
sS'sgn'
p9
S'double'
p10
sS'model.out'
p11
g10
sS'out'
p12
g8
sS'model.in2'
p13
S'matrix'
p14
sS'model.in1'
p15
g14
sS'x.graphics'
p16
g2
sS'model.sim'
p17
g8
sS'model.out2'
p18
g10
sS'in1'
p19
g8
sS'model.rpar'
p20
g8
sS'model.outtyp'
p21
g10
sS'graphics.exprs'
p22
NsS'model.ipar'
p23
g10
sS'typ'
p24
g8
sS'[model,graphics,ok]'
p25
g10
sS'ok'
p26
S'boolean'
p27
sS'model.blocktype'
p28
g5
sS'model.dep_ut'
p29
g8
sS'exprs'
p30
g14
sS'gr_i'
p31
g8
sS'y'
p32
g8
sS'x'
p33
g10
sS'model'
p34
g2
sS'ot'
p35
Ns.