c__builtin__
set
p0
((lp1
S'Datatype'
p2
aS'exprs'
p3
aS'gr_i'
p4
aS'graphics'
p5
aS'np'
p6
aS'x'
p7
aS'model'
p8
atp9
Rp10
.(dp0
S'arg1'
p1
S'object'
p2
sS'graphics'
p3
g2
sS'it'
p4
S'string'
p5
sS'x.model'
p6
g2
sS'model.intyp'
p7
S'vector'
p8
sS'sgn'
p9
S'double'
p10
sS'model.out'
p11
g10
sS'out'
p12
g8
sS'model.in2'
p13
S'matrix'
p14
sS'model.in1'
p15
g14
sS'x.graphics'
p16
g2
sS'model.sim'
p17
S'list'
p18
sS'model.out2'
p19
g10
sS'in1'
p20
g8
sS'model.rpar'
p21
g8
sS'model.outtyp'
p22
g10
sS'graphics.exprs'
p23
NsS'model.ipar'
p24
g10
sS'typ'
p25
g8
sS'ok'
p26
S'boolean'
p27
sS'model.blocktype'
p28
g5
sS'model.dep_ut'
p29
g8
sS'exprs'
p30
g14
sS'gr_i'
p31
g8
sS'y'
p32
g8
sS'x'
p33
g10
sS'model'
p34
g2
sS'ot'
p35
Ns.