c__builtin__
set
p0
((lp1
S'Datatype'
p2
aS'x'
p3
aS'model'
p4
aS'np'
p5
atp6
Rp7
.(dp0
S'arg1'
p1
S'object'
p2
sS'graphics'
p3
g2
sS'it'
p4
S'string'
p5
sS'x.model'
p6
g2
sS'model.intyp'
p7
S'vector'
p8
sS'sgn'
p9
S'double'
p10
sS'model.out'
p11
g10
sS'out'
p12
g8
sS'model.in2'
p13
S'matrix'
p14
sS'model.in1'
p15
g14
sS'x.graphics'
p16
g2
sS'model.sim'
p17
S'list'
p18
sS'[this.model,graphics,ok]'
p19
g10
sS'model.out2'
p20
g10
sS'in1'
p21
g8
sS'model.rpar'
p22
g8
sS'model.outtyp'
p23
g10
sS'graphics.exprs'
p24
NsS'model.ipar'
p25
g10
sS'typ'
p26
g8
sS'ok'
p27
S'boolean'
p28
sS'model.blocktype'
p29
g5
sS'model.dep_ut'
p30
g8
sS'exprs'
p31
g14
sS'gr_i'
p32
g8
sS'y'
p33
g8
sS'x'
p34
g10
sS'model'
p35
g2
sS'ot'
p36
Ns.