c__builtin__
set
p0
((lp1
S'Datatype'
p2
aS'x'
p3
aS'model'
p4
aS'np'
p5
aS'graphics'
p6
atp7
Rp8
.(dp0
S'graphics'
p1
S'object'
p2
sS'it'
p3
S'string'
p4
sS'x.model'
p5
g2
sS'sgn'
p6
S'double'
p7
sS'model.out'
p8
g7
sS'out'
p9
S'vector'
p10
sS'model.in2'
p11
S'matrix'
p12
sS'model.intyp'
p13
g10
sS'x.graphics'
p14
g2
sS'model.sim'
p15
S'list'
p16
sS'model.out2'
p17
g7
sS'in1'
p18
g10
sS'model.rpar'
p19
g10
sS'model.outtyp'
p20
g7
sS'model.in'
p21
g12
sS'graphics.exprs'
p22
NsS'model.ipar'
p23
g7
sS'typ'
p24
g10
sS'ok'
p25
S'boolean'
p26
sS'model.blocktype'
p27
g4
sS'model.dep_ut'
p28
S'vector_boolean'
p29
sS'exprs'
p30
g12
sS'gr_i'
p31
g10
sS'y'
p32
g10
sS'x'
p33
g10
sS'model'
p34
g2
sS'ot'
p35
Ns.