c__builtin__
set
p0
((lp1
S'Datatype'
p2
aS'x'
p3
aS'model'
p4
aS'np'
p5
aS'graphics'
p6
atp7
Rp8
.(dp0
S'arg1'
p1
S'object'
p2
sS'graphics'
p3
g2
sS'it'
p4
S'string'
p5
sS'x.model'
p6
g2
sS'sgn'
p7
S'double'
p8
sS'model.out'
p9
g8
sS'out'
p10
S'vector'
p11
sS'model.in2'
p12
S'matrix'
p13
sS'model.intyp'
p14
g11
sS'x.graphics'
p15
g2
sS'model.sim'
p16
S'list'
p17
sS'model.out2'
p18
g8
sS'in1'
p19
g11
sS'model.rpar'
p20
g11
sS'model.outtyp'
p21
g8
sS'model.in'
p22
g13
sS'graphics.exprs'
p23
NsS'model.ipar'
p24
g8
sS'typ'
p25
g11
sS'ok'
p26
S'boolean'
p27
sS'model.blocktype'
p28
g5
sS'model.dep_ut'
p29
S'vector_boolean'
p30
sS'exprs'
p31
g13
sS'gr_i'
p32
g11
sS'y'
p33
g11
sS'x'
p34
NsS'model'
p35
g2
sS'ot'
p36
Ns.