c__builtin__
set
p0
((lp1
S'x'
p2
aS'model'
p3
aS'init'
p4
aS'graphics'
p5
atp6
Rp7
.(dp0
S'xx.model'
p1
S'object'
p2
sS'model.sim'
p3
S'string'
p4
sS'scs_m_1.objs[6-1]'
p5
S'double'
p6
sS'scs_m_1.objs[3-1]'
p7
g6
sS'xx.graphics'
p8
g2
sS'model.out'
p9
S'matrix'
p10
sS'xx'
p11
g2
sS'model.dep_ut'
p12
S'vector_boolean'
p13
sS'scs_m_1.objs[7-1]'
p14
g6
sS'xx.graphics.exprs[1-1]'
p15
NsS'scs_m.objs[20-1]'
p16
g6
sS'scs_m.objs[2-1]'
p17
g6
sS'scs_m.objs[5-1]'
p18
g6
sS'scs_m.objs[10-1]'
p19
g6
sS'scs_m'
p20
g6
sS'model.intyp'
p21
S'vector'
p22
sS'scs_m.objs[19-1]'
p23
g6
sS'exprs'
p24
g6
sS'scs_m.objs[18-1]'
p25
g6
sS'newpar[size(newpar)+1-1]'
p26
g6
sS'init'
p27
g6
sS'scs_m_1'
p28
g6
sS'scs_m.objs[22-1]'
p29
g6
sS'scs_m_1.objs[2-1]'
p30
g6
sS'init_old'
p31
g6
sS'scs_m.objs[13-1]'
p32
g6
sS'model.firing'
p33
S'boolean'
p34
sS'newpar'
p35
S'list'
p36
sS'model.rpar.objs[path-1]'
p37
g2
sS'model.in2'
p38
g10
sS'scs_m.objs[6-1]'
p39
g6
sS'scs_m.objs[9-1]'
p40
g6
sS'model.odstate[1-1]'
p41
g6
sS'model.out2'
p42
g10
sS'model.rpar'
p43
g6
sS'scs_m.objs[3-1]'
p44
g6
sS'scs_m_1.objs[4-1]'
p45
g6
sS'scs_m.objs[16-1]'
p46
g6
sS'scs_m.objs[11-1]'
p47
g6
sS'scs_m.objs[14-1]'
p48
g6
sS'scs_m.objs[17-1]'
p49
g6
sS'model.in'
p50
g10
sS'scs_m_1.objs[5-1]'
p51
g6
sS'path'
p52
NsS'scs_m.objs[4-1]'
p53
g6
sS'scs_m.objs[7-1]'
p54
g6
sS'typ'
p55
g36
sS'model.outtyp'
p56
g22
sS'needcompile'
p57
g6
sS'model.blocktype'
p58
g4
sS'scs_m.objs[8-1]'
p59
g6
sS'scs_m.objs[15-1]'
p60
g6
sS'scs_m.objs[21-1]'
p61
g6
sS'scs_m_1.objs[1-1]'
p62
g6
sS'o'
p63
g2
sS'scs_m.objs[1-1]'
p64
g6
sS'gr_i'
p65
g22
sS'scs_m.objs[12-1]'
p66
g6
sS'y'
p67
g6
sS'x'
p68
g22
sS'model'
p69
g2
s.