c__builtin__
set
p0
((lp1
S'exprs0'
p2
aS'exprs'
p3
aS'init'
p4
aS'gr_i'
p5
aS'graphics'
p6
aS'x'
p7
aS'model'
p8
atp9
Rp10
.(dp0
S'xx.model'
p1
S'object'
p2
sS'model.sim'
p3
S'string'
p4
sS'arg1'
p5
g2
sS'scs_m_1.objs[6-1]'
p6
S'double'
p7
sS'scs_m_1.objs[3-1]'
p8
g7
sS'xx.graphics'
p9
g2
sS'model.out'
p10
S'matrix'
p11
sS'xx'
p12
g2
sS'o'
p13
g2
sS'scs_m_1.objs[7-1]'
p14
g7
sS'xx.graphics.exprs[1-1]'
p15
NsS'scs_m.objs[20-1]'
p16
g7
sS'scs_m.objs[2-1]'
p17
g7
sS'scs_m.objs[5-1]'
p18
g7
sS'scs_m.objs[10-1]'
p19
g7
sS'scs_m'
p20
g7
sS'model.intyp'
p21
S'vector'
p22
sS'scs_m.objs[19-1]'
p23
g7
sS'scs_m.objs[1-1]'
p24
g7
sS'scs_m.objs[18-1]'
p25
g7
sS'model.dep_ut'
p26
S'vector_boolean'
p27
sS'newpar[size(newpar)+1-1]'
p28
g7
sS'init'
p29
g7
sS'scs_m_1'
p30
g7
sS'scs_m.objs[22-1]'
p31
g7
sS'scs_m_1.objs[2-1]'
p32
g7
sS'init_old'
p33
g7
sS'scs_m.objs[13-1]'
p34
g7
sS'model.firing'
p35
S'boolean'
p36
sS'newpar'
p37
S'list'
p38
sS'model.in2'
p39
g11
sS'scs_m.objs[6-1]'
p40
g7
sS'scs_m.objs[9-1]'
p41
g7
sS'model.odstate[1-1]'
p42
g7
sS'model.out2'
p43
g11
sS'model.rpar'
p44
g7
sS'scs_m.objs[3-1]'
p45
g7
sS'scs_m_1.objs[4-1]'
p46
g7
sS'scs_m.objs[16-1]'
p47
g7
sS'scs_m.objs[11-1]'
p48
g7
sS'scs_m.objs[14-1]'
p49
g7
sS'scs_m.objs[17-1]'
p50
g7
sS'model.in'
p51
g11
sS'scs_m_1.objs[5-1]'
p52
g7
sS'path'
p53
NsS'scs_m.objs[4-1]'
p54
g7
sS'scs_m.objs[7-1]'
p55
g7
sS'typ'
p56
g38
sS'model.outtyp'
p57
g22
sS'needcompile'
p58
g7
sS'arg1.model'
p59
g2
sS'model.blocktype'
p60
g4
sS'scs_m.objs[8-1]'
p61
g7
sS'scs_m.objs[15-1]'
p62
g7
sS'scs_m.objs[21-1]'
p63
g7
sS'scs_m_1.objs[1-1]'
p64
g7
sS'arg1.model.rpar.objs[path-1]'
p65
g2
sS'exprs'
p66
g7
sS'gr_i'
p67
g22
sS'scs_m.objs[12-1]'
p68
g7
sS'y'
p69
g7
sS'x'
p70
g2
sS'model'
p71
g2
sS'arg1.model.rpar'
p72
g2
s.