c__builtin__
set
p0
((lp1
S'x'
p2
aS'model'
p3
aS'init'
p4
aS'exprs0'
p5
atp6
Rp7
.(dp0
S'model.odstate[1]'
p1
S'double'
p2
sS'xx.model'
p3
S'object'
p4
sS'model.sim'
p5
S'string'
p6
sS'arg1'
p7
g4
sS'scs_m_1.objs[6-1]'
p8
g2
sS'scs_m_1.objs[3-1]'
p9
g2
sS'xx.graphics'
p10
g4
sS'model.out'
p11
S'matrix'
p12
sS'xx'
p13
g4
sS'o'
p14
g4
sS'scs_m_1.objs[7-1]'
p15
g2
sS'xx.graphics.exprs[1-1]'
p16
NsS'scs_m.objs[20-1]'
p17
g2
sS'scs_m.objs[2-1]'
p18
g2
sS'scs_m.objs[5-1]'
p19
g2
sS'scs_m.objs[10-1]'
p20
g2
sS'scs_m'
p21
g2
sS'model.in1'
p22
g12
sS'scs_m.objs[19-1]'
p23
g2
sS'scs_m.objs[1-1]'
p24
g2
sS'scs_m.objs[18-1]'
p25
g2
sS'model.dep_ut'
p26
S'vector'
p27
sS'newpar[size(newpar)+1-1]'
p28
g2
sS'init'
p29
g2
sS'scs_m_1'
p30
g2
sS'scs_m.objs[22-1]'
p31
g2
sS'scs_m_1.objs[2-1]'
p32
g2
sS'init_old'
p33
g2
sS'scs_m.objs[13-1]'
p34
g2
sS'model.firing'
p35
S'boolean'
p36
sS'newpar'
p37
S'list'
p38
sS'model.in2'
p39
g12
sS'scs_m.objs[6-1]'
p40
g2
sS'scs_m.objs[9-1]'
p41
g2
sS'model.out2'
p42
g12
sS'model.intyp'
p43
g27
sS'model.rpar'
p44
g2
sS'scs_m.objs[3-1]'
p45
g2
sS'scs_m_1.objs[4-1]'
p46
g2
sS'scs_m.objs[16-1]'
p47
g2
sS'scs_m.objs[11-1]'
p48
g2
sS'scs_m.objs[14-1]'
p49
g2
sS'scs_m.objs[17-1]'
p50
g2
sS'scs_m_1.objs[5-1]'
p51
g2
sS'path'
p52
NsS'scs_m.objs[4-1]'
p53
g2
sS'scs_m.objs[7-1]'
p54
g2
sS'typ'
p55
g38
sS'model.outtyp'
p56
g27
sS'needcompile'
p57
g2
sS'arg1.model'
p58
g4
sS'model.blocktype'
p59
g6
sS'scs_m.objs[8-1]'
p60
g2
sS'scs_m.objs[15-1]'
p61
g2
sS'scs_m.objs[21-1]'
p62
g2
sS'scs_m_1.objs[1-1]'
p63
g2
sS'arg1.model.rpar.objs[path-1]'
p64
g4
sS'exprs'
p65
g2
sS'gr_i'
p66
g27
sS'scs_m.objs[12-1]'
p67
g2
sS'y'
p68
g2
sS'x'
p69
g2
sS'model'
p70
g4
sS'arg1.model.rpar'
p71
g4
s.