c__builtin__
set
p0
((lp1
S'x'
p2
aS'model'
p3
aS'herit'
p4
aS'mat'
p5
aS'graphics'
p6
atp7
Rp8
.(dp0
S'arg1'
p1
S'object'
p2
sS'graphics'
p3
g2
sS'it'
p4
S'double'
p5
sS'x.model'
p6
NsS'model.out'
p7
g5
sS'out'
p8
S'vector'
p9
sS'model.in2'
p10
S'matrix'
p11
sS'model.intyp'
p12
g9
sS'x.graphics'
p13
g2
sS'u1'
p14
g5
sS'model.evtin'
p15
g5
sS'model.firing'
p16
S'boolean'
p17
sS'model.sim'
p18
S'list'
p19
sS'nin'
p20
g5
sS'mat'
p21
g11
sS'model.out2'
p22
g5
sS'in1'
p23
g9
sS'model.outtyp'
p24
g5
sS'model.in'
p25
g11
sS'graphics.exprs'
p26
NsS'typ'
p27
g9
sS'model.opar'
p28
g19
sS'ok'
p29
g17
sS'model.blocktype'
p30
S'string'
p31
sS'model.dep_ut'
p32
S'vector_boolean'
p33
sS'exprs'
p34
g11
sS'gr_i'
p35
g9
sS'y'
p36
g9
sS'x'
p37
NsS'model'
p38
g2
sS'ot'
p39
g5
sS'nout'
p40
g5
s.