c__builtin__
set
p0
((lp1
S'x'
p2
aS'model'
p3
aS'herit'
p4
aS'mat'
p5
aS'graphics'
p6
atp7
Rp8
.(dp0
S'graphics'
p1
S'object'
p2
sS'it'
p3
S'double'
p4
sS'x.model'
p5
NsS'model.out'
p6
g4
sS'out'
p7
S'vector'
p8
sS'model.in2'
p9
S'matrix'
p10
sS'model.intyp'
p11
g8
sS'x.graphics'
p12
g2
sS'u1'
p13
g4
sS'model.evtin'
p14
g4
sS'model.firing'
p15
S'boolean'
p16
sS'model.sim'
p17
S'list'
p18
sS'nin'
p19
g4
sS'mat'
p20
g10
sS'model.out2'
p21
g4
sS'in1'
p22
g8
sS'model.outtyp'
p23
g4
sS'model.in'
p24
g10
sS'graphics.exprs'
p25
NsS'typ'
p26
g8
sS'model.opar'
p27
g18
sS'ok'
p28
g16
sS'model.blocktype'
p29
S'string'
p30
sS'model.dep_ut'
p31
S'vector_boolean'
p32
sS'exprs'
p33
g10
sS'gr_i'
p34
g8
sS'y'
p35
g8
sS'x'
p36
g8
sS'model'
p37
g2
sS'ot'
p38
g4
sS'nout'
p39
g4
s.