c__builtin__
set
p0
((lp1
S'herit'
p2
aS'mat'
p3
aS'exprs'
p4
aS'gr_i'
p5
aS'graphics'
p6
aS'x'
p7
aS'model'
p8
atp9
Rp10
.(dp0
S'arg1'
p1
S'object'
p2
sS'graphics'
p3
g2
sS'it'
p4
S'double'
p5
sS'x.model'
p6
NsS'model.out'
p7
g5
sS'out'
p8
S'vector'
p9
sS'model.in2'
p10
S'matrix'
p11
sS'model.intyp'
p12
g9
sS'x.graphics'
p13
g2
sS'u1'
p14
g5
sS'model.evtin'
p15
g5
sS'model.firing'
p16
S'boolean'
p17
sS'model.sim'
p18
S'list'
p19
sS'nin'
p20
g5
sS'mat'
p21
g11
sS'model.out2'
p22
g5
sS'in1'
p23
g9
sS'model.outtyp'
p24
g5
sS'model.in'
p25
g11
sS'graphics.exprs'
p26
NsS'typ'
p27
g9
sS'model.opar'
p28
g19
sS'ok'
p29
g17
sS'model.blocktype'
p30
S'string'
p31
sS'model.dep_ut'
p32
g9
sS'exprs'
p33
g11
sS'gr_i'
p34
g9
sS'y'
p35
g9
sS'x'
p36
NsS'model'
p37
g2
sS'ot'
p38
g5
sS'nout'
p39
g5
s.