c__builtin__
set
p0
((lp1
S'x'
p2
aS'herit'
p3
aS'mat'
p4
atp5
Rp6
.(dp0
S'arg1'
p1
S'object'
p2
sS'graphics'
p3
g2
sS'it'
p4
S'double'
p5
sS'model.intyp'
p6
S'vector'
p7
sS'this.x.model'
p8
NsS'model.out'
p9
g5
sS'out'
p10
g7
sS'model.in2'
p11
S'matrix'
p12
sS'model.in1'
p13
g12
sS'typ'
p14
g7
sS'u1'
p15
g5
sS'model.evtin'
p16
g5
sS'model.firing'
p17
S'boolean'
p18
sS'this.x'
p19
g5
sS'model.sim'
p20
g7
sS'nin'
p21
g5
sS'model.out2'
p22
g5
sS'in1'
p23
g7
sS'model.outtyp'
p24
g5
sS'graphics.exprs'
p25
NsS'this.x.graphics'
p26
g2
sS'model.opar'
p27
g7
sS'[model,graphics,ok]'
p28
g5
sS'ok'
p29
g18
sS'model.blocktype'
p30
S'string'
p31
sS'model.dep_ut'
p32
g7
sS'exprs'
p33
g12
sS'gr_i'
p34
g7
sS'this.mat'
p35
g12
sS'y'
p36
g7
sS'model'
p37
g5
sS'ot'
p38
g5
sS'nout'
p39
g5
s.