c__builtin__
set
p0
((lp1
S'x'
p2
aS'model'
p3
aS'herit'
p4
aS'mat'
p5
atp6
Rp7
.(dp0
S'arg1'
p1
S'object'
p2
sS'graphics'
p3
g2
sS'it'
p4
S'double'
p5
sS'x.model'
p6
NsS'model.intyp'
p7
S'vector'
p8
sS'model.out'
p9
g5
sS'out'
p10
g8
sS'model.in2'
p11
S'matrix'
p12
sS'model.in1'
p13
g12
sS'x.graphics'
p14
g2
sS'u1'
p15
g5
sS'model.evtin'
p16
g5
sS'model.firing'
p17
S'boolean'
p18
sS'model.sim'
p19
S'list'
p20
sS'nin'
p21
g5
sS'mat'
p22
g12
sS'model.out2'
p23
g5
sS'in1'
p24
g8
sS'model.outtyp'
p25
g5
sS'graphics.exprs'
p26
NsS'typ'
p27
g8
sS'model.opar'
p28
g20
sS'ok'
p29
g18
sS'model.blocktype'
p30
S'string'
p31
sS'model.dep_ut'
p32
g8
sS'exprs'
p33
g12
sS'gr_i'
p34
g8
sS'y'
p35
g8
sS'x'
p36
g5
sS'model'
p37
g2
sS'ot'
p38
g5
sS'nout'
p39
g5
s.