c__builtin__
set
p0
((lp1
S'Datatype'
p2
aS'nb'
p3
aS'graphics'
p4
aS'np'
p5
aS'x'
p6
aS'model'
p7
atp8
Rp9
.(dp0
S'OPER'
p1
S'double'
p2
sS'arg1'
p3
S'object'
p4
sS'graphics'
p5
g4
sS'it'
p6
NsS'x.model'
p7
NsS'sgn'
p8
S'matrix'
p9
sS'model.out'
p10
g2
sS'model.in2'
p11
g2
sS'model.intyp'
p12
g2
sS'x.graphics'
p13
g4
sS'model.sim'
p14
S'list'
p15
sS'model.out2'
p16
g2
sS'model.rpar'
p17
S'vector'
p18
sS'model.outtyp'
p19
g2
sS'model.in'
p20
g2
sS'graphics.exprs'
p21
NsS'model.ipar'
p22
g9
sS'typ'
p23
g18
sS'ok'
p24
S'boolean'
p25
sS'model.blocktype'
p26
S'string'
p27
sS'model.dep_ut'
p28
S'vector_boolean'
p29
sS'exprs'
p30
g9
sS'gr_i'
p31
g18
sS'y'
p32
g18
sS'x'
p33
NsS'model'
p34
g4
sS'ot'
p35
Ns.