c__builtin__
set
p0
((lp1
S'Datatype'
p2
aS'x'
p3
aS'nb'
p4
aS'np'
p5
atp6
Rp7
.(dp0
S'OPER'
p1
S'double'
p2
sS'arg1'
p3
S'object'
p4
sS'this.x.model'
p5
NsS'it'
p6
NsS'graphics'
p7
g4
sS'sgn'
p8
S'matrix'
p9
sS'model.out'
p10
g2
sS'model.in2'
p11
g2
sS'model.in1'
p12
g2
sS'typ'
p13
S'vector'
p14
sS'this.x'
p15
g2
sS'model.sim'
p16
g14
sS'model.out2'
p17
g2
sS'model.intyp'
p18
g2
sS'model.rpar'
p19
g14
sS'model.outtyp'
p20
g2
sS'graphics.exprs'
p21
NsS'model.ipar'
p22
g9
sS'this.x.graphics'
p23
g4
sS'[model,graphics,ok]'
p24
g2
sS'ok'
p25
S'boolean'
p26
sS'model.blocktype'
p27
S'string'
p28
sS'model.dep_ut'
p29
g14
sS'exprs'
p30
g9
sS'gr_i'
p31
g14
sS'y'
p32
g14
sS'model'
p33
g4
sS'ot'
p34
Ns.