c__builtin__
set
p0
((lp1
S'Datatype'
p2
aS'nb'
p3
aS'graphics'
p4
aS'np'
p5
aS'x'
p6
aS'model'
p7
atp8
Rp9
.(dp0
S'OPER'
p1
S'double'
p2
sS'graphics'
p3
S'object'
p4
sS'it'
p5
NsS'x.model'
p6
NsS'sgn'
p7
S'matrix'
p8
sS'model.out'
p9
g2
sS'model.in2'
p10
g2
sS'model.intyp'
p11
g2
sS'x.graphics'
p12
g4
sS'model.sim'
p13
S'list'
p14
sS'model.out2'
p15
g2
sS'model.rpar'
p16
S'vector'
p17
sS'y'
p18
g17
sS'model.in'
p19
g2
sS'graphics.exprs'
p20
NsS'model.ipar'
p21
g8
sS'typ'
p22
g17
sS'ok'
p23
S'boolean'
p24
sS'model.blocktype'
p25
S'string'
p26
sS'model.dep_ut'
p27
S'vector_boolean'
p28
sS'exprs'
p29
g8
sS'gr_i'
p30
g17
sS'model.outtyp'
p31
g2
sS'x'
p32
g17
sS'model'
p33
g4
sS'ot'
p34
Ns.