c__builtin__
set
p0
((lp1
S'Datatype'
p2
aS'x'
p3
aS'model'
p4
aS'np'
p5
aS'nb'
p6
atp7
Rp8
.(dp0
S'OPER'
p1
S'double'
p2
sS'arg1'
p3
S'object'
p4
sS'graphics'
p5
g4
sS'it'
p6
NsS'x.model'
p7
NsS'sgn'
p8
S'matrix'
p9
sS'model.out'
p10
g2
sS'model.in2'
p11
g2
sS'model.in1'
p12
g2
sS'x.graphics'
p13
g4
sS'model.sim'
p14
S'list'
p15
sS'[this.model,graphics,ok]'
p16
g2
sS'model.out2'
p17
g2
sS'model.intyp'
p18
g2
sS'model.rpar'
p19
S'vector'
p20
sS'model.outtyp'
p21
g2
sS'graphics.exprs'
p22
NsS'model.ipar'
p23
g9
sS'typ'
p24
g20
sS'ok'
p25
S'boolean'
p26
sS'model.blocktype'
p27
S'string'
p28
sS'model.dep_ut'
p29
g20
sS'exprs'
p30
g9
sS'gr_i'
p31
g20
sS'y'
p32
g20
sS'x'
p33
g2
sS'model'
p34
g4
sS'ot'
p35
Ns.