c__builtin__
set
p0
((lp1
S'x'
p2
aS'model'
p3
aS'init'
p4
aS'exprs0'
p5
atp6
Rp7
.(dp0
S'model.odstate[1]'
p1
S'double'
p2
sS'xx.model'
p3
S'object'
p4
sS'model.sim'
p5
S'string'
p6
sS'arg1'
p7
g4
sS'xx.graphics'
p8
g4
sS'model.out'
p9
S'matrix'
p10
sS'xx'
p11
g4
sS'o'
p12
g4
sS'xx.graphics.exprs[1-1]'
p13
NsS'scs_m.objs[2-1]'
p14
g2
sS'scs_m.objs[5-1]'
p15
g2
sS'scs_m.objs[10-1]'
p16
g2
sS'scs_m'
p17
g2
sS'model.in1'
p18
g10
sS'scs_m.objs[1-1]'
p19
g2
sS'model.dep_ut'
p20
S'vector'
p21
sS'newpar[size(newpar)+1-1]'
p22
NsS'init'
p23
g2
sS'scs_m.objs[12-1]'
p24
g2
sS'init_old'
p25
g2
sS'scs_m.objs[13-1]'
p26
g2
sS'newpar'
p27
S'list'
p28
sS'model.in2'
p29
g10
sS'scs_m.objs[6-1]'
p30
g2
sS'scs_m.objs[9-1]'
p31
g2
sS'model.out2'
p32
g10
sS'model.intyp'
p33
g21
sS'model.rpar'
p34
g2
sS'scs_m.objs[3-1]'
p35
g2
sS'model.outtyp'
p36
g21
sS'scs_m.objs[11-1]'
p37
g2
sS'scs_m.objs[14-1]'
p38
g2
sS'path'
p39
NsS'scs_m.objs[4-1]'
p40
g2
sS'scs_m.objs[7-1]'
p41
g2
sS'typ'
p42
g28
sS'needcompile'
p43
g2
sS'arg1.model'
p44
g4
sS'model.blocktype'
p45
g6
sS'scs_m.objs[8-1]'
p46
g2
sS'arg1.model.rpar.objs[path-1]'
p47
g4
sS'exprs'
p48
g2
sS'gr_i'
p49
g21
sS'model.firing'
p50
S'boolean'
p51
sS'y'
p52
g2
sS'x'
p53
g2
sS'model'
p54
g4
sS'arg1.model.rpar'
p55
g4
s.