c__builtin__
set
p0
((lp1
S'exprs0'
p2
aS'x'
p3
aS'model'
p4
aS'init'
p5
aS'graphics'
p6
atp7
Rp8
.(dp0
S'xx.model'
p1
S'object'
p2
sS'model.sim'
p3
S'string'
p4
sS'arg1'
p5
g2
sS'xx.graphics'
p6
g2
sS'model.out'
p7
S'matrix'
p8
sS'xx'
p9
g2
sS'o'
p10
g2
sS'xx.graphics.exprs[1-1]'
p11
NsS'scs_m.objs[2-1]'
p12
S'double'
p13
sS'scs_m.objs[5-1]'
p14
g13
sS'scs_m.objs[10-1]'
p15
g13
sS'scs_m'
p16
g13
sS'model.intyp'
p17
S'vector'
p18
sS'scs_m.objs[1-1]'
p19
g13
sS'model.dep_ut'
p20
S'vector_boolean'
p21
sS'newpar[size(newpar)+1-1]'
p22
NsS'init'
p23
g13
sS'scs_m.objs[12-1]'
p24
g13
sS'init_old'
p25
g13
sS'scs_m.objs[13-1]'
p26
g13
sS'newpar'
p27
S'list'
p28
sS'model.in2'
p29
g8
sS'scs_m.objs[6-1]'
p30
g13
sS'scs_m.objs[9-1]'
p31
g13
sS'model.odstate[1-1]'
p32
g13
sS'model.out2'
p33
g8
sS'model.rpar'
p34
g13
sS'scs_m.objs[3-1]'
p35
g13
sS'model.outtyp'
p36
g18
sS'scs_m.objs[11-1]'
p37
g13
sS'scs_m.objs[14-1]'
p38
g13
sS'model.in'
p39
g8
sS'path'
p40
NsS'scs_m.objs[4-1]'
p41
g13
sS'scs_m.objs[7-1]'
p42
g13
sS'typ'
p43
g28
sS'needcompile'
p44
g13
sS'arg1.model'
p45
g2
sS'model.blocktype'
p46
g4
sS'scs_m.objs[8-1]'
p47
g13
sS'arg1.model.rpar.objs[path-1]'
p48
g2
sS'exprs'
p49
g13
sS'gr_i'
p50
g18
sS'model.firing'
p51
S'boolean'
p52
sS'y'
p53
g13
sS'x'
p54
g2
sS'model'
p55
g2
sS'arg1.model.rpar'
p56
g2
s.