c__builtin__
set
p0
((lp1
S'x'
p2
aS'model'
p3
aS'init'
p4
aS'graphics'
p5
atp6
Rp7
.(dp0
S'xx.model'
p1
S'object'
p2
sS'model.sim'
p3
S'string'
p4
sS'xx.graphics'
p5
g2
sS'model.out'
p6
S'matrix'
p7
sS'xx'
p8
g2
sS'model.dep_ut'
p9
S'vector_boolean'
p10
sS'xx.graphics.exprs[1-1]'
p11
NsS'scs_m.objs[2-1]'
p12
S'double'
p13
sS'scs_m.objs[5-1]'
p14
g13
sS'scs_m.objs[10-1]'
p15
g13
sS'scs_m'
p16
g13
sS'model.intyp'
p17
S'vector'
p18
sS'exprs'
p19
g13
sS'newpar[size(newpar)+1-1]'
p20
NsS'init'
p21
g13
sS'scs_m.objs[12-1]'
p22
g13
sS'init_old'
p23
g13
sS'scs_m.objs[13-1]'
p24
g13
sS'newpar'
p25
S'list'
p26
sS'model.rpar.objs[path-1]'
p27
g2
sS'model.in2'
p28
g7
sS'scs_m.objs[6-1]'
p29
g13
sS'scs_m.objs[9-1]'
p30
g13
sS'model.odstate[1-1]'
p31
g13
sS'model.out2'
p32
g7
sS'model.rpar'
p33
g13
sS'scs_m.objs[3-1]'
p34
g13
sS'model.outtyp'
p35
g18
sS'scs_m.objs[11-1]'
p36
g13
sS'scs_m.objs[14-1]'
p37
g13
sS'model.in'
p38
g7
sS'path'
p39
NsS'scs_m.objs[4-1]'
p40
g13
sS'scs_m.objs[7-1]'
p41
g13
sS'typ'
p42
g26
sS'needcompile'
p43
g13
sS'model.blocktype'
p44
g4
sS'scs_m.objs[8-1]'
p45
g13
sS'o'
p46
g2
sS'scs_m.objs[1-1]'
p47
g13
sS'gr_i'
p48
g18
sS'model.firing'
p49
S'boolean'
p50
sS'y'
p51
g13
sS'x'
p52
g18
sS'model'
p53
g2
s.