c__builtin__
set
p0
((lp1
S'x'
p2
aS'init'
p3
aS'exprs0'
p4
atp5
Rp6
.(dp0
S'xx.model'
p1
S'object'
p2
sS'model.sim'
p3
S'string'
p4
sS'arg1'
p5
g2
sS'xx.graphics'
p6
g2
sS'model.out'
p7
S'matrix'
p8
sS'xx'
p9
g2
sS'o'
p10
g2
sS'xx.graphics.exprs[1-1]'
p11
NsS'scs_m.objs[2-1]'
p12
S'double'
p13
sS'scs_m.objs[5-1]'
p14
g13
sS'scs_m.objs[10-1]'
p15
g13
sS'scs_m'
p16
g13
sS'model.in1'
p17
g8
sS'scs_m.objs[1-1]'
p18
g13
sS'model.dep_ut'
p19
S'vector'
p20
sS'newpar[size(newpar)+1-1]'
p21
NsS'init'
p22
g13
sS'scs_m.objs[12-1]'
p23
g13
sS'init_old'
p24
g13
sS'scs_m.objs[13-1]'
p25
g13
sS'newpar'
p26
g20
sS'model.in2'
p27
g8
sS'scs_m.objs[6-1]'
p28
g13
sS'scs_m.objs[9-1]'
p29
g13
sS'model.odstate[1-1]'
p30
g13
sS'model.out2'
p31
g8
sS'model.intyp'
p32
g20
sS'model.rpar'
p33
g13
sS'scs_m.objs[3-1]'
p34
g13
sS'model.outtyp'
p35
g20
sS'scs_m.objs[11-1]'
p36
g13
sS'scs_m.objs[14-1]'
p37
g13
sS'path'
p38
NsS'scs_m.objs[4-1]'
p39
g13
sS'scs_m.objs[7-1]'
p40
g13
sS'typ'
p41
g20
sS'needcompile'
p42
g13
sS'arg1.model'
p43
g2
sS'model.blocktype'
p44
g4
sS'scs_m.objs[8-1]'
p45
g13
sS'arg1.model.rpar.objs[path-1]'
p46
g2
sS'exprs'
p47
g13
sS'gr_i'
p48
g20
sS'model.firing'
p49
S'boolean'
p50
sS'y'
p51
g13
sS'x'
p52
g13
sS'model'
p53
g2
sS'arg1.model.rpar'
p54
g2
s.