c__builtin__
set
p0
((lp1
S'x'
p2
aS'model'
p3
aS'init'
p4
aS'exprs0'
p5
atp6
Rp7
.(dp0
S'xx.model'
p1
S'object'
p2
sS'model.sim'
p3
S'string'
p4
sS'arg1'
p5
g2
sS'xx.graphics'
p6
g2
sS'model.out'
p7
S'matrix'
p8
sS'xx'
p9
g2
sS'o'
p10
g2
sS'xx.graphics.exprs[1-1]'
p11
NsS'scs_m.objs[2-1]'
p12
S'double'
p13
sS'scs_m.objs[5-1]'
p14
g13
sS'scs_m.objs[10-1]'
p15
g13
sS'scs_m'
p16
g13
sS'model.in1'
p17
g8
sS'scs_m.objs[1-1]'
p18
g13
sS'model.dep_ut'
p19
S'vector'
p20
sS'newpar[size(newpar)+1-1]'
p21
NsS'init'
p22
g13
sS'scs_m.objs[12-1]'
p23
g13
sS'init_old'
p24
g13
sS'scs_m.objs[13-1]'
p25
g13
sS'newpar'
p26
S'list'
p27
sS'model.in2'
p28
g8
sS'scs_m.objs[6-1]'
p29
g13
sS'scs_m.objs[9-1]'
p30
g13
sS'model.out2'
p31
g8
sS'model.intyp'
p32
g20
sS'model.rpar'
p33
g13
sS'scs_m.objs[3-1]'
p34
g13
sS"model.odstate[('1', 'double')]"
p35
g13
sS'scs_m.objs[11-1]'
p36
g13
sS'scs_m.objs[14-1]'
p37
g13
sS'path'
p38
NsS'scs_m.objs[4-1]'
p39
g13
sS'scs_m.objs[7-1]'
p40
g13
sS'typ'
p41
g27
sS'model.outtyp'
p42
g20
sS'needcompile'
p43
g13
sS'arg1.model'
p44
g2
sS'model.blocktype'
p45
g4
sS'scs_m.objs[8-1]'
p46
g13
sS'arg1.model.rpar.objs[path-1]'
p47
g2
sS'exprs'
p48
g13
sS'gr_i'
p49
g20
sS'model.firing'
p50
S'boolean'
p51
sS'y'
p52
g13
sS'x'
p53
g13
sS'model'
p54
g2
sS'arg1.model.rpar'
p55
g2
s.