c__builtin__
set
p0
((lp1
S'a'
p2
aS'b'
p3
aS'graphics'
p4
aS'x'
p5
aS'model'
p6
aS'typ'
p7
atp8
Rp9
.(dp0
S'model.dstate'
p1
S'vector'
p2
sS'graphics'
p3
S'object'
p4
sS'it'
p5
S'double'
p6
sS'funtyp'
p7
g6
sS'model.out'
p8
g6
sS'out'
p9
g2
sS'model.in2'
p10
g6
sS'model.intyp'
p11
g6
sS'label'
p12
S'matrix'
p13
sS'model.evtin'
p14
g2
sS'model.firing'
p15
g2
sS'function_name'
p16
S'string'
p17
sS'model.sim'
p18
S'list'
p19
sS'model.evtout'
p20
g2
sS'model.out2'
p21
g6
sS'in1'
p22
g2
sS'model.rpar'
p23
g2
sS'model.outtyp'
p24
g6
sS'b'
p25
g2
sS'model.state'
p26
g2
sS'model.in'
p27
g6
sS'graphics.exprs'
p28
NsS'ma'
p29
g6
sS'model.ipar'
p30
g2
sS'typ'
p31
g2
sS'a'
p32
g2
sS'label[9-1]'
p33
g2
sS'ok'
p34
S'boolean'
p35
sS'model.blocktype'
p36
g17
sS'mb'
p37
g6
sS'model.dep_ut'
p38
S'vector_boolean'
p39
sS'gr_i'
p40
g2
sS'y'
p41
g2
sS'x'
p42
g2
sS'model'
p43
g4
sS'ot'
p44
g6
s.