c__builtin__
set
p0
((lp1
S'a'
p2
aS'b'
p3
aS'graphics'
p4
aS'x'
p5
aS'model'
p6
aS'typ'
p7
atp8
Rp9
.(dp0
S'model.dstate'
p1
S'vector'
p2
sS'arg1'
p3
S'object'
p4
sS'graphics'
p5
g4
sS'it'
p6
S'double'
p7
sS'model.intyp'
p8
g7
sS'funtyp'
p9
g7
sS'model.out'
p10
g7
sS'out'
p11
g2
sS'model.in2'
p12
g7
sS'model.in1'
p13
g7
sS'label'
p14
S'matrix'
p15
sS'model.evtin'
p16
g2
sS'model.firing'
p17
g2
sS'function_name'
p18
S'string'
p19
sS'model.sim'
p20
S'list'
p21
sS'model.evtout'
p22
g2
sS'arg1.graphics'
p23
g4
sS'model.out2'
p24
g7
sS'in1'
p25
g2
sS'model.rpar'
p26
g2
sS'model.outtyp'
p27
g7
sS'b'
p28
g2
sS'model.state'
p29
g2
sS'graphics.exprs'
p30
NsS'ma'
p31
g7
sS'model.ipar'
p32
g2
sS'typ'
p33
g2
sS'a'
p34
g2
sS'arg1.model'
p35
g4
sS'label[9-1]'
p36
g2
sS'ok'
p37
S'boolean'
p38
sS'model.blocktype'
p39
g19
sS'mb'
p40
g7
sS'model.dep_ut'
p41
g2
sS'gr_i'
p42
g2
sS'y'
p43
g2
sS'x'
p44
g7
sS'model'
p45
g4
sS'ot'
p46
g7
s.