c__builtin__
set
p0
((lp1
S'a'
p2
aS'x'
p3
aS'model'
p4
aS'b'
p5
aS'typ'
p6
atp7
Rp8
.(dp0
S'model.dstate'
p1
S'vector'
p2
sS'arg1'
p3
S'object'
p4
sS'graphics.exprs'
p5
NsS'it'
p6
S'double'
p7
sS'model.intyp'
p8
g7
sS'funtyp'
p9
g7
sS'model.out'
p10
g7
sS'out'
p11
g2
sS'model.in2'
p12
g7
sS'model.in1'
p13
g7
sS'label'
p14
S'matrix'
p15
sS'model.evtin'
p16
g2
sS'model.firing'
p17
g2
sS'function_name'
p18
S'string'
p19
sS'model.sim'
p20
g2
sS'model.evtout'
p21
g2
sS'arg1.graphics'
p22
g4
sS'model.out2'
p23
g7
sS'in1'
p24
g2
sS'model.rpar'
p25
g2
sS'model.outtyp'
p26
g7
sS'b'
p27
g2
sS'model.state'
p28
g2
sS'graphics'
p29
g4
sS'ma'
p30
g7
sS'model.ipar'
p31
g2
sS'typ'
p32
g2
sS'a'
p33
g2
sS'[model,graphics,ok]'
p34
g7
sS'arg1.model'
p35
g4
sS'label[9-1]'
p36
g2
sS'ok'
p37
S'boolean'
p38
sS'model.blocktype'
p39
g19
sS'mb'
p40
g7
sS'model.dep_ut'
p41
g2
sS'gr_i'
p42
g2
sS'y'
p43
g2
sS'x'
p44
g7
sS'model'
p45
g4
sS'ot'
p46
g7
s.