c__builtin__
set
p0
((lp1
S'a'
p2
aS'b'
p3
aS'graphics'
p4
aS'x'
p5
aS'model'
p6
aS'typ'
p7
atp8
Rp9
.(dp0
S'model.dstate'
p1
S'vector'
p2
sS'arg1'
p3
S'object'
p4
sS'graphics'
p5
g4
sS'it'
p6
S'double'
p7
sS'funtyp'
p8
g7
sS'model.out'
p9
g7
sS'out'
p10
g2
sS'model.in2'
p11
g7
sS'model.intyp'
p12
g7
sS'label'
p13
S'matrix'
p14
sS'model.evtin'
p15
g2
sS'model.firing'
p16
g2
sS'function_name'
p17
S'string'
p18
sS'model.sim'
p19
S'list'
p20
sS'model.evtout'
p21
g2
sS'arg1.graphics'
p22
g4
sS'model.out2'
p23
g7
sS'in1'
p24
g2
sS'model.rpar'
p25
g2
sS'model.outtyp'
p26
g7
sS'b'
p27
g2
sS'model.state'
p28
g2
sS'model.in'
p29
g7
sS'graphics.exprs'
p30
NsS'ma'
p31
g7
sS'model.ipar'
p32
g2
sS'typ'
p33
g2
sS'a'
p34
g2
sS'arg1.model'
p35
g4
sS'label[9-1]'
p36
g2
sS'ok'
p37
S'boolean'
p38
sS'model.blocktype'
p39
g18
sS'mb'
p40
g7
sS'model.dep_ut'
p41
S'vector_boolean'
p42
sS'gr_i'
p43
g2
sS'y'
p44
g2
sS'x'
p45
g4
sS'model'
p46
g4
sS'ot'
p47
g7
s.