c__builtin__
set
p0
((lp1
S'a'
p2
aS'x'
p3
aS'b'
p4
aS'typ'
p5
atp6
Rp7
.(dp0
S'model.dstate'
p1
S'vector'
p2
sS'arg1'
p3
S'object'
p4
sS'graphics.exprs'
p5
NsS'it'
p6
S'double'
p7
sS'model.intyp'
p8
g7
sS'funtyp'
p9
g7
sS'this.a'
p10
g2
sS'model.out'
p11
g7
sS'out'
p12
g2
sS'model.in2'
p13
g7
sS'model.in1'
p14
g7
sS'label'
p15
S'matrix'
p16
sS'model.evtin'
p17
g2
sS'model.firing'
p18
g2
sS'function_name'
p19
S'string'
p20
sS'this.x'
p21
g7
sS'model.sim'
p22
g2
sS'model.evtout'
p23
g2
sS'arg1.graphics'
p24
g4
sS'model.out2'
p25
g7
sS'in1'
p26
g2
sS'model.rpar'
p27
g2
sS'model.outtyp'
p28
g7
sS'model.state'
p29
g2
sS'graphics'
p30
g4
sS'ma'
p31
g7
sS'this.b'
p32
g2
sS'model.ipar'
p33
g2
sS'typ'
p34
g2
sS'[model,graphics,ok]'
p35
g7
sS'arg1.model'
p36
g4
sS'label[9-1]'
p37
g2
sS'ok'
p38
S'boolean'
p39
sS'model.blocktype'
p40
g20
sS'mb'
p41
g7
sS'model.dep_ut'
p42
g2
sS'gr_i'
p43
g2
sS'y'
p44
g2
sS'model'
p45
g7
sS'ot'
p46
g7
s.