c__builtin__
set
p0
((lp1
S'x'
p2
aS'nin'
p3
aS'lab'
p4
atp5
Rp6
.(dp0
S'model.dstate'
p1
S'vector'
p2
sS'arg1'
p3
S'object'
p4
sS'graphics'
p5
g4
sS'it'
p6
S'double'
p7
sS'funtyp'
p8
g7
sS'model.out'
p9
g7
sS'out'
p10
g2
sS'model.in2'
p11
S'matrix'
p12
sS'model.intyp'
p13
g2
sS'label'
p14
g2
sS'model.evtin'
p15
g2
sS'model.firing'
p16
g2
sS'function_name'
p17
S'string'
p18
sS'this.x'
p19
g7
sS'model.sim'
p20
g2
sS'model.evtout'
p21
g2
sS'arg1.graphics'
p22
g4
sS'model.out2'
p23
g7
sS'in1'
p24
g2
sS'model.rpar'
p25
g2
sS'model.in1'
p26
g12
sS'model.outtyp'
p27
g7
sS'model.state'
p28
g2
sS'graphics.exprs'
p29
NsS'model.ipar'
p30
g2
sS'typ'
p31
g2
sS'[model,graphics,ok]'
p32
g7
sS'arg1.model'
p33
NsS'model.blocktype'
p34
g18
sS'model.dep_ut'
p35
g2
sS'gr_i'
p36
g2
sS'y'
p37
g2
sS'model'
p38
g4
sS'ot'
p39
g7
s.