c__builtin__
set
p0
((lp1
S'nin'
p2
aS'lab'
p3
aS'exprs'
p4
aS'gr_i'
p5
aS'graphics'
p6
aS'x'
p7
aS'model'
p8
atp9
Rp10
.(dp0
S'model.dstate'
p1
S'vector'
p2
sS'arg1'
p3
S'object'
p4
sS'graphics'
p5
g4
sS'it'
p6
S'double'
p7
sS'funtyp'
p8
g7
sS'model.out'
p9
g7
sS'out'
p10
g2
sS'model.in2'
p11
S'matrix'
p12
sS'model.intyp'
p13
g2
sS'label'
p14
g2
sS'model.evtin'
p15
g2
sS'model.firing'
p16
g2
sS'function_name'
p17
S'string'
p18
sS'model.sim'
p19
S'list'
p20
sS'model.evtout'
p21
g2
sS'arg1.graphics'
p22
g4
sS'model.out2'
p23
g7
sS'in1'
p24
g2
sS'model.rpar'
p25
g2
sS'model.outtyp'
p26
g7
sS'model.state'
p27
g2
sS'model.in'
p28
g12
sS'graphics.exprs'
p29
NsS'model.ipar'
p30
g2
sS'typ'
p31
g2
sS'arg1.model'
p32
NsS'model.blocktype'
p33
g18
sS'model.dep_ut'
p34
g2
sS'gr_i'
p35
g2
sS'y'
p36
g2
sS'x'
p37
g7
sS'model'
p38
g4
sS'ot'
p39
g7
s.