c__builtin__
set
p0
((lp1
S'x'
p2
aS'model'
p3
aS'nin'
p4
aS'lab'
p5
aS'graphics'
p6
atp7
Rp8
.(dp0
S'model.dstate'
p1
S'vector'
p2
sS'arg1'
p3
S'object'
p4
sS'graphics'
p5
g4
sS'it'
p6
S'double'
p7
sS'funtyp'
p8
g7
sS'model.out'
p9
g7
sS'out'
p10
g2
sS'model.in2'
p11
S'matrix'
p12
sS'model.intyp'
p13
g2
sS'label'
p14
S'vector_string'
p15
sS'model.evtin'
p16
g2
sS'model.firing'
p17
g2
sS'function_name'
p18
S'string'
p19
sS'model.sim'
p20
S'list'
p21
sS'model.evtout'
p22
g2
sS'arg1.graphics'
p23
g4
sS'model.out2'
p24
g7
sS'in1'
p25
g2
sS'model.rpar'
p26
g2
sS'model.outtyp'
p27
g7
sS'model.state'
p28
g2
sS'model.in'
p29
g12
sS'graphics.exprs'
p30
NsS'model.ipar'
p31
g2
sS'typ'
p32
g2
sS'arg1.model'
p33
NsS'model.blocktype'
p34
g19
sS'model.dep_ut'
p35
S'vector_boolean'
p36
sS'gr_i'
p37
g2
sS'l1'
p38
g12
sS'y'
p39
g2
sS'x'
p40
g4
sS'model'
p41
g4
sS'ot'
p42
g7
s.