c__builtin__
set
p0
((lp1
S'x'
p2
aS'model'
p3
aS'nin'
p4
aS'lab'
p5
atp6
Rp7
.(dp0
S'model.dstate'
p1
S'vector'
p2
sS'arg1'
p3
S'object'
p4
sS'graphics'
p5
g4
sS'it'
p6
S'double'
p7
sS'funtyp'
p8
g7
sS'model.out'
p9
g7
sS'out'
p10
g2
sS'model.in2'
p11
S'matrix'
p12
sS'model.intyp'
p13
g2
sS'label'
p14
g2
sS'model.evtin'
p15
g2
sS'model.firing'
p16
g2
sS'function_name'
p17
S'string'
p18
sS'model.sim'
p19
S'list'
p20
sS'model.evtout'
p21
g2
sS'arg1.graphics'
p22
g4
sS'[this.model,graphics,ok]'
p23
g7
sS'model.out2'
p24
g7
sS'in1'
p25
g2
sS'model.rpar'
p26
g2
sS'model.in1'
p27
g12
sS'model.outtyp'
p28
g7
sS'model.state'
p29
g2
sS'graphics.exprs'
p30
NsS'model.ipar'
p31
g2
sS'typ'
p32
g2
sS'arg1.model'
p33
NsS'model.blocktype'
p34
g18
sS'model.dep_ut'
p35
g2
sS'gr_i'
p36
g2
sS'l1'
p37
g12
sS'y'
p38
g2
sS'x'
p39
g7
sS'model'
p40
g4
sS'ot'
p41
g7
s.