c__builtin__
set
p0
((lp1
S'x'
p2
aS'model'
p3
aS'nin'
p4
aS'graphics'
p5
atp6
Rp7
.(dp0
S'model.dstate'
p1
S'vector'
p2
sS'graphics'
p3
S'object'
p4
sS'it'
p5
S'double'
p6
sS'funtyp'
p7
g6
sS'model.out'
p8
g6
sS'out'
p9
g2
sS'model.in2'
p10
S'matrix'
p11
sS'model.intyp'
p12
g2
sS'label'
p13
S'vector_string'
p14
sS'model.evtin'
p15
g2
sS'model.firing'
p16
g2
sS'function_name'
p17
S'string'
p18
sS'model.sim'
p19
S'list'
p20
sS'model.evtout'
p21
g2
sS'model.out2'
p22
g6
sS'in1'
p23
g2
sS'model.rpar'
p24
g2
sS'model.outtyp'
p25
g6
sS'model.state'
p26
g2
sS'model.in'
p27
g11
sS'graphics.exprs'
p28
NsS'model.ipar'
p29
g2
sS'typ'
p30
g2
sS'model.blocktype'
p31
g18
sS'model.dep_ut'
p32
S'vector_boolean'
p33
sS'gr_i'
p34
g2
sS'l1'
p35
g11
sS'y'
p36
g2
sS'x'
p37
g2
sS'model'
p38
g4
sS'ot'
p39
g6
s.