c__builtin__
set
p0
((lp1
S'exprs'
p2
aS'gr_i'
p3
aS'graphics'
p4
aS'x'
p5
aS'model'
p6
aS'typ'
p7
atp8
Rp9
.(dp0
S'model.dstate'
p1
S'vector'
p2
sS'arg1'
p3
S'object'
p4
sS'graphics'
p5
g4
sS'it'
p6
S'double'
p7
sS'funtyp'
p8
g7
sS'model.out'
p9
g7
sS'out'
p10
g2
sS'model.in2'
p11
g7
sS'model.intyp'
p12
g7
sS'label'
p13
g2
sS'model.evtin'
p14
g2
sS'model.firing'
p15
g2
sS'function_name'
p16
S'string'
p17
sS'model.sim'
p18
S'list'
p19
sS'model.evtout'
p20
g2
sS'arg1.graphics'
p21
g4
sS'model.out2'
p22
g7
sS'in1'
p23
g2
sS'model.rpar'
p24
g2
sS'model.outtyp'
p25
g7
sS'model.state'
p26
g2
sS'model.in'
p27
g7
sS'graphics.exprs'
p28
NsS'model.ipar'
p29
g2
sS'typ'
p30
g2
sS'arg1.model'
p31
g4
sS'label[9-1]'
p32
g2
sS'ok'
p33
S'boolean'
p34
sS'model.blocktype'
p35
g17
sS'model.dep_ut'
p36
g2
sS'gr_i'
p37
g2
sS'y'
p38
g2
sS'x'
p39
g4
sS'model'
p40
g4
sS'ot'
p41
g7
s.