c__builtin__
set
p0
((lp1
S'x'
p2
aS'model'
p3
aS'typ'
p4
atp5
Rp6
.(dp0
S'model.dstate'
p1
S'vector'
p2
sS'arg1'
p3
S'object'
p4
sS'graphics'
p5
g4
sS'it'
p6
g2
sS'model.intyp'
p7
g2
sS'funtyp'
p8
S'double'
p9
sS'model.out'
p10
g9
sS'out'
p11
g2
sS'model.in2'
p12
S'matrix'
p13
sS'model.in1'
p14
g13
sS'label'
p15
g2
sS'model.evtin'
p16
g2
sS'model.firing'
p17
g2
sS'function_name'
p18
S'string'
p19
sS'model.sim'
p20
S'list'
p21
sS'model.evtout'
p22
g2
sS'arg1.graphics'
p23
g4
sS'[this.model,graphics,ok]'
p24
g9
sS'model.out2'
p25
g9
sS'in1'
p26
g2
sS'model.rpar'
p27
g2
sS'model.outtyp'
p28
g9
sS'model.state'
p29
g2
sS'graphics.exprs'
p30
NsS'model.ipar'
p31
g2
sS'typ'
p32
g2
sS'arg1.model'
p33
g4
sS'label[9-1]'
p34
g2
sS'ok'
p35
S'boolean'
p36
sS'model.blocktype'
p37
g19
sS'model.dep_ut'
p38
g2
sS'gr_i'
p39
g2
sS'y'
p40
g2
sS'x'
p41
g9
sS'model'
p42
g4
sS'ot'
p43
g9
s.