c__builtin__
set
p0
((lp1
S'x'
p2
aS'typ'
p3
aS'lab'
p4
atp5
Rp6
.(dp0
S'model.dstate'
p1
S'vector'
p2
sS'arg1'
p3
S'object'
p4
sS'graphics'
p5
g4
sS'it'
p6
S'double'
p7
sS'x.model'
p8
g4
sS'funtyp'
p9
g7
sS'model.out'
p10
S'matrix'
p11
sS'model.in2'
p12
g7
sS'model.in1'
p13
g7
sS'x.graphics'
p14
g4
sS'label'
p15
g7
sS'model.evtin'
p16
g2
sS'model.firing'
p17
g2
sS'function_name'
p18
S'string'
p19
sS'model.sim'
p20
g2
sS'model.evtout'
p21
g2
sS'model.out2'
p22
g11
sS'model.intyp'
p23
g7
sS'model.rpar'
p24
g2
sS'model.outtyp'
p25
g2
sS'model.state'
p26
g2
sS'graphics.exprs'
p27
NsS'model.ipar'
p28
g2
sS'typ'
p29
g2
sS'[model,graphics,ok]'
p30
g7
sS'label[9-1]'
p31
g2
sS'ok'
p32
S'boolean'
p33
sS'model.blocktype'
p34
g19
sS'model.dep_ut'
p35
g2
sS'gr_i'
p36
g2
sS'y'
p37
g2
sS'x'
p38
g7
sS'model'
p39
g4
sS'ot'
p40
g2
s.