c__builtin__
set
p0
((lp1
S'x'
p2
aS'model'
p3
aS'typ'
p4
aS'lab'
p5
atp6
Rp7
.(dp0
S'model.dstate'
p1
S'vector'
p2
sS'arg1'
p3
S'object'
p4
sS'graphics'
p5
g4
sS'it'
p6
S'double'
p7
sS'x.model'
p8
g4
sS'funtyp'
p9
g7
sS'model.out'
p10
S'matrix'
p11
sS'model.in2'
p12
g7
sS'model.in1'
p13
g7
sS'x.graphics'
p14
g4
sS'label'
p15
g7
sS'model.evtin'
p16
g2
sS'model.firing'
p17
g2
sS'function_name'
p18
S'string'
p19
sS'model.sim'
p20
S'list'
p21
sS'model.evtout'
p22
g2
sS'model.out2'
p23
g11
sS'model.intyp'
p24
g7
sS'model.rpar'
p25
g2
sS'model.outtyp'
p26
g2
sS'model.state'
p27
g2
sS'graphics.exprs'
p28
NsS'model.ipar'
p29
g2
sS'typ'
p30
g2
sS'[model,graphics,ok]'
p31
g7
sS'label[9-1]'
p32
g2
sS'ok'
p33
S'boolean'
p34
sS'model.blocktype'
p35
g19
sS'model.dep_ut'
p36
g2
sS'gr_i'
p37
g2
sS'y'
p38
g2
sS'x'
p39
g7
sS'model'
p40
g4
sS'ot'
p41
g2
s.