c__builtin__
set
p0
((lp1
S'x'
p2
aS'model'
p3
aS'typ'
p4
aS'graphics'
p5
atp6
Rp7
.(dp0
S'model.dstate'
p1
S'vector'
p2
sS'graphics'
p3
S'object'
p4
sS'it'
p5
S'double'
p6
sS'x.model'
p7
g4
sS'funtyp'
p8
g6
sS'model.out'
p9
S'matrix'
p10
sS'model.in2'
p11
g6
sS'model.intyp'
p12
g6
sS'x.graphics'
p13
g4
sS'label'
p14
S'string'
p15
sS'model.evtin'
p16
g2
sS'model.firing'
p17
g2
sS'function_name'
p18
g15
sS'model.sim'
p19
S'list'
p20
sS'model.evtout'
p21
g2
sS'model.out2'
p22
g10
sS'model.rpar'
p23
g2
sS'model.outtyp'
p24
g2
sS'model.state'
p25
g2
sS'model.in'
p26
g6
sS'graphics.exprs'
p27
NsS'model.ipar'
p28
g2
sS'typ'
p29
g2
sS'label[9-1]'
p30
g2
sS'ok'
p31
S'boolean'
p32
sS'model.blocktype'
p33
g15
sS'model.dep_ut'
p34
S'vector_boolean'
p35
sS'gr_i'
p36
g2
sS'y'
p37
g2
sS'x'
p38
g2
sS'model'
p39
g4
sS'ot'
p40
g2
s.