c__builtin__
set
p0
((lp1
S'lab'
p2
aS'exprs'
p3
aS'gr_i'
p4
aS'graphics'
p5
aS'x'
p6
aS'model'
p7
aS'typ'
p8
atp9
Rp10
.(dp0
S'model.dstate'
p1
S'vector'
p2
sS'arg1'
p3
S'object'
p4
sS'graphics'
p5
g4
sS'it'
p6
S'double'
p7
sS'x.model'
p8
g4
sS'funtyp'
p9
g7
sS'model.out'
p10
S'matrix'
p11
sS'model.in2'
p12
g7
sS'model.in1'
p13
g7
sS'x.graphics'
p14
g4
sS'label'
p15
S'string'
p16
sS'model.evtin'
p17
g2
sS'model.firing'
p18
g2
sS'function_name'
p19
g16
sS'model.sim'
p20
S'list'
p21
sS'model.evtout'
p22
g2
sS'model.out2'
p23
g11
sS'model.intyp'
p24
g7
sS'model.rpar'
p25
g2
sS'model.outtyp'
p26
g2
sS'model.state'
p27
g2
sS'graphics.exprs'
p28
NsS'model.ipar'
p29
g2
sS'typ'
p30
g2
sS'label[9-1]'
p31
g2
sS'ok'
p32
S'boolean'
p33
sS'model.blocktype'
p34
g16
sS'model.dep_ut'
p35
g2
sS'gr_i'
p36
g2
sS'y'
p37
g2
sS'x'
p38
g7
sS'model'
p39
g4
sS'ot'
p40
g2
s.