c__builtin__
set
p0
((lp1
S'dtype'
p2
aS'rule'
p3
aS'graphics'
p4
aS'np'
p5
aS'x'
p6
aS'model'
p7
atp8
Rp9
.(dp0
S'graphics.exprs'
p1
NsS'it'
p2
S'string'
p3
sS'x.model'
p4
S'object'
p5
sS'model.dep_ut'
p6
S'vector_boolean'
p7
sS'model.out'
p8
S'double'
p9
sS'label[3-1]'
p10
g3
sS'out'
p11
S'vector'
p12
sS'model.in2'
p13
S'matrix'
p14
sS'x.graphics'
p15
g5
sS'kmin'
p16
g9
sS'label'
p17
S'vector_string'
p18
sS'np'
p19
g9
sS'model.sim'
p20
S'list'
p21
sS'label[2-1]'
p22
g3
sS'model.out2'
p23
g9
sS'in1'
p24
g14
sS'model.rpar'
p25
g14
sS'kmax'
p26
g9
sS'model.in'
p27
g14
sS'graphics'
p28
g5
sS'model.ipar'
p29
g9
sS'typ'
p30
g12
sS'ot'
p31
NsS'ok'
p32
S'boolean'
p33
sS'rule'
p34
g9
sS'gr_i'
p35
g12
sS'TABMIN'
p36
g14
sS'y'
p37
g12
sS'x'
p38
g5
sS'model'
p39
g5
sS'TABMAX'
p40
g14
s.