c__builtin__
set
p0
((lp1
S'lab'
p2
aS'exprs'
p3
aS'gr_i'
p4
aS'graphics'
p5
aS'x'
p6
aS'model'
p7
aS'decomptyp'
p8
atp9
Rp10
.(dp0
S'model.dstate'
p1
S'vector'
p2
sS'arg1'
p3
S'object'
p4
sS'graphics'
p5
g4
sS'it'
p6
g2
sS'funtyp'
p7
S'double'
p8
sS'model.out'
p9
S'matrix'
p10
sS'out'
p11
g2
sS'model.in2'
p12
g8
sS'model.intyp'
p13
g8
sS'label'
p14
g2
sS'model.evtin'
p15
g2
sS'model.firing'
p16
g2
sS'function_name'
p17
S'string'
p18
sS'model.sim'
p19
S'list'
p20
sS'model.evtout'
p21
g2
sS'arg1.graphics'
p22
g4
sS'model.out2'
p23
g10
sS'in1'
p24
g10
sS'model.rpar'
p25
g2
sS'model.in1'
p26
g8
sS'model.outtyp'
p27
g2
sS'model.state'
p28
g2
sS'graphics.exprs'
p29
NsS'model.ipar'
p30
g2
sS'typ'
p31
g2
sS'arg1.model'
p32
NsS'label[9-1]'
p33
g2
sS'ok'
p34
S'boolean'
p35
sS'model.blocktype'
p36
g18
sS'model.dep_ut'
p37
g2
sS'gr_i'
p38
g2
sS'y'
p39
g2
sS'x'
p40
g8
sS'model'
p41
g4
sS'ot'
p42
g8
s.