c__builtin__
set
p0
((lp1
S'np'
p2
aS'x'
p3
aS'model'
p4
aS'rule'
p5
aS'dtype'
p6
atp7
Rp8
.(dp0
S'arg1'
p1
S'object'
p2
sS'graphics.exprs'
p3
NsS'it'
p4
S'string'
p5
sS'x.model'
p6
g2
sS'model.dep_ut'
p7
S'vector'
p8
sS'model.out'
p9
S'double'
p10
sS'label[3-1]'
p11
g10
sS'out'
p12
g8
sS'model.in2'
p13
S'matrix'
p14
sS'model.in1'
p15
g14
sS'x.graphics'
p16
g2
sS'kmin'
p17
g10
sS'label'
p18
g8
sS'np'
p19
g10
sS'model.sim'
p20
S'list'
p21
sS'label[2-1]'
p22
g10
sS'model.out2'
p23
g10
sS'in1'
p24
g14
sS'model.rpar'
p25
g14
sS'kmax'
p26
g10
sS'graphics'
p27
g2
sS'model.ipar'
p28
g10
sS'typ'
p29
g8
sS'[model,graphics,ok]'
p30
g10
sS'ot'
p31
NsS'ok'
p32
S'boolean'
p33
sS'rule'
p34
g10
sS'gr_i'
p35
g8
sS'TABMIN'
p36
g14
sS'y'
p37
g8
sS'x'
p38
g10
sS'model'
p39
g2
sS'TABMAX'
p40
g14
s.