c__builtin__
set
p0
((lp1
S'x'
p2
aS'model'
p3
aS'lab'
p4
aS'decomptyp'
p5
atp6
Rp7
.(dp0
S'model.dstate'
p1
S'vector'
p2
sS'arg1'
p3
S'object'
p4
sS'graphics'
p5
g4
sS'it'
p6
g2
sS'model.intyp'
p7
S'double'
p8
sS'funtyp'
p9
g8
sS'model.out'
p10
S'matrix'
p11
sS'out'
p12
g2
sS'model.in2'
p13
g8
sS'model.in1'
p14
g8
sS'label'
p15
g2
sS'model.evtin'
p16
g2
sS'model.firing'
p17
g2
sS'function_name'
p18
S'string'
p19
sS'model.sim'
p20
S'list'
p21
sS'model.evtout'
p22
g2
sS'arg1.graphics'
p23
g4
sS'model.out2'
p24
g11
sS'in1'
p25
g11
sS'model.rpar'
p26
g2
sS'model.outtyp'
p27
g2
sS'model.state'
p28
g2
sS'graphics.exprs'
p29
NsS'model.ipar'
p30
g2
sS'typ'
p31
g2
sS'[model,graphics,ok]'
p32
g8
sS'arg1.model'
p33
NsS'label[9-1]'
p34
g2
sS'ok'
p35
S'boolean'
p36
sS'model.blocktype'
p37
g19
sS'model.dep_ut'
p38
g2
sS'gr_i'
p39
g2
sS'y'
p40
g2
sS'x'
p41
g8
sS'model'
p42
g4
sS'ot'
p43
g8
s.