c__builtin__
set
p0
((lp1
S'dtype'
p2
aS'rule'
p3
aS'exprs'
p4
aS'gr_i'
p5
aS'graphics'
p6
aS'np'
p7
aS'x'
p8
aS'model'
p9
atp10
Rp11
.(dp0
S'arg1'
p1
S'object'
p2
sS'graphics.exprs'
p3
NsS'it'
p4
S'string'
p5
sS'x.model'
p6
g2
sS'model.dep_ut'
p7
S'vector'
p8
sS'model.out'
p9
S'double'
p10
sS'label[3-1]'
p11
g5
sS'out'
p12
g8
sS'model.in2'
p13
S'matrix'
p14
sS'model.in1'
p15
g14
sS'x.graphics'
p16
g2
sS'kmin'
p17
g10
sS'label'
p18
g8
sS'np'
p19
g10
sS'model.sim'
p20
S'list'
p21
sS'label[2-1]'
p22
g5
sS'model.out2'
p23
g10
sS'in1'
p24
g14
sS'model.rpar'
p25
g14
sS'kmax'
p26
g10
sS'graphics'
p27
g2
sS'model.ipar'
p28
g10
sS'typ'
p29
g8
sS'ot'
p30
NsS'ok'
p31
S'boolean'
p32
sS'rule'
p33
g10
sS'gr_i'
p34
g8
sS'TABMIN'
p35
g14
sS'y'
p36
g8
sS'x'
p37
g10
sS'model'
p38
g2
sS'TABMAX'
p39
g14
s.