c__builtin__
set
p0
((lp1
S'dtype'
p2
aS'rule'
p3
aS'graphics'
p4
aS'np'
p5
aS'x'
p6
aS'model'
p7
atp8
Rp9
.(dp0
S'arg1'
p1
S'object'
p2
sS'graphics.exprs'
p3
NsS'it'
p4
S'string'
p5
sS'x.model'
p6
g2
sS'model.dep_ut'
p7
S'vector_boolean'
p8
sS'model.out'
p9
S'double'
p10
sS'label[3-1]'
p11
g5
sS'out'
p12
S'vector'
p13
sS'model.in2'
p14
S'matrix'
p15
sS'x.graphics'
p16
g2
sS'kmin'
p17
g10
sS'label'
p18
S'vector_string'
p19
sS'np'
p20
g10
sS'model.sim'
p21
S'list'
p22
sS'label[2-1]'
p23
g5
sS'model.out2'
p24
g10
sS'in1'
p25
g15
sS'model.rpar'
p26
g15
sS'kmax'
p27
g10
sS'model.in'
p28
g15
sS'graphics'
p29
g2
sS'model.ipar'
p30
g10
sS'typ'
p31
g13
sS'ot'
p32
NsS'ok'
p33
S'boolean'
p34
sS'rule'
p35
g10
sS'gr_i'
p36
g13
sS'TABMIN'
p37
g15
sS'y'
p38
g13
sS'x'
p39
g2
sS'model'
p40
g2
sS'TABMAX'
p41
g15
s.