c__builtin__
set
p0
((lp1
S'dtype'
p2
aS'rule'
p3
aS'exprs'
p4
aS'gr_i'
p5
aS'graphics'
p6
aS'np'
p7
aS'x'
p8
aS'model'
p9
atp10
Rp11
.(dp0
S'arg1'
p1
S'object'
p2
sS'graphics.exprs'
p3
NsS'it'
p4
S'string'
p5
sS'x.model'
p6
g2
sS'model.dep_ut'
p7
S'vector_boolean'
p8
sS'model.out'
p9
S'double'
p10
sS'label[3-1]'
p11
g5
sS'out'
p12
S'vector'
p13
sS'model.in2'
p14
S'matrix'
p15
sS'x.graphics'
p16
g2
sS'kmin'
p17
g10
sS'label'
p18
g13
sS'np'
p19
g10
sS'model.sim'
p20
S'list'
p21
sS'label[2-1]'
p22
g5
sS'model.out2'
p23
g10
sS'in1'
p24
g15
sS'model.rpar'
p25
g15
sS'kmax'
p26
g10
sS'model.in'
p27
g15
sS'graphics'
p28
g2
sS'model.ipar'
p29
g10
sS'typ'
p30
g13
sS'ot'
p31
NsS'ok'
p32
S'boolean'
p33
sS'rule'
p34
g10
sS'gr_i'
p35
g13
sS'TABMIN'
p36
g15
sS'y'
p37
g13
sS'x'
p38
g2
sS'model'
p39
g2
sS'TABMAX'
p40
g15
s.