c__builtin__
set
p0
((lp1
S'x'
p2
aS'model'
p3
aS'lab'
p4
aS'decomptyp'
p5
aS'graphics'
p6
atp7
Rp8
.(dp0
S'model.dstate'
p1
S'vector'
p2
sS'arg1'
p3
S'object'
p4
sS'graphics'
p5
g4
sS'it'
p6
g2
sS'funtyp'
p7
S'double'
p8
sS'model.out'
p9
S'matrix'
p10
sS'out'
p11
g2
sS'model.in2'
p12
g8
sS'model.intyp'
p13
g8
sS'label'
p14
S'vector_string'
p15
sS'model.evtin'
p16
g2
sS'model.firing'
p17
g2
sS'function_name'
p18
S'string'
p19
sS'model.sim'
p20
S'list'
p21
sS'model.evtout'
p22
g2
sS'arg1.graphics'
p23
g4
sS'model.out2'
p24
g10
sS'in1'
p25
g10
sS'model.rpar'
p26
g2
sS'model.outtyp'
p27
g2
sS'model.state'
p28
g2
sS'model.in'
p29
g8
sS'graphics.exprs'
p30
NsS'model.ipar'
p31
g2
sS'typ'
p32
g2
sS'arg1.model'
p33
NsS'label[9-1]'
p34
g2
sS'ok'
p35
S'boolean'
p36
sS'model.blocktype'
p37
g19
sS'model.dep_ut'
p38
S'vector_boolean'
p39
sS'gr_i'
p40
g2
sS'y'
p41
g2
sS'x'
p42
g4
sS'model'
p43
g4
sS'ot'
p44
g8
s.