c__builtin__
set
p0
((lp1
S'x'
p2
aS'lab'
p3
aS'decomptyp'
p4
atp5
Rp6
.(dp0
S'model.dstate'
p1
S'vector'
p2
sS'arg1'
p3
S'object'
p4
sS'graphics'
p5
g4
sS'it'
p6
g2
sS'model.intyp'
p7
S'double'
p8
sS'funtyp'
p9
g8
sS'model.out'
p10
S'matrix'
p11
sS'out'
p12
g2
sS'model.in2'
p13
g8
sS'model.in1'
p14
g8
sS'label'
p15
g2
sS'model.evtin'
p16
g2
sS'model.firing'
p17
g2
sS'function_name'
p18
S'string'
p19
sS'model.sim'
p20
g2
sS'model.evtout'
p21
g2
sS'arg1.graphics'
p22
g4
sS'model.out2'
p23
g11
sS'in1'
p24
g11
sS'model.rpar'
p25
g2
sS'model.outtyp'
p26
g2
sS'model.state'
p27
g2
sS'graphics.exprs'
p28
NsS'model.ipar'
p29
g2
sS'typ'
p30
g2
sS'[model,graphics,ok]'
p31
g8
sS'arg1.model'
p32
NsS'label[9-1]'
p33
g2
sS'ok'
p34
S'boolean'
p35
sS'model.blocktype'
p36
g19
sS'model.dep_ut'
p37
g2
sS'gr_i'
p38
g2
sS'y'
p39
g2
sS'x'
p40
g8
sS'model'
p41
g4
sS'ot'
p42
g8
s.