c__builtin__
set
p0
((lp1
S'x'
p2
aS'model'
p3
aS'decomptyp'
p4
aS'graphics'
p5
atp6
Rp7
.(dp0
S'model.dstate'
p1
S'vector'
p2
sS'graphics'
p3
S'object'
p4
sS'it'
p5
g2
sS'funtyp'
p6
S'double'
p7
sS'model.out'
p8
S'matrix'
p9
sS'out'
p10
g2
sS'model.in2'
p11
g7
sS'model.intyp'
p12
g7
sS'label'
p13
S'vector_string'
p14
sS'model.evtin'
p15
g2
sS'model.firing'
p16
g2
sS'function_name'
p17
S'string'
p18
sS'model.sim'
p19
S'list'
p20
sS'model.evtout'
p21
g2
sS'model.out2'
p22
g9
sS'in1'
p23
g9
sS'model.rpar'
p24
g2
sS'model.outtyp'
p25
g2
sS'model.state'
p26
g2
sS'model.in'
p27
g7
sS'graphics.exprs'
p28
NsS'model.ipar'
p29
g2
sS'typ'
p30
g2
sS'label[9-1]'
p31
g2
sS'ok'
p32
S'boolean'
p33
sS'model.blocktype'
p34
g18
sS'model.dep_ut'
p35
S'vector_boolean'
p36
sS'gr_i'
p37
g2
sS'y'
p38
g2
sS'x'
p39
g2
sS'model'
p40
g4
sS'ot'
p41
g7
s.