c__builtin__
set
p0
((lp1
S'x'
p2
aS'out'
p3
aS'typ'
p4
aS'lab'
p5
aS'l1'
p6
atp7
Rp8
.(dp0
S'model.dstate'
p1
S'vector'
p2
sS'arg1'
p3
S'object'
p4
sS'graphics'
p5
g4
sS'it'
p6
S'double'
p7
sS'funtyp'
p8
g7
sS'model.out'
p9
g7
sS'model.in2'
p10
g7
sS'model.in1'
p11
g7
sS'label'
p12
S'matrix'
p13
sS'model.evtin'
p14
g2
sS'model.firing'
p15
g2
sS'function_name'
p16
S'string'
p17
sS'this.x'
p18
g7
sS'model.sim'
p19
g2
sS'model.evtout'
p20
g2
sS'nin'
p21
g7
sS'arg1.graphics'
p22
g4
sS'model.out2'
p23
g7
sS'model.intyp'
p24
g7
sS'model.rpar'
p25
g2
sS'model.outtyp'
p26
g7
sS'model.state'
p27
g2
sS'graphics.exprs'
p28
NsS'model.ipar'
p29
g2
sS'typ'
p30
g2
sS'[model,graphics,ok]'
p31
g7
sS'arg1.model'
p32
NsS'label[9-1]'
p33
g2
sS'ok'
p34
S'boolean'
p35
sS'model.blocktype'
p36
g17
sS'model.dep_ut'
p37
g2
sS'gr_i'
p38
g2
sS'y'
p39
g2
sS'model'
p40
g7
sS'ot'
p41
g7
sS'nout'
p42
g7
s.