c__builtin__
set
p0
((lp1
S'graphics'
p2
aS'l1'
p3
aS'x'
p4
aS'model'
p5
aS'typ'
p6
aS'out'
p7
atp8
Rp9
.(dp0
S'model.dstate'
p1
S'vector'
p2
sS'graphics'
p3
S'object'
p4
sS'it'
p5
S'double'
p6
sS'funtyp'
p7
g6
sS'model.out'
p8
g6
sS'model.in2'
p9
g6
sS'model.intyp'
p10
g6
sS'label'
p11
S'matrix'
p12
sS'model.evtin'
p13
g2
sS'model.firing'
p14
g2
sS'function_name'
p15
S'string'
p16
sS'model.sim'
p17
S'list'
p18
sS'model.evtout'
p19
g2
sS'nin'
p20
g6
sS'model.out2'
p21
g6
sS'model.rpar'
p22
g2
sS'model.outtyp'
p23
g6
sS'model.state'
p24
g2
sS'model.in'
p25
g6
sS'graphics.exprs'
p26
NsS'model.ipar'
p27
g2
sS'typ'
p28
g2
sS'label[9-1]'
p29
g2
sS'ok'
p30
S'boolean'
p31
sS'model.blocktype'
p32
g16
sS'model.dep_ut'
p33
S'vector_boolean'
p34
sS'gr_i'
p35
g2
sS'y'
p36
g2
sS'x'
p37
g2
sS'model'
p38
g4
sS'ot'
p39
g6
sS'nout'
p40
g6
s.