c__builtin__
set
p0
((lp1
S'graphics'
p2
aS'lab'
p3
aS'l1'
p4
aS'x'
p5
aS'model'
p6
aS'typ'
p7
aS'out'
p8
atp9
Rp10
.(dp0
S'model.dstate'
p1
S'vector'
p2
sS'arg1'
p3
S'object'
p4
sS'graphics'
p5
g4
sS'it'
p6
S'double'
p7
sS'funtyp'
p8
g7
sS'model.out'
p9
g7
sS'model.in2'
p10
g7
sS'model.intyp'
p11
g7
sS'label'
p12
S'matrix'
p13
sS'model.evtin'
p14
g2
sS'model.firing'
p15
g2
sS'function_name'
p16
S'string'
p17
sS'model.sim'
p18
S'list'
p19
sS'model.evtout'
p20
g2
sS'nin'
p21
g7
sS'arg1.graphics'
p22
g4
sS'model.out2'
p23
g7
sS'model.rpar'
p24
g2
sS'model.outtyp'
p25
g7
sS'model.state'
p26
g2
sS'model.in'
p27
g7
sS'graphics.exprs'
p28
NsS'model.ipar'
p29
g2
sS'typ'
p30
g2
sS'arg1.model'
p31
NsS'label[9-1]'
p32
g2
sS'ok'
p33
S'boolean'
p34
sS'model.blocktype'
p35
g17
sS'model.dep_ut'
p36
S'vector_boolean'
p37
sS'gr_i'
p38
g2
sS'y'
p39
g2
sS'x'
p40
g4
sS'model'
p41
g4
sS'ot'
p42
g7
sS'nout'
p43
g7
s.