c__builtin__
set
p0
((lp1
S'x'
p2
aS'typ'
p3
aS'lab'
p4
aS'decomptyp'
p5
atp6
Rp7
.c__builtin__
set
p0
((lp1
tp2
Rp3
.c__builtin__
set
p0
((lp1
tp2
Rp3
.c__builtin__
set
p0
((lp1
tp2
Rp3
.c__builtin__
set
p0
((lp1
tp2
Rp3
.c__builtin__
set
p0
((lp1
tp2
Rp3
.