c__builtin__
set
p0
((lp1
S'x'
p2
aS'model'
p3
aS'typ'
p4
aS'rule'
p5
aS'graphics'
p6
atp7
Rp8
.(dp0
S'graphics'
p1
S'object'
p2
sS'it'
p3
S'double'
p4
sS'funtyp'
p5
g4
sS'model.out'
p6
g4
sS'out'
p7
S'vector'
p8
sS'model.in2'
p9
g4
sS'label'
p10
S'vector_string'
p11
sS'function_name'
p12
S'string'
p13
sS'model.sim'
p14
S'list'
p15
sS'label[2-1]'
p16
g13
sS'model.out2'
p17
g4
sS'in1'
p18
g8
sS'model.in'
p19
g4
sS'graphics.exprs'
p20
NsS'typ'
p21
g8
sS'ok'
p22
S'boolean'
p23
sS'model.dep_ut'
p24
S'vector_boolean'
p25
sS'gr_i'
p26
g8
sS'y'
p27
g8
sS'x'
p28
g8
sS'model'
p29
g2
sS'ot'
p30
g4
s.