c__builtin__
set
p0
((lp1
S'x'
p2
aS'model'
p3
aS'typ'
p4
aS'rule'
p5
atp6
Rp7
.(dp0
S'arg1'
p1
S'object'
p2
sS'graphics'
p3
g2
sS'it'
p4
S'double'
p5
sS'funtyp'
p6
g5
sS'model.out'
p7
g5
sS'out'
p8
S'vector'
p9
sS'model.in2'
p10
g5
sS'model.in1'
p11
g5
sS'label'
p12
g9
sS'[this.model,graphics,ok]'
p13
g5
sS'function_name'
p14
S'string'
p15
sS'model.sim'
p16
S'list'
p17
sS'arg1.graphics'
p18
g2
sS'label[2-1]'
p19
g15
sS'model.out2'
p20
g5
sS'in1'
p21
g9
sS'graphics.exprs'
p22
NsS'typ'
p23
g9
sS'arg1.model'
p24
g2
sS'ok'
p25
S'boolean'
p26
sS'model.dep_ut'
p27
g9
sS'gr_i'
p28
g9
sS'y'
p29
g9
sS'x'
p30
g5
sS'model'
p31
g2
sS'ot'
p32
g5
s.