c__builtin__
set
p0
((lp1
S'rule'
p2
aS'exprs'
p3
aS'gr_i'
p4
aS'graphics'
p5
aS'x'
p6
aS'model'
p7
aS'typ'
p8
atp9
Rp10
.(dp0
S'arg1'
p1
S'object'
p2
sS'graphics'
p3
g2
sS'it'
p4
S'double'
p5
sS'funtyp'
p6
g5
sS'model.out'
p7
g5
sS'out'
p8
S'vector'
p9
sS'model.in2'
p10
g5
sS'label'
p11
S'vector_string'
p12
sS'function_name'
p13
S'string'
p14
sS'model.sim'
p15
S'list'
p16
sS'arg1.graphics'
p17
g2
sS'label[2-1]'
p18
g14
sS'model.out2'
p19
g5
sS'in1'
p20
g9
sS'model.in'
p21
g5
sS'graphics.exprs'
p22
NsS'typ'
p23
g9
sS'arg1.model'
p24
g2
sS'ok'
p25
S'boolean'
p26
sS'model.dep_ut'
p27
S'vector_boolean'
p28
sS'gr_i'
p29
g9
sS'y'
p30
g9
sS'x'
p31
g2
sS'model'
p32
g2
sS'ot'
p33
g5
s.