c__builtin__
set
p0
((lp1
S'rule'
p2
aS'exprs'
p3
aS'gr_i'
p4
aS'graphics'
p5
aS'x'
p6
aS'model'
p7
aS'typ'
p8
atp9
Rp10
.(dp0
S'arg1'
p1
S'object'
p2
sS'graphics'
p3
g2
sS'it'
p4
S'double'
p5
sS'funtyp'
p6
g5
sS'model.out'
p7
g5
sS'out'
p8
S'vector'
p9
sS'model.in2'
p10
g5
sS'label'
p11
g9
sS'function_name'
p12
S'string'
p13
sS'model.sim'
p14
S'list'
p15
sS'arg1.graphics'
p16
g2
sS'label[2-1]'
p17
g13
sS'model.out2'
p18
g5
sS'in1'
p19
g9
sS'model.in'
p20
g5
sS'graphics.exprs'
p21
NsS'typ'
p22
g9
sS'arg1.model'
p23
g2
sS'ok'
p24
S'boolean'
p25
sS'model.dep_ut'
p26
S'vector_boolean'
p27
sS'gr_i'
p28
g9
sS'y'
p29
g9
sS'x'
p30
g2
sS'model'
p31
g2
sS'ot'
p32
g5
s.