c__builtin__
set
p0
((lp1
S'x'
p2
aS'typ'
p3
aS'rule'
p4
atp5
Rp6
.(dp0
S'arg1'
p1
S'object'
p2
sS'graphics'
p3
g2
sS'it'
p4
S'double'
p5
sS'funtyp'
p6
g5
sS'model.out'
p7
g5
sS'out'
p8
S'vector'
p9
sS'model.in2'
p10
g5
sS'model.in1'
p11
g5
sS'label'
p12
g9
sS'function_name'
p13
S'string'
p14
sS'this.x'
p15
g5
sS'model.sim'
p16
g9
sS'arg1.graphics'
p17
g2
sS'label[2-1]'
p18
g5
sS'model.out2'
p19
g5
sS'in1'
p20
g9
sS'graphics.exprs'
p21
NsS'typ'
p22
g9
sS'[model,graphics,ok]'
p23
g5
sS'arg1.model'
p24
g2
sS'ok'
p25
S'boolean'
p26
sS'model.dep_ut'
p27
g9
sS'gr_i'
p28
g9
sS'y'
p29
g9
sS'model'
p30
g5
sS'ot'
p31
g5
s.