c__builtin__
set
p0
((lp1
S'x'
p2
aS'model'
p3
aS'typ'
p4
aS'rule'
p5
atp6
Rp7
.(dp0
S'arg1'
p1
S'object'
p2
sS'graphics'
p3
g2
sS'it'
p4
S'double'
p5
sS'funtyp'
p6
g5
sS'model.out'
p7
g5
sS'out'
p8
S'vector'
p9
sS'model.in2'
p10
g5
sS'model.in1'
p11
g5
sS'label'
p12
g9
sS'function_name'
p13
S'string'
p14
sS'model.sim'
p15
S'list'
p16
sS'arg1.graphics'
p17
g2
sS'label[2-1]'
p18
g14
sS'model.out2'
p19
g5
sS'in1'
p20
g9
sS'graphics.exprs'
p21
NsS'typ'
p22
g9
sS'arg1.model'
p23
g2
sS'ok'
p24
S'boolean'
p25
sS'model.dep_ut'
p26
g9
sS'gr_i'
p27
g9
sS'y'
p28
g9
sS'x'
p29
g5
sS'model'
p30
g2
sS'ot'
p31
g5
s.