c__builtin__
set
p0
((lp1
S'x'
p2
aS'model'
p3
atp4
Rp5
.(dp0
S'model.dstate'
p1
S'vector'
p2
sS'funtyp'
p3
S'double'
p4
sS'model.out'
p5
g4
sS'model.in2'
p6
g4
sS'model.in1'
p7
g4
sS'label'
p8
g2
sS'model.evtin'
p9
g2
sS'model.firing'
p10
g2
sS'function_name'
p11
S'string'
p12
sS'model.sim'
p13
g2
sS'model.evtout'
p14
g2
sS'model.out2'
p15
g4
sS'model.intyp'
p16
g4
sS'model.rpar'
p17
g2
sS'model.outtyp'
p18
g4
sS'model.state'
p19
g2
sS'model.ipar'
p20
g2
sS'typ'
p21
g2
sS'model.blocktype'
p22
g12
sS'model.dep_ut'
p23
g2
sS'gr_i'
p24
g2
sS'y'
p25
g2
sS'x'
p26
g4
sS'model'
p27
S'object'
p28
s.