c__builtin__
set
p0
((lp1
S'x'
p2
aS'model'
p3
aS'decomptyp'
p4
aS'graphics'
p5
atp6
Rp7
.(dp0
S'model.dstate'
p1
S'vector'
p2
sS'graphics'
p3
S'object'
p4
sS'it'
p5
g2
sS'funtyp'
p6
S'double'
p7
sS'model.out'
p8
S'matrix'
p9
sS'out'
p10
g2
sS'model.in2'
p11
g7
sS'model.intyp'
p12
g7
sS'label'
p13
S'string'
p14
sS'model.evtin'
p15
g2
sS'model.firing'
p16
g2
sS'function_name'
p17
g14
sS'model.sim'
p18
S'list'
p19
sS'model.evtout'
p20
g2
sS'model.out2'
p21
g9
sS'in1'
p22
g9
sS'model.rpar'
p23
g2
sS'model.outtyp'
p24
g2
sS'model.state'
p25
g2
sS'model.in'
p26
g7
sS'graphics.exprs'
p27
NsS'model.ipar'
p28
g2
sS'typ'
p29
g2
sS'label[9-1]'
p30
g2
sS'ok'
p31
S'boolean'
p32
sS'model.blocktype'
p33
g14
sS'model.dep_ut'
p34
S'vector_boolean'
p35
sS'gr_i'
p36
g2
sS'y'
p37
g2
sS'x'
p38
g2
sS'model'
p39
g4
sS'ot'
p40
g7
s.