c__builtin__
set
p0
((lp1
S'x'
p2
atp3
Rp4
.(dp0
S'model.dstate'
p1
S'vector'
p2
sS'funtyp'
p3
S'double'
p4
sS'model.out'
p5
g4
sS'model.in2'
p6
g4
sS'model.in1'
p7
g4
sS'label'
p8
g2
sS'model.evtin'
p9
g2
sS'model.firing'
p10
g2
sS'function_name'
p11
S'string'
p12
sS'this.x'
p13
g4
sS'model.sim'
p14
g2
sS'model.evtout'
p15
g2
sS'model.out2'
p16
g4
sS'model.intyp'
p17
g4
sS'model.rpar'
p18
g2
sS'model.outtyp'
p19
g4
sS'model.state'
p20
g2
sS'model.ipar'
p21
g2
sS'typ'
p22
g2
sS'model.blocktype'
p23
g12
sS'model.dep_ut'
p24
g2
sS'gr_i'
p25
g2
sS'y'
p26
g2
sS'model'
p27
g4
s.