c__builtin__
set
p0
((lp1
S'x'
p2
aS'model'
p3
aS'gr_i'
p4
aS'exprs'
p5
aS'graphics'
p6
atp7
Rp8
.(dp0
S'model.dstate'
p1
S'vector'
p2
sS'funtyp'
p3
S'double'
p4
sS'model.out'
p5
g4
sS'model.in2'
p6
g4
sS'model.intyp'
p7
g4
sS'label'
p8
g2
sS'model.evtin'
p9
g2
sS'model.firing'
p10
g2
sS'function_name'
p11
S'string'
p12
sS'model.sim'
p13
S'list'
p14
sS'model.evtout'
p15
g2
sS'model.out2'
p16
g4
sS'model.rpar'
p17
g2
sS'model.outtyp'
p18
g4
sS'model.state'
p19
g2
sS'model.in'
p20
g4
sS'model.ipar'
p21
g2
sS'typ'
p22
g2
sS'model.blocktype'
p23
g12
sS'model.dep_ut'
p24
S'vector_boolean'
p25
sS'gr_i'
p26
g2
sS'y'
p27
g2
sS'x'
p28
NsS'model'
p29
S'object'
p30
s.