c__builtin__
set
p0
((lp1
S'x'
p2
aS'tpe'
p3
aS'mod'
p4
atp5
Rp6
.(dp0
S'model.dstate'
p1
S'vector'
p2
sS'arg1'
p3
S'object'
p4
sS'graphics'
p5
g4
sS'it'
p6
g2
sS'model.intyp'
p7
g2
sS'funtyp'
p8
S'double'
p9
sS'model.out'
p10
g9
sS'out'
p11
g2
sS'model.in2'
p12
S'matrix'
p13
sS'model.in1'
p14
g13
sS'label'
p15
g13
sS'model.evtin'
p16
g2
sS'model.firing'
p17
g2
sS'function_name'
p18
S'string'
p19
sS'model.sim'
p20
g2
sS'model.evtout'
p21
g2
sS'arg1.graphics'
p22
g4
sS'model.out2'
p23
g9
sS'in1'
p24
g2
sS'model.rpar'
p25
g2
sS'model.outtyp'
p26
g9
sS'model.state'
p27
g2
sS'graphics.exprs'
p28
NsS'model.ipar'
p29
g13
sS'typ'
p30
g2
sS'[model,graphics,ok]'
p31
g9
sS'arg1.model'
p32
g4
sS'label[9-1]'
p33
g2
sS'model.blocktype'
p34
g19
sS'model.dep_ut'
p35
g2
sS'gr_i'
p36
g2
sS'y'
p37
g2
sS'x'
p38
g9
sS'model'
p39
g4
sS'ot'
p40
g9
s.