c__builtin__
set
p0
((lp1
S'x'
p2
aS'model'
p3
aS'mod'
p4
aS'tpe'
p5
aS'graphics'
p6
atp7
Rp8
.(dp0
S'model.dstate'
p1
S'vector'
p2
sS'graphics'
p3
S'object'
p4
sS'it'
p5
g2
sS'funtyp'
p6
S'double'
p7
sS'model.out'
p8
g7
sS'out'
p9
g2
sS'model.in2'
p10
S'matrix'
p11
sS'model.intyp'
p12
g2
sS'label'
p13
g11
sS'model.evtin'
p14
g2
sS'model.firing'
p15
g2
sS'function_name'
p16
S'string'
p17
sS'model.sim'
p18
S'list'
p19
sS'model.evtout'
p20
g2
sS'model.out2'
p21
g7
sS'in1'
p22
g2
sS'model.rpar'
p23
g2
sS'model.outtyp'
p24
g7
sS'model.state'
p25
g2
sS'model.in'
p26
g11
sS'graphics.exprs'
p27
NsS'model.ipar'
p28
g11
sS'typ'
p29
g2
sS'label[9-1]'
p30
g2
sS'model.blocktype'
p31
g17
sS'model.dep_ut'
p32
S'vector_boolean'
p33
sS'gr_i'
p34
g2
sS'y'
p35
g2
sS'x'
p36
g2
sS'model'
p37
g4
sS'ot'
p38
g7
s.