c__builtin__
set
p0
((lp1
S'x'
p2
aS'model'
p3
aS'tpe'
p4
aS'mod'
p5
atp6
Rp7
.(dp0
S'model.dstate'
p1
S'vector'
p2
sS'arg1'
p3
S'object'
p4
sS'graphics'
p5
g4
sS'it'
p6
g2
sS'funtyp'
p7
S'double'
p8
sS'model.out'
p9
g8
sS'out'
p10
g2
sS'model.in2'
p11
S'matrix'
p12
sS'model.intyp'
p13
g2
sS'label'
p14
g12
sS'model.evtin'
p15
g2
sS'model.firing'
p16
g2
sS'function_name'
p17
S'string'
p18
sS'model.sim'
p19
S'list'
p20
sS'model.evtout'
p21
g2
sS'arg1.graphics'
p22
g4
sS'model.out2'
p23
g8
sS'in1'
p24
g2
sS'model.rpar'
p25
g2
sS'model.in1'
p26
g12
sS'model.outtyp'
p27
g8
sS'model.state'
p28
g2
sS'graphics.exprs'
p29
NsS'model.ipar'
p30
g12
sS'typ'
p31
g2
sS'arg1.model'
p32
g4
sS'label[9-1]'
p33
g2
sS'model.blocktype'
p34
g18
sS'model.dep_ut'
p35
g2
sS'gr_i'
p36
g2
sS'y'
p37
g2
sS'x'
p38
g8
sS'model'
p39
g4
sS'ot'
p40
g8
s.