c__builtin__
set
p0
((lp1
S'x'
p2
aS'model'
p3
aS'typ'
p4
aS'inp'
p5
aS'graphics'
p6
atp7
Rp8
.(dp0
S'model.dstate'
p1
S'vector'
p2
sS'graphics'
p3
S'object'
p4
sS'it'
p5
S'double'
p6
sS'funtyp'
p7
g6
sS'model.out'
p8
g6
sS'out'
p9
g2
sS'model.in2'
p10
g6
sS'model.intyp'
p11
g6
sS'label'
p12
S'matrix'
p13
sS'model.evtin'
p14
g2
sS'model.firing'
p15
g2
sS'function_name'
p16
S'string'
p17
sS'model.sim'
p18
S'list'
p19
sS'model.evtout'
p20
g2
sS'model.out2'
p21
g6
sS'in1'
p22
g2
sS'model.rpar'
p23
g2
sS'model.outtyp'
p24
g6
sS'model.state'
p25
g2
sS'model.in'
p26
g6
sS'graphics.exprs'
p27
NsS'model.ipar'
p28
g2
sS'typ'
p29
g2
sS'label[9-1]'
p30
g2
sS'ok'
p31
S'boolean'
p32
sS'model.blocktype'
p33
g17
sS'model.dep_ut'
p34
S'vector_boolean'
p35
sS'gr_i'
p36
g2
sS'y'
p37
g2
sS'x'
p38
g2
sS'model'
p39
g4
sS'ot'
p40
g6
s.