c__builtin__
set
p0
((lp1
S'x'
p2
aS'model'
p3
aS'typ'
p4
aS'inp'
p5
aS'graphics'
p6
atp7
Rp8
.(dp0
S'model.dstate'
p1
S'vector'
p2
sS'arg1'
p3
S'object'
p4
sS'graphics'
p5
g4
sS'it'
p6
S'double'
p7
sS'model.intyp'
p8
g7
sS'funtyp'
p9
g7
sS'model.out'
p10
g7
sS'out'
p11
g2
sS'model.in2'
p12
g7
sS'model.in1'
p13
g7
sS'label'
p14
S'matrix'
p15
sS'model.evtin'
p16
g2
sS'model.firing'
p17
g2
sS'function_name'
p18
S'string'
p19
sS'model.sim'
p20
S'list'
p21
sS'model.evtout'
p22
g2
sS'arg1.graphics'
p23
g4
sS'model.out2'
p24
g7
sS'in1'
p25
g2
sS'model.rpar'
p26
g2
sS'model.outtyp'
p27
g7
sS'model.state'
p28
g2
sS'graphics.exprs'
p29
NsS'model.ipar'
p30
g2
sS'typ'
p31
g2
sS'arg1.model'
p32
g4
sS'label[9-1]'
p33
g2
sS'ok'
p34
S'boolean'
p35
sS'model.blocktype'
p36
g19
sS'model.dep_ut'
p37
g2
sS'gr_i'
p38
g2
sS'y'
p39
g2
sS'x'
p40
g7
sS'model'
p41
g4
sS'ot'
p42
g7
s.