c__builtin__
set
p0
((lp1
S'exprs'
p2
aS'gr_i'
p3
aS'graphics'
p4
aS'x'
p5
aS'model'
p6
aS'typ'
p7
atp8
Rp9
.(dp0
S'arg1'
p1
S'object'
p2
sS'graphics'
p3
g2
sS'it'
p4
S'vector'
p5
sS'funtyp'
p6
S'double'
p7
sS'model.out'
p8
g7
sS'out'
p9
g5
sS'model.in2'
p10
g7
sS'model.intyp'
p11
g7
sS'label'
p12
g5
sS'function_name'
p13
S'string'
p14
sS'model.sim'
p15
S'list'
p16
sS'arg1.graphics'
p17
g2
sS'model.out2'
p18
g7
sS'in1'
p19
g5
sS'model.outtyp'
p20
g7
sS'model.in'
p21
g7
sS'graphics.exprs'
p22
NsS'typ'
p23
g5
sS'arg1.model'
p24
g2
sS'ok'
p25
S'boolean'
p26
sS'model.dep_ut'
p27
g5
sS'gr_i'
p28
g5
sS'y'
p29
g5
sS'x'
p30
g7
sS'model'
p31
g2
sS'ot'
p32
g5
s.