c__builtin__
set
p0
((lp1
S'x'
p2
aS'model'
p3
aS'typ'
p4
atp5
Rp6
.(dp0
S'arg1'
p1
S'object'
p2
sS'graphics'
p3
g2
sS'it'
p4
S'vector'
p5
sS'model.intyp'
p6
S'double'
p7
sS'funtyp'
p8
g7
sS'model.out'
p9
g7
sS'out'
p10
g5
sS'model.in2'
p11
g7
sS'model.in1'
p12
g7
sS'label'
p13
g5
sS'function_name'
p14
S'string'
p15
sS'model.sim'
p16
S'list'
p17
sS'arg1.graphics'
p18
g2
sS'model.out2'
p19
g7
sS'in1'
p20
g5
sS'model.outtyp'
p21
g7
sS'graphics.exprs'
p22
NsS'typ'
p23
g5
sS'arg1.model'
p24
g2
sS'ok'
p25
S'boolean'
p26
sS'model.dep_ut'
p27
g5
sS'gr_i'
p28
g5
sS'y'
p29
g5
sS'x'
p30
g7
sS'model'
p31
g2
sS'ot'
p32
g5
s.