c__builtin__
set
p0
((lp1
S'exprs'
p2
aS'gr_i'
p3
aS'graphics'
p4
aS'x'
p5
aS'model'
p6
aS'typ'
p7
atp8
Rp9
.(dp0
S'arg1'
p1
S'object'
p2
sS'graphics'
p3
g2
sS'it'
p4
S'vector'
p5
sS'funtyp'
p6
S'double'
p7
sS'model.out'
p8
g7
sS'out'
p9
g5
sS'model.in2'
p10
g7
sS'model.intyp'
p11
g7
sS'label'
p12
S'vector_string'
p13
sS'function_name'
p14
S'string'
p15
sS'model.sim'
p16
S'list'
p17
sS'arg1.graphics'
p18
g2
sS'model.out2'
p19
g7
sS'in1'
p20
g5
sS'model.outtyp'
p21
g7
sS'model.in'
p22
g7
sS'graphics.exprs'
p23
NsS'typ'
p24
g5
sS'arg1.model'
p25
g2
sS'ok'
p26
S'boolean'
p27
sS'model.dep_ut'
p28
S'vector_boolean'
p29
sS'gr_i'
p30
g5
sS'y'
p31
g5
sS'x'
p32
g2
sS'model'
p33
g2
sS'ot'
p34
g5
s.