c__builtin__
set
p0
((lp1
S'x'
p2
aS'model'
p3
aS'typ'
p4
aS'graphics'
p5
atp6
Rp7
.(dp0
S'graphics'
p1
S'object'
p2
sS'it'
p3
S'vector'
p4
sS'funtyp'
p5
S'double'
p6
sS'model.out'
p7
g6
sS'out'
p8
g4
sS'model.in2'
p9
g6
sS'model.intyp'
p10
g6
sS'label'
p11
S'vector_string'
p12
sS'function_name'
p13
S'string'
p14
sS'model.sim'
p15
S'list'
p16
sS'model.out2'
p17
g6
sS'in1'
p18
g4
sS'y'
p19
g4
sS'model.in'
p20
g6
sS'graphics.exprs'
p21
NsS'typ'
p22
g4
sS'ok'
p23
S'boolean'
p24
sS'model.dep_ut'
p25
S'vector_boolean'
p26
sS'gr_i'
p27
g4
sS'model.outtyp'
p28
g6
sS'x'
p29
g4
sS'model'
p30
g2
sS'ot'
p31
g4
s.