c__builtin__
set
p0
((lp1
S'x'
p2
aS'typ'
p3
atp4
Rp5
.(dp0
S'arg1'
p1
S'object'
p2
sS'graphics'
p3
g2
sS'it'
p4
S'vector'
p5
sS'model.intyp'
p6
S'double'
p7
sS'funtyp'
p8
g7
sS'model.out'
p9
g7
sS'out'
p10
g5
sS'model.in2'
p11
g7
sS'model.in1'
p12
g7
sS'label'
p13
g5
sS'function_name'
p14
S'string'
p15
sS'this.x'
p16
g7
sS'model.sim'
p17
g5
sS'arg1.graphics'
p18
g2
sS'model.out2'
p19
g7
sS'in1'
p20
g5
sS'model.outtyp'
p21
g7
sS'graphics.exprs'
p22
NsS'typ'
p23
g5
sS'[model,graphics,ok]'
p24
g7
sS'arg1.model'
p25
g2
sS'ok'
p26
S'boolean'
p27
sS'model.dep_ut'
p28
g5
sS'gr_i'
p29
g5
sS'y'
p30
g5
sS'model'
p31
g2
sS'ot'
p32
g5
s.