c__builtin__
set
p0
((lp1
S'a'
p2
aS'c'
p3
aS'b'
p4
aS'd'
p5
aS'inp'
p6
aS'graphics'
p7
aS'x'
p8
aS'model'
p9
aS'typ'
p10
atp11
Rp12
.(dp0
S'model.dstate'
p1
S'vector'
p2
sS'graphics'
p3
S'object'
p4
sS'it'
p5
S'double'
p6
sS'funtyp'
p7
g6
sS'model.out'
p8
g6
sS'out'
p9
S'vector_string'
p10
sS'model.in2'
p11
g6
sS'model.intyp'
p12
g6
sS'label'
p13
S'matrix'
p14
sS'model.evtin'
p15
g2
sS'model.firing'
p16
g2
sS'function_name'
p17
S'string'
p18
sS'model.sim'
p19
S'list'
p20
sS'model.evtout'
p21
g2
sS'model.out2'
p22
g6
sS'in1'
p23
g2
sS'model.rpar'
p24
g2
sS'model.outtyp'
p25
g6
sS'model.state'
p26
g2
sS'model.in'
p27
g6
sS'graphics.exprs'
p28
NsS'model.ipar'
p29
g14
sS'typ'
p30
g2
sS'label[6-1]'
p31
g18
sS'ok'
p32
S'boolean'
p33
sS'model.blocktype'
p34
g18
sS'model.dep_ut'
p35
S'vector_boolean'
p36
sS'gr_i'
p37
g2
sS'y'
p38
g2
sS'x'
p39
g2
sS'model'
p40
g4
sS'ot'
p41
g6
s.