c__builtin__
set
p0
((lp1
S'a'
p2
aS'c'
p3
aS'b'
p4
aS'd'
p5
aS'inp'
p6
aS'x'
p7
aS'model'
p8
aS'typ'
p9
atp10
Rp11
.(dp0
S'model.dstate'
p1
S'vector'
p2
sS'arg1'
p3
S'object'
p4
sS'graphics'
p5
g4
sS'it'
p6
S'double'
p7
sS'model.intyp'
p8
g7
sS'funtyp'
p9
g7
sS'model.out'
p10
g7
sS'out'
p11
g2
sS'model.in2'
p12
g7
sS'model.in1'
p13
g7
sS'label'
p14
S'matrix'
p15
sS'model.evtin'
p16
g2
sS'model.firing'
p17
g2
sS'function_name'
p18
S'string'
p19
sS'model.sim'
p20
S'list'
p21
sS'model.evtout'
p22
g2
sS'arg1.graphics'
p23
g4
sS'[this.model,graphics,ok]'
p24
g7
sS'model.out2'
p25
g7
sS'in1'
p26
g2
sS'model.rpar'
p27
g2
sS'model.outtyp'
p28
g7
sS'model.state'
p29
g2
sS'graphics.exprs'
p30
NsS'model.ipar'
p31
g15
sS'typ'
p32
g2
sS'label[6-1]'
p33
g19
sS'arg1.model'
p34
NsS'ok'
p35
S'boolean'
p36
sS'model.blocktype'
p37
g19
sS'model.dep_ut'
p38
g2
sS'gr_i'
p39
g2
sS'y'
p40
g2
sS'x'
p41
g7
sS'model'
p42
g4
sS'ot'
p43
g7
s.