c__builtin__
set
p0
((lp1
S'a'
p2
aS'c'
p3
aS'b'
p4
aS'd'
p5
aS'inp'
p6
aS'exprs'
p7
aS'gr_i'
p8
aS'graphics'
p9
aS'x'
p10
aS'model'
p11
aS'typ'
p12
atp13
Rp14
.(dp0
S'model.dstate'
p1
S'vector'
p2
sS'arg1'
p3
S'object'
p4
sS'graphics'
p5
g4
sS'it'
p6
S'double'
p7
sS'funtyp'
p8
g7
sS'model.out'
p9
g7
sS'out'
p10
S'vector_string'
p11
sS'model.in2'
p12
g7
sS'model.intyp'
p13
g7
sS'label'
p14
S'matrix'
p15
sS'model.evtin'
p16
g2
sS'model.firing'
p17
g2
sS'function_name'
p18
S'string'
p19
sS'model.sim'
p20
S'list'
p21
sS'model.evtout'
p22
g2
sS'arg1.graphics'
p23
g4
sS'model.out2'
p24
g7
sS'in1'
p25
g2
sS'model.rpar'
p26
g2
sS'model.outtyp'
p27
g7
sS'model.state'
p28
g2
sS'model.in'
p29
g7
sS'graphics.exprs'
p30
NsS'model.ipar'
p31
g15
sS'typ'
p32
g2
sS'label[6-1]'
p33
g19
sS'arg1.model'
p34
NsS'ok'
p35
S'boolean'
p36
sS'model.blocktype'
p37
g19
sS'model.dep_ut'
p38
S'vector_boolean'
p39
sS'gr_i'
p40
g2
sS'y'
p41
g2
sS'x'
p42
g4
sS'model'
p43
g4
sS'ot'
p44
g7
s.