c__builtin__
set
p0
((lp1
S'A'
p2
aS'zs1'
p3
aS'zs2'
p4
aS'z0'
p5
aS'T0'
p6
aS'ze2'
p7
aS'ze1'
p8
aS'p_rho'
p9
aS'x'
p10
aS'model'
p11
aS'Patm'
p12
atp13
Rp14
.(dp0
S'arg1'
p1
S'object'
p2
sS'graphics'
p3
g2
sS'mo.model'
p4
S'string'
p5
sS'x.model'
p6
NsS'model.out'
p7
S'double'
p8
sS'out'
p9
g8
sS'model.in1'
p10
g8
sS'zs1'
p11
g8
sS'zs2'
p12
g8
sS'x.graphics'
p13
g2
sS'z0'
p14
g8
sS'mo.inputs'
p15
S'vector'
p16
sS'x.graphics.in_implicit'
p17
S'matrix'
p18
sS'mo.parameters'
p19
S'list'
p20
sS'Patm'
p21
g8
sS'A'
p22
g8
sS'model.sim'
p23
g5
sS'model.equations'
p24
g8
sS'model.equations.parameters[2]'
p25
g20
sS'mo.outputs'
p26
g16
sS'x.graphics.out_implicit'
p27
g18
sS'in1'
p28
g8
sS'model.rpar'
p29
g18
sS'ze2'
p30
g8
sS'ze1'
p31
g8
sS'T0'
p32
g8
sS'graphics.exprs'
p33
NsS'typ'
p34
g16
sS'model.blocktype'
p35
g5
sS'mo'
p36
g2
sS'model.dep_ut'
p37
g16
sS'exprs'
p38
g18
sS'gr_i'
p39
g16
sS'p_rho'
p40
g8
sS'y'
p41
g16
sS'x'
p42
g8
sS'model'
p43
g2
s.