c__builtin__
set
p0
((lp1
S'A'
p2
aS'zs1'
p3
aS'zs2'
p4
aS'z0'
p5
aS'T0'
p6
aS'ze2'
p7
aS'ze1'
p8
aS'p_rho'
p9
aS'x'
p10
aS'Patm'
p11
atp12
Rp13
.(dp0
S'arg1'
p1
S'object'
p2
sS'graphics'
p3
g2
sS'mo.model'
p4
S'string'
p5
sS'x.model'
p6
NsS'model.out'
p7
S'double'
p8
sS'out'
p9
g8
sS'model.in1'
p10
g8
sS'zs1'
p11
g8
sS'zs2'
p12
g8
sS'x.graphics'
p13
g2
sS'z0'
p14
g8
sS'mo.inputs'
p15
S'vector'
p16
sS'x.graphics.in_implicit'
p17
S'matrix'
p18
sS'mo.parameters'
p19
g16
sS'Patm'
p20
g8
sS'A'
p21
g8
sS'model.sim'
p22
g5
sS'model.equations'
p23
g8
sS'mo.outputs'
p24
g16
sS'x.graphics.out_implicit'
p25
g18
sS'in1'
p26
g8
sS'model.rpar'
p27
g18
sS'ze2'
p28
g8
sS'ze1'
p29
g8
sS'T0'
p30
g8
sS'graphics.exprs'
p31
NsS'typ'
p32
g16
sS'model.blocktype'
p33
g5
sS'mo'
p34
g2
sS'model.dep_ut'
p35
g16
sS'model.equations.parameters[2-1]'
p36
g16
sS'exprs'
p37
g18
sS'gr_i'
p38
g16
sS'p_rho'
p39
g8
sS'y'
p40
g16
sS'x'
p41
g8
sS'model'
p42
g2
s.