c__builtin__
set
p0
((lp1
S'A'
p2
aS'zs1'
p3
aS'zs2'
p4
aS'z0'
p5
aS'T0'
p6
aS'ze2'
p7
aS'exprs'
p8
aS'ze1'
p9
aS'gr_i'
p10
aS'p_rho'
p11
aS'graphics'
p12
aS'x'
p13
aS'model'
p14
aS'Patm'
p15
atp16
Rp17
.(dp0
S'arg1'
p1
S'object'
p2
sS'graphics'
p3
g2
sS'mo.model'
p4
S'string'
p5
sS'x.model'
p6
NsS'model.out'
p7
S'double'
p8
sS'out'
p9
g8
sS'model.in1'
p10
g8
sS'zs1'
p11
g8
sS'zs2'
p12
g8
sS'x.graphics'
p13
g2
sS'z0'
p14
g8
sS'mo.inputs'
p15
S'vector'
p16
sS'x.graphics.in_implicit'
p17
S'matrix'
p18
sS'mo.parameters'
p19
S'list'
p20
sS'Patm'
p21
g8
sS'A'
p22
g8
sS'model.sim'
p23
g5
sS'model.equations'
p24
g8
sS'mo.outputs'
p25
g16
sS'x.graphics.out_implicit'
p26
g18
sS'in1'
p27
g8
sS'model.rpar'
p28
g18
sS'ze2'
p29
g8
sS'ze1'
p30
g8
sS'T0'
p31
g8
sS'graphics.exprs'
p32
NsS'typ'
p33
g16
sS'model.blocktype'
p34
g5
sS'mo'
p35
g2
sS'model.dep_ut'
p36
g16
sS'model.equations.parameters[2-1]'
p37
g20
sS'exprs'
p38
g18
sS'gr_i'
p39
g16
sS'p_rho'
p40
g8
sS'y'
p41
g16
sS'x'
p42
g8
sS'model'
p43
g2
s.