c__builtin__
set
p0
((lp1
S'A'
p2
aS'zs1'
p3
aS'zs2'
p4
aS'z0'
p5
aS'T0'
p6
aS'ze2'
p7
aS'ze1'
p8
aS'p_rho'
p9
aS'graphics'
p10
aS'x'
p11
aS'model'
p12
aS'Patm'
p13
atp14
Rp15
.(dp0
S'graphics'
p1
S'object'
p2
sS'mo.model'
p3
S'string'
p4
sS'x.model'
p5
NsS'model.out'
p6
S'double'
p7
sS'out'
p8
g7
sS'zs1'
p9
g7
sS'zs2'
p10
g7
sS'x.graphics'
p11
g2
sS'typ'
p12
S'vector'
p13
sS'mo.inputs'
p14
S'vector_string'
p15
sS'x.graphics.in_implicit'
p16
S'matrix'
p17
sS'mo.parameters'
p18
S'list'
p19
sS'Patm'
p20
g7
sS'A'
p21
g7
sS'model.sim'
p22
g4
sS'model.equations'
p23
g7
sS'mo.outputs'
p24
g15
sS'x.graphics.out_implicit'
p25
g17
sS'in1'
p26
g7
sS'model.rpar'
p27
g17
sS'ze2'
p28
g7
sS'ze1'
p29
g7
sS'T0'
p30
g7
sS'model.in'
p31
g7
sS'graphics.exprs'
p32
NsS'z0'
p33
g7
sS'model.blocktype'
p34
g4
sS'mo'
p35
g2
sS'model.dep_ut'
p36
S'vector_boolean'
p37
sS'model.equations.parameters[2-1]'
p38
g19
sS'exprs'
p39
g17
sS'gr_i'
p40
g13
sS'p_rho'
p41
g7
sS'y'
p42
g13
sS'x'
p43
g13
sS'model'
p44
g2
s.