c__builtin__
set
p0
((lp1
S'A'
p2
aS'zs1'
p3
aS'zs2'
p4
aS'z0'
p5
aS'T0'
p6
aS'ze2'
p7
aS'exprs'
p8
aS'ze1'
p9
aS'gr_i'
p10
aS'p_rho'
p11
aS'graphics'
p12
aS'x'
p13
aS'model'
p14
aS'Patm'
p15
atp16
Rp17
.(dp0
S'arg1'
p1
S'object'
p2
sS'graphics'
p3
g2
sS'mo.model'
p4
S'string'
p5
sS'x.model'
p6
NsS'model.out'
p7
S'double'
p8
sS'out'
p9
g8
sS'zs1'
p10
g8
sS'zs2'
p11
g8
sS'x.graphics'
p12
g2
sS'z0'
p13
g8
sS'mo.inputs'
p14
S'vector_string'
p15
sS'x.graphics.in_implicit'
p16
S'matrix'
p17
sS'mo.parameters'
p18
S'list'
p19
sS'Patm'
p20
g8
sS'A'
p21
g8
sS'model.sim'
p22
g5
sS'model.equations'
p23
g8
sS'mo.outputs'
p24
g15
sS'x.graphics.out_implicit'
p25
g17
sS'in1'
p26
g8
sS'model.rpar'
p27
g17
sS'ze2'
p28
g8
sS'ze1'
p29
g8
sS'T0'
p30
g8
sS'model.in'
p31
g8
sS'graphics.exprs'
p32
NsS'typ'
p33
S'vector'
p34
sS'model.blocktype'
p35
g5
sS'mo'
p36
g2
sS'model.dep_ut'
p37
S'vector_boolean'
p38
sS'model.equations.parameters[2-1]'
p39
g19
sS'exprs'
p40
g17
sS'gr_i'
p41
g34
sS'p_rho'
p42
g8
sS'y'
p43
g34
sS'x'
p44
NsS'model'
p45
g2
s.