c__builtin__
set
p0
((lp1
S'A'
p2
aS'zs1'
p3
aS'zs2'
p4
aS'z0'
p5
aS'T0'
p6
aS'ze2'
p7
aS'ze1'
p8
aS'p_rho'
p9
aS'x'
p10
aS'model'
p11
aS'Patm'
p12
atp13
Rp14
.(dp0
S'arg1'
p1
S'object'
p2
sS'graphics'
p3
g2
sS'mo.model'
p4
S'string'
p5
sS'x.model'
p6
NsS'model.out'
p7
S'double'
p8
sS'out'
p9
g8
sS'model.in1'
p10
g8
sS'zs1'
p11
g8
sS'zs2'
p12
g8
sS'exprs'
p13
S'matrix'
p14
sS'z0'
p15
g8
sS'mo.inputs'
p16
S'vector'
p17
sS'x.graphics.in_implicit'
p18
g14
sS'mo.parameters'
p19
g17
sS'Patm'
p20
g8
sS'A'
p21
g8
sS'model.sim'
p22
g5
sS'model.equations'
p23
g8
sS'mo.outputs'
p24
g17
sS'x.graphics.out_implicit'
p25
g14
sS'in1'
p26
g8
sS'model.rpar'
p27
g14
sS'ze2'
p28
g8
sS'ze1'
p29
g8
sS'T0'
p30
g8
sS'graphics.exprs'
p31
NsS'typ'
p32
g17
sS'model.blocktype'
p33
g5
sS'mo'
p34
g2
sS'x.graphics'
p35
g2
sS'model.dep_ut'
p36
g17
sS"model.equations.parameters[('2', 'double')]"
p37
g17
sS'gr_i'
p38
g17
sS'p_rho'
p39
g8
sS'y'
p40
g17
sS'x'
p41
g8
sS'model'
p42
g2
s.