c__builtin__
set
p0
((lp1
S'A'
p2
aS'zs1'
p3
aS'zs2'
p4
aS'z0'
p5
aS'T0'
p6
aS'ze2'
p7
aS'ze1'
p8
aS'p_rho'
p9
aS'x'
p10
aS'Patm'
p11
atp12
Rp13
.(dp0
S'this.ze2'
p1
S'double'
p2
sS'this.ze1'
p3
g2
sS'arg1'
p4
S'object'
p5
sS'graphics'
p6
g5
sS'mo.model'
p7
S'string'
p8
sS'this.x.model'
p9
NsS'model.out'
p10
g2
sS'out'
p11
g2
sS'model.in1'
p12
g2
sS'this.p_rho'
p13
g2
sS'typ'
p14
S'vector'
p15
sS'mo.inputs'
p16
g15
sS'this.T0'
p17
g2
sS'this.Patm'
p18
g2
sS'this.x'
p19
g2
sS'model.sim'
p20
g8
sS'model.equations'
p21
g2
sS'this.zs1'
p22
g2
sS'this.zs2'
p23
g2
sS'mo.outputs'
p24
g15
sS'in1'
p25
g2
sS'model.rpar'
p26
S'matrix'
p27
sS'graphics.exprs'
p28
NsS'this.x.graphics'
p29
g5
sS'this.x.graphics.in_implicit'
p30
g27
sS'mo.parameters'
p31
g15
sS'model.blocktype'
p32
g8
sS'mo'
p33
g5
sS'model.dep_ut'
p34
g15
sS'model.equations.parameters[2-1]'
p35
g15
sS'exprs'
p36
g27
sS'gr_i'
p37
g15
sS'this.x.graphics.out_implicit'
p38
g27
sS'y'
p39
g15
sS'this.A'
p40
g2
sS'model'
p41
g5
sS'this.z0'
p42
g2
s.