c__builtin__
set
p0
((lp1
S'x'
p2
aS'Qini'
p3
atp4
Rp5
.(dp0
S'this.x.model.equations.parameters[2-1]'
p1
S'vector'
p2
sS'arg1'
p3
S'object'
p4
sS'mo.model'
p5
S'string'
p6
sS'PrametersValue'
p7
S'double'
p8
sS'model.equations'
p9
g8
sS'model.out'
p10
g8
sS'model.in1'
p11
g8
sS'x.graphics'
p12
g4
sS'this.x.graphics.exprs'
p13
NsS'this.x.graphics.out_implicit'
p14
S'matrix'
p15
sS'mo.inputs'
p16
g15
sS'Typeout'
p17
g15
sS'mo.parameters'
p18
g2
sS'this.x'
p19
g8
sS'model.sim'
p20
g6
sS'ModelName'
p21
g6
sS'y'
p22
g2
sS'mo.outputs'
p23
g15
sS'Typein'
p24
g15
sS'model.rpar'
p25
g8
sS'P'
p26
g15
sS'graphics'
p27
g4
sS'typ'
p28
g2
sS'this.x.graphics.in_implicit'
p29
g15
sS'model.blocktype'
p30
g6
sS'MO'
p31
g15
sS'MI'
p32
g15
sS'model.dep_ut'
p33
g2
sS'exprs'
p34
g6
sS'gr_i'
p35
g2
sS'PortName'
p36
g15
sS'x'
p37
g4
sS'model'
p38
g4
sS'ParametersName'
p39
g6
sS'mo'
p40
g8
s.