c__builtin__
set
p0
((lp1
S'x'
p2
aS'model'
p3
aS'Qini'
p4
aS'graphics'
p5
atp6
Rp7
.(dp0
S'x.model.equations.parameters[2-1]'
p1
S'list'
p2
sS'arg1'
p3
S'object'
p4
sS'mo.model'
p5
S'string'
p6
sS'PrametersValue'
p7
S'double'
p8
sS'model.equations'
p9
g8
sS'model.out'
p10
g8
sS'x.graphics'
p11
g4
sS'mo.inputs'
p12
S'matrix'
p13
sS'Typeout'
p14
g13
sS'x.graphics.in_implicit'
p15
g13
sS'mo.parameters'
p16
g2
sS'model.sim'
p17
g6
sS'ModelName'
p18
g6
sS'y'
p19
S'vector'
p20
sS'mo.outputs'
p21
g13
sS'Typein'
p22
g13
sS'x.graphics.out_implicit'
p23
g13
sS'model.rpar'
p24
g8
sS'P'
p25
g13
sS'model.in'
p26
g8
sS'graphics'
p27
g4
sS'typ'
p28
g20
sS'model.blocktype'
p29
g6
sS'mo'
p30
g8
sS'gr_i'
p31
g20
sS'MI'
p32
g13
sS'model.dep_ut'
p33
S'vector_boolean'
p34
sS'exprs'
p35
g6
sS'x.graphics.exprs'
p36
NsS'PortName'
p37
g13
sS'x'
p38
g4
sS'model'
p39
g4
sS'ParametersName'
p40
g6
sS'MO'
p41
g13
s.