c__builtin__
set
p0
((lp1
S'Qini'
p2
aS'exprs'
p3
aS'gr_i'
p4
aS'graphics'
p5
aS'x'
p6
aS'model'
p7
atp8
Rp9
.(dp0
S'x.model.equations.parameters[2-1]'
p1
S'list'
p2
sS'arg1'
p3
S'object'
p4
sS'mo.model'
p5
S'string'
p6
sS'PrametersValue'
p7
S'double'
p8
sS'model.equations'
p9
g8
sS'model.out'
p10
g8
sS'model.in1'
p11
g8
sS'x.graphics'
p12
g4
sS'mo.inputs'
p13
S'matrix'
p14
sS'Typeout'
p15
g14
sS'x.graphics.in_implicit'
p16
g14
sS'mo.parameters'
p17
g2
sS'model.sim'
p18
g6
sS'ModelName'
p19
g6
sS'y'
p20
S'vector'
p21
sS'mo.outputs'
p22
g14
sS'Typein'
p23
g14
sS'x.graphics.out_implicit'
p24
g14
sS'model.rpar'
p25
g8
sS'P'
p26
g14
sS'graphics'
p27
g4
sS'typ'
p28
g21
sS'model.blocktype'
p29
g6
sS'mo'
p30
g8
sS'gr_i'
p31
g21
sS'MI'
p32
g14
sS'model.dep_ut'
p33
g21
sS'exprs'
p34
g6
sS'x.graphics.exprs'
p35
NsS'PortName'
p36
g14
sS'x'
p37
g8
sS'model'
p38
g4
sS'ParametersName'
p39
g6
sS'MO'
p40
g14
s.