c__builtin__
set
p0
((lp1
S'x'
p2
aS'model'
p3
aS'Qini'
p4
aS'graphics'
p5
atp6
Rp7
.(dp0
S'x.model.equations.parameters[2-1]'
p1
S'list'
p2
sS'mo.model'
p3
S'string'
p4
sS'PrametersValue'
p5
S'double'
p6
sS'model.equations'
p7
g6
sS'model.out'
p8
g6
sS'x.graphics'
p9
S'object'
p10
sS'mo.inputs'
p11
S'matrix'
p12
sS'Typeout'
p13
g12
sS'x.graphics.in_implicit'
p14
g12
sS'mo.parameters'
p15
g2
sS'model.sim'
p16
g4
sS'ModelName'
p17
g4
sS'y'
p18
S'vector'
p19
sS'mo.outputs'
p20
g12
sS'Typein'
p21
g12
sS'x.graphics.out_implicit'
p22
g12
sS'model.rpar'
p23
g6
sS'P'
p24
g12
sS'model.in'
p25
g6
sS'graphics'
p26
g10
sS'typ'
p27
g19
sS'model.blocktype'
p28
g4
sS'mo'
p29
g6
sS'gr_i'
p30
g19
sS'MI'
p31
g12
sS'model.dep_ut'
p32
S'vector_boolean'
p33
sS'exprs'
p34
g4
sS'x.graphics.exprs'
p35
NsS'PortName'
p36
g12
sS'x'
p37
g10
sS'model'
p38
g10
sS'ParametersName'
p39
g4
sS'MO'
p40
g12
s.