c__builtin__
set
p0
((lp1
S'x'
p2
aS'Qini'
p3
atp4
Rp5
.(dp0
S'x.model.equations.parameters[2-1]'
p1
S'vector'
p2
sS'arg1'
p3
S'object'
p4
sS'mo.model'
p5
S'string'
p6
sS'PrametersValue'
p7
S'double'
p8
sS'model.equations'
p9
g8
sS'model.out'
p10
g8
sS'model.in1'
p11
g8
sS'x.graphics'
p12
g4
sS'mo.inputs'
p13
S'matrix'
p14
sS'Typeout'
p15
g14
sS'x.graphics.in_implicit'
p16
g14
sS'mo.parameters'
p17
g2
sS'model.sim'
p18
g6
sS'ModelName'
p19
g6
sS'y'
p20
g2
sS'mo.outputs'
p21
g14
sS'Typein'
p22
g14
sS'x.graphics.out_implicit'
p23
g14
sS'model.rpar'
p24
g8
sS'P'
p25
g14
sS'graphics'
p26
g4
sS'typ'
p27
g2
sS'model.blocktype'
p28
g6
sS'mo'
p29
g8
sS'gr_i'
p30
g2
sS'MI'
p31
g14
sS'model.dep_ut'
p32
g2
sS'exprs'
p33
g6
sS'x.graphics.exprs'
p34
NsS'PortName'
p35
g14
sS'x'
p36
g8
sS'model'
p37
g4
sS'ParametersName'
p38
g6
sS'MO'
p39
g14
s.