c__builtin__
set
p0
((lp1
S'D'
p2
aS'L'
p3
aS'p_rho'
p4
aS'x'
p5
aS'model'
p6
aS'z1'
p7
aS'z2'
p8
aS'lambda'
p9
atp10
Rp11
.(dp0
S'arg1'
p1
S'object'
p2
sS'graphics'
p3
g2
sS'mo.model'
p4
S'string'
p5
sS'x.model'
p6
NsS'model.out'
p7
S'double'
p8
sS'model.in1'
p9
g8
sS'exprs'
p10
S'matrix'
p11
sS'mo.inputs'
p12
g5
sS'x.graphics.in_implicit'
p13
S'vector'
p14
sS'mo.parameters'
p15
S'list'
p16
sS'model.sim'
p17
g5
sS'model.equations'
p18
g8
sS'D'
p19
g8
sS'mo.outputs'
p20
g5
sS'x.graphics.out_implicit'
p21
g14
sS'L'
p22
g8
sS'model.rpar'
p23
g11
sS'graphics.exprs'
p24
NsS'typ'
p25
g14
sS'z1'
p26
g8
sS'z2'
p27
g8
sS'model.blocktype'
p28
g5
sS'mo'
p29
g2
sS'x.graphics'
p30
g2
sS'model.dep_ut'
p31
g14
sS"model.equations.parameters[('2', 'double')]"
p32
g16
sS'gr_i'
p33
g14
sS'p_rho'
p34
g8
sS'y'
p35
g14
sS'x'
p36
g8
sS'model'
p37
g2
sS'lambda'
p38
g8
s.