c__builtin__
set
p0
((lp1
S'D'
p2
aS'L'
p3
aS'p_rho'
p4
aS'graphics'
p5
aS'x'
p6
aS'model'
p7
aS'z1'
p8
aS'z2'
p9
aS'lambda'
p10
atp11
Rp12
.(dp0
S'arg1'
p1
S'object'
p2
sS'graphics'
p3
g2
sS'mo.model'
p4
S'string'
p5
sS'x.model'
p6
NsS'model.out'
p7
S'double'
p8
sS'x.graphics'
p9
g2
sS'mo.inputs'
p10
g5
sS'x.graphics.in_implicit'
p11
S'vector_string'
p12
sS'mo.parameters'
p13
S'list'
p14
sS'model.sim'
p15
g5
sS'model.equations'
p16
g8
sS'D'
p17
g8
sS'mo.outputs'
p18
g5
sS'x.graphics.out_implicit'
p19
g12
sS'L'
p20
g8
sS'model.rpar'
p21
S'matrix'
p22
sS'model.in'
p23
g8
sS'graphics.exprs'
p24
NsS'typ'
p25
S'vector'
p26
sS'z1'
p27
g8
sS'z2'
p28
g8
sS'model.blocktype'
p29
g5
sS'mo'
p30
g2
sS'model.dep_ut'
p31
S'vector_boolean'
p32
sS'model.equations.parameters[2-1]'
p33
g14
sS'exprs'
p34
g22
sS'gr_i'
p35
g26
sS'p_rho'
p36
g8
sS'y'
p37
g26
sS'x'
p38
NsS'model'
p39
g2
sS'lambda'
p40
g8
s.