c__builtin__
set
p0
((lp1
S'D'
p2
aS'L'
p3
aS'exprs'
p4
aS'gr_i'
p5
aS'p_rho'
p6
aS'graphics'
p7
aS'x'
p8
aS'model'
p9
aS'z1'
p10
aS'z2'
p11
aS'lambda'
p12
atp13
Rp14
.(dp0
S'arg1'
p1
S'object'
p2
sS'graphics'
p3
g2
sS'mo.model'
p4
S'string'
p5
sS'x.model'
p6
NsS'model.out'
p7
S'double'
p8
sS'model.in1'
p9
g8
sS'x.graphics'
p10
g2
sS'mo.inputs'
p11
g5
sS'x.graphics.in_implicit'
p12
S'vector'
p13
sS'mo.parameters'
p14
S'list'
p15
sS'model.sim'
p16
g5
sS'model.equations'
p17
g8
sS'D'
p18
g8
sS'mo.outputs'
p19
g5
sS'x.graphics.out_implicit'
p20
g13
sS'L'
p21
g8
sS'model.rpar'
p22
S'matrix'
p23
sS'graphics.exprs'
p24
NsS'typ'
p25
g13
sS'z1'
p26
g8
sS'z2'
p27
g8
sS'model.blocktype'
p28
g5
sS'mo'
p29
g2
sS'model.dep_ut'
p30
g13
sS'model.equations.parameters[2-1]'
p31
g15
sS'exprs'
p32
g23
sS'gr_i'
p33
g13
sS'p_rho'
p34
g8
sS'y'
p35
g13
sS'x'
p36
g8
sS'model'
p37
g2
sS'lambda'
p38
g8
s.