c__builtin__
set
p0
((lp1
S'D'
p2
aS'L'
p3
aS'p_rho'
p4
aS'graphics'
p5
aS'x'
p6
aS'model'
p7
aS'z1'
p8
aS'z2'
p9
aS'lambda'
p10
atp11
Rp12
.(dp0
S'graphics'
p1
S'object'
p2
sS'mo.model'
p3
S'string'
p4
sS'x.model'
p5
NsS'model.out'
p6
S'double'
p7
sS'x.graphics'
p8
g2
sS'mo.inputs'
p9
g4
sS'x.graphics.in_implicit'
p10
S'vector_string'
p11
sS'mo.parameters'
p12
S'list'
p13
sS'model.sim'
p14
g4
sS'model.equations'
p15
g7
sS'D'
p16
g7
sS'mo.outputs'
p17
g4
sS'x.graphics.out_implicit'
p18
g11
sS'L'
p19
g7
sS'model.rpar'
p20
S'matrix'
p21
sS'model.in'
p22
g7
sS'graphics.exprs'
p23
NsS'typ'
p24
S'vector'
p25
sS'z1'
p26
g7
sS'z2'
p27
g7
sS'model.blocktype'
p28
g4
sS'mo'
p29
g2
sS'model.dep_ut'
p30
S'vector_boolean'
p31
sS'model.equations.parameters[2-1]'
p32
g13
sS'exprs'
p33
g21
sS'gr_i'
p34
g25
sS'p_rho'
p35
g7
sS'y'
p36
g25
sS'x'
p37
g25
sS'model'
p38
g2
sS'lambda'
p39
g7
s.