c__builtin__
set
p0
((lp1
S'D'
p2
aS'L'
p3
aS'p_rho'
p4
aS'x'
p5
aS'z1'
p6
aS'z2'
p7
aS'lambda'
p8
atp9
Rp10
.(dp0
S'arg1'
p1
S'object'
p2
sS'graphics'
p3
g2
sS'mo.model'
p4
S'string'
p5
sS'this.x.model'
p6
NsS'model.out'
p7
S'double'
p8
sS'model.in1'
p9
g8
sS'this.p_rho'
p10
g8
sS'typ'
p11
S'vector'
p12
sS'mo.inputs'
p13
g5
sS'mo.parameters'
p14
g12
sS'this.x'
p15
g8
sS'model.sim'
p16
g5
sS'model.equations'
p17
g8
sS'mo.outputs'
p18
g5
sS'model.rpar'
p19
S'matrix'
p20
sS'this.lambda'
p21
g8
sS'graphics.exprs'
p22
NsS'this.x.graphics'
p23
g2
sS'this.z1'
p24
g8
sS'this.x.graphics.in_implicit'
p25
g12
sS'model.blocktype'
p26
g5
sS'mo'
p27
g2
sS'model.dep_ut'
p28
g12
sS'model.equations.parameters[2-1]'
p29
g12
sS'exprs'
p30
g20
sS'gr_i'
p31
g12
sS'this.L'
p32
g8
sS'this.x.graphics.out_implicit'
p33
g12
sS'y'
p34
g12
sS'this.z2'
p35
g8
sS'model'
p36
g2
sS'this.D'
p37
g8
s.