c__builtin__
set
p0
((lp1
S'D'
p2
aS'L'
p3
aS'p_rho'
p4
aS'x'
p5
aS'z1'
p6
aS'z2'
p7
aS'lambda'
p8
atp9
Rp10
.(dp0
S'arg1'
p1
S'object'
p2
sS'graphics'
p3
g2
sS'mo.model'
p4
S'string'
p5
sS'x.model'
p6
NsS'model.out'
p7
S'double'
p8
sS'model.in1'
p9
g8
sS'x.graphics'
p10
g2
sS'mo.inputs'
p11
g5
sS'x.graphics.in_implicit'
p12
S'vector'
p13
sS'mo.parameters'
p14
g13
sS'model.sim'
p15
g5
sS'model.equations'
p16
g8
sS'D'
p17
g8
sS'mo.outputs'
p18
g5
sS'x.graphics.out_implicit'
p19
g13
sS'L'
p20
g8
sS'model.rpar'
p21
S'matrix'
p22
sS'graphics.exprs'
p23
NsS'typ'
p24
g13
sS'z1'
p25
g8
sS'z2'
p26
g8
sS'model.blocktype'
p27
g5
sS'mo'
p28
g2
sS'model.dep_ut'
p29
g13
sS'model.equations.parameters[2-1]'
p30
g13
sS'exprs'
p31
g22
sS'gr_i'
p32
g13
sS'p_rho'
p33
g8
sS'y'
p34
g13
sS'x'
p35
g8
sS'model'
p36
g2
sS'lambda'
p37
g8
s.