c__builtin__
set
p0
((lp1
S'D'
p2
aS'L'
p3
aS'p_rho'
p4
aS'x'
p5
aS'model'
p6
aS'z1'
p7
aS'z2'
p8
aS'lambda'
p9
atp10
Rp11
.(dp0
S'arg1'
p1
S'object'
p2
sS'graphics'
p3
g2
sS'mo.model'
p4
S'string'
p5
sS'x.model'
p6
NsS'model.out'
p7
S'double'
p8
sS'model.in1'
p9
g8
sS'x.graphics'
p10
g2
sS'mo.inputs'
p11
g5
sS'x.graphics.in_implicit'
p12
S'vector'
p13
sS'mo.parameters'
p14
S'list'
p15
sS'model.sim'
p16
g5
sS'model.equations'
p17
g8
sS'D'
p18
g8
sS'model.equations.parameters[2]'
p19
g15
sS'mo.outputs'
p20
g5
sS'x.graphics.out_implicit'
p21
g13
sS'L'
p22
g8
sS'model.rpar'
p23
S'matrix'
p24
sS'graphics.exprs'
p25
NsS'typ'
p26
g13
sS'z1'
p27
g8
sS'z2'
p28
g8
sS'model.blocktype'
p29
g5
sS'mo'
p30
g2
sS'model.dep_ut'
p31
g13
sS'exprs'
p32
g24
sS'gr_i'
p33
g13
sS'p_rho'
p34
g8
sS'y'
p35
g13
sS'x'
p36
g8
sS'model'
p37
g2
sS'lambda'
p38
g8
s.