c__builtin__
set
p0
((lp1
S'P0'
p2
aS'H0'
p3
aS'T0'
p4
aS'exprs'
p5
aS'gr_i'
p6
aS'graphics'
p7
aS'x'
p8
aS'model'
p9
aS'option_temperature'
p10
atp11
Rp12
.(dp0
S'arg1'
p1
S'object'
p2
sS'graphics'
p3
g2
sS'mo.model'
p4
S'string'
p5
sS'x.model'
p6
NsS'x.graphics'
p7
g2
sS'mo.inputs'
p8
S'vector'
p9
sS'x.graphics.in_implicit'
p10
g9
sS'option_temperature'
p11
S'double'
p12
sS'mo.parameters'
p13
S'list'
p14
sS'model.sim'
p15
g5
sS'P0'
p16
g12
sS'model.equations'
p17
g12
sS'model.rpar'
p18
S'matrix'
p19
sS'T0'
p20
g12
sS'model.in'
p21
g12
sS'graphics.exprs'
p22
NsS'typ'
p23
g9
sS'model.blocktype'
p24
g5
sS'mo'
p25
g2
sS'model.dep_ut'
p26
S'vector_boolean'
p27
sS'model.equations.parameters[2-1]'
p28
g14
sS'exprs'
p29
g19
sS'gr_i'
p30
g9
sS'y'
p31
g9
sS'x'
p32
NsS'model'
p33
g2
sS'H0'
p34
g12
s.