c__builtin__
set
p0
((lp1
S'P0'
p2
aS'H0'
p3
aS'T0'
p4
aS'x'
p5
aS'model'
p6
aS'option_temperature'
p7
atp8
Rp9
.(dp0
S'arg1'
p1
S'object'
p2
sS'graphics'
p3
g2
sS'mo.model'
p4
S'string'
p5
sS'x.model'
p6
NsS'model.in1'
p7
S'double'
p8
sS'exprs'
p9
S'matrix'
p10
sS'mo.inputs'
p11
S'vector'
p12
sS'x.graphics.in_implicit'
p13
g12
sS'option_temperature'
p14
g8
sS'mo.parameters'
p15
S'list'
p16
sS'model.sim'
p17
g5
sS'P0'
p18
g8
sS'model.equations'
p19
g8
sS'model.rpar'
p20
g10
sS'T0'
p21
g8
sS'graphics.exprs'
p22
NsS'typ'
p23
g12
sS'model.blocktype'
p24
g5
sS'mo'
p25
g2
sS'x.graphics'
p26
g2
sS'model.dep_ut'
p27
g12
sS"model.equations.parameters[('2', 'double')]"
p28
g16
sS'gr_i'
p29
g12
sS'y'
p30
g12
sS'x'
p31
g8
sS'model'
p32
g2
sS'H0'
p33
g8
s.