c__builtin__
set
p0
((lp1
S'x'
p2
aS'P0'
p3
aS'option_temperature'
p4
aS'H0'
p5
aS'T0'
p6
atp7
Rp8
.(dp0
S'arg1'
p1
S'object'
p2
sS'graphics'
p3
g2
sS'mo.model'
p4
S'string'
p5
sS'this.x.model'
p6
NsS'model.in1'
p7
S'double'
p8
sS'typ'
p9
S'vector'
p10
sS'mo.inputs'
p11
g10
sS'this.T0'
p12
g8
sS'mo.parameters'
p13
g10
sS'this.option_temperature'
p14
g8
sS'this.x'
p15
g8
sS'model.sim'
p16
g5
sS'model.equations'
p17
g8
sS'model.rpar'
p18
S'matrix'
p19
sS'this.H0'
p20
g8
sS'graphics.exprs'
p21
NsS'this.x.graphics'
p22
g2
sS'this.x.graphics.in_implicit'
p23
g10
sS'model.blocktype'
p24
g5
sS'mo'
p25
g2
sS'model.dep_ut'
p26
g10
sS'model.equations.parameters[2-1]'
p27
g10
sS'exprs'
p28
g19
sS'gr_i'
p29
g10
sS'y'
p30
g10
sS'model'
p31
g8
sS'this.P0'
p32
g8
s.