c__builtin__
set
p0
((lp1
S'x'
p2
aS'P0'
p3
aS'option_temperature'
p4
aS'H0'
p5
aS'T0'
p6
atp7
Rp8
.(dp0
S'arg1'
p1
S'object'
p2
sS'graphics'
p3
g2
sS'mo.model'
p4
S'string'
p5
sS'x.model'
p6
NsS'model.in1'
p7
S'double'
p8
sS'x.graphics'
p9
g2
sS'mo.inputs'
p10
S'vector'
p11
sS'x.graphics.in_implicit'
p12
g11
sS'option_temperature'
p13
g8
sS'mo.parameters'
p14
g11
sS'model.sim'
p15
g5
sS'P0'
p16
g8
sS'model.equations'
p17
g8
sS'model.rpar'
p18
S'matrix'
p19
sS'T0'
p20
g8
sS'graphics.exprs'
p21
NsS'typ'
p22
g11
sS'model.blocktype'
p23
g5
sS'mo'
p24
g2
sS'model.dep_ut'
p25
g11
sS'model.equations.parameters[2-1]'
p26
g11
sS'exprs'
p27
g19
sS'gr_i'
p28
g11
sS'y'
p29
g11
sS'x'
p30
g8
sS'model'
p31
g2
sS'H0'
p32
g8
s.