c__builtin__
set
p0
((lp1
S'P0'
p2
aS'H0'
p3
aS'T0'
p4
aS'graphics'
p5
aS'x'
p6
aS'model'
p7
aS'option_temperature'
p8
atp9
Rp10
.(dp0
S'arg1'
p1
S'object'
p2
sS'graphics'
p3
g2
sS'mo.model'
p4
S'string'
p5
sS'x.model'
p6
NsS'model.in1'
p7
S'double'
p8
sS'x.graphics'
p9
g2
sS'mo.inputs'
p10
S'vector'
p11
sS'x.graphics.in_implicit'
p12
g11
sS'option_temperature'
p13
g8
sS'mo.parameters'
p14
S'list'
p15
sS'model.sim'
p16
g5
sS'P0'
p17
g8
sS'model.equations'
p18
g8
sS'model.rpar'
p19
S'matrix'
p20
sS'T0'
p21
g8
sS'graphics.exprs'
p22
NsS'typ'
p23
g11
sS'model.blocktype'
p24
g5
sS'mo'
p25
g2
sS'model.dep_ut'
p26
g11
sS'model.equations.parameters[2-1]'
p27
g15
sS'exprs'
p28
g20
sS'gr_i'
p29
g11
sS'y'
p30
g11
sS'x'
p31
g8
sS'model'
p32
g2
sS'H0'
p33
g8
s.