c__builtin__
set
p0
((lp1
S'P0'
p2
aS'H0'
p3
aS'T0'
p4
aS'x'
p5
aS'model'
p6
aS'option_temperature'
p7
atp8
Rp9
.(dp0
S'arg1'
p1
S'object'
p2
sS'graphics'
p3
g2
sS'mo.model'
p4
S'string'
p5
sS'x.model'
p6
NsS'model.in1'
p7
S'double'
p8
sS'exprs'
p9
S'matrix'
p10
sS'mo.inputs'
p11
S'vector'
p12
sS'x.graphics.in_implicit'
p13
g12
sS'option_temperature'
p14
g8
sS'mo.parameters'
p15
g12
sS'model.sim'
p16
g5
sS'P0'
p17
g8
sS'model.equations'
p18
g8
sS'model.rpar'
p19
g10
sS'T0'
p20
g8
sS'graphics.exprs'
p21
NsS'typ'
p22
g12
sS'model.blocktype'
p23
g5
sS'mo'
p24
g2
sS'x.graphics'
p25
g2
sS'model.dep_ut'
p26
g12
sS"model.equations.parameters[('2', 'double')]"
p27
g12
sS'gr_i'
p28
g12
sS'y'
p29
g12
sS'x'
p30
g8
sS'model'
p31
g2
sS'H0'
p32
g8
s.