c__builtin__
set
p0
((lp1
S'P0'
p2
aS'H0'
p3
aS'T0'
p4
aS'graphics'
p5
aS'x'
p6
aS'model'
p7
aS'option_temperature'
p8
atp9
Rp10
.(dp0
S'arg1'
p1
S'object'
p2
sS'graphics'
p3
g2
sS'mo.model'
p4
S'string'
p5
sS'x.model'
p6
NsS'x.graphics'
p7
g2
sS'mo.inputs'
p8
S'vector_string'
p9
sS'x.graphics.in_implicit'
p10
g9
sS'option_temperature'
p11
S'double'
p12
sS'mo.parameters'
p13
S'list'
p14
sS'model.sim'
p15
g5
sS'P0'
p16
g12
sS'model.equations'
p17
g12
sS'model.rpar'
p18
S'matrix'
p19
sS'T0'
p20
g12
sS'model.in'
p21
g12
sS'graphics.exprs'
p22
NsS'typ'
p23
S'vector'
p24
sS'model.blocktype'
p25
g5
sS'mo'
p26
g2
sS'model.dep_ut'
p27
S'vector_boolean'
p28
sS'model.equations.parameters[2-1]'
p29
g14
sS'exprs'
p30
g19
sS'gr_i'
p31
g24
sS'y'
p32
g24
sS'x'
p33
NsS'model'
p34
g2
sS'H0'
p35
g12
s.