c__builtin__
set
p0
((lp1
S'P0'
p2
aS'H0'
p3
aS'T0'
p4
aS'x'
p5
aS'model'
p6
aS'option_temperature'
p7
atp8
Rp9
.(dp0
S'arg1'
p1
S'object'
p2
sS'graphics'
p3
g2
sS'mo.model'
p4
S'string'
p5
sS'x.model'
p6
NsS'model.in1'
p7
S'double'
p8
sS'x.graphics'
p9
g2
sS'mo.inputs'
p10
S'vector'
p11
sS'x.graphics.in_implicit'
p12
g11
sS'option_temperature'
p13
g8
sS'mo.parameters'
p14
S'list'
p15
sS'model.sim'
p16
g5
sS'P0'
p17
g8
sS'model.equations'
p18
g8
sS'model.equations.parameters[2]'
p19
g15
sS'model.rpar'
p20
S'matrix'
p21
sS'T0'
p22
g8
sS'graphics.exprs'
p23
NsS'typ'
p24
g11
sS'model.blocktype'
p25
g5
sS'mo'
p26
g2
sS'model.dep_ut'
p27
g11
sS'exprs'
p28
g21
sS'gr_i'
p29
g11
sS'y'
p30
g11
sS'x'
p31
g8
sS'model'
p32
g2
sS'H0'
p33
g8
s.