c__builtin__
set
p0
((lp1
S'P0'
p2
aS'H0'
p3
aS'T0'
p4
aS'graphics'
p5
aS'x'
p6
aS'model'
p7
aS'option_temperature'
p8
atp9
Rp10
.(dp0
S'graphics'
p1
S'object'
p2
sS'mo.model'
p3
S'string'
p4
sS'x.model'
p5
NsS'x.graphics'
p6
g2
sS'mo.inputs'
p7
S'vector_string'
p8
sS'x.graphics.in_implicit'
p9
g8
sS'option_temperature'
p10
S'double'
p11
sS'mo.parameters'
p12
S'list'
p13
sS'model.sim'
p14
g4
sS'P0'
p15
g11
sS'model.equations'
p16
g11
sS'model.rpar'
p17
S'matrix'
p18
sS'T0'
p19
g11
sS'model.in'
p20
g11
sS'graphics.exprs'
p21
NsS'typ'
p22
S'vector'
p23
sS'model.blocktype'
p24
g4
sS'mo'
p25
g2
sS'model.dep_ut'
p26
S'vector_boolean'
p27
sS'model.equations.parameters[2-1]'
p28
g13
sS'exprs'
p29
g18
sS'gr_i'
p30
g23
sS'y'
p31
g23
sS'x'
p32
g23
sS'model'
p33
g2
sS'H0'
p34
g11
s.