c__builtin__
set
p0
((lp1
S'P0'
p2
aS'H0'
p3
aS'T0'
p4
aS'exprs'
p5
aS'gr_i'
p6
aS'graphics'
p7
aS'x'
p8
aS'model'
p9
aS'option_temperature'
p10
atp11
Rp12
.(dp0
S'arg1'
p1
S'object'
p2
sS'graphics'
p3
g2
sS'mo.model'
p4
S'string'
p5
sS'x.model'
p6
NsS'model.out'
p7
S'double'
p8
sS'model.in1'
p9
g8
sS'x.graphics'
p10
g2
sS'mo.inputs'
p11
S'vector'
p12
sS'option_temperature'
p13
g8
sS'mo.parameters'
p14
S'list'
p15
sS'model.sim'
p16
g5
sS'P0'
p17
g8
sS'model.equations'
p18
g8
sS'mo.outputs'
p19
g12
sS'x.graphics.out_implicit'
p20
g12
sS'model.rpar'
p21
S'matrix'
p22
sS'T0'
p23
g8
sS'graphics.exprs'
p24
NsS'typ'
p25
g12
sS'model.blocktype'
p26
g5
sS'mo'
p27
g2
sS'model.dep_ut'
p28
g12
sS'model.equations.parameters[2-1]'
p29
g15
sS'exprs'
p30
g22
sS'gr_i'
p31
g12
sS'y'
p32
g12
sS'x'
p33
g8
sS'model'
p34
g2
sS'H0'
p35
g8
s.