c__builtin__
set
p0
((lp1
S'x'
p2
aS'P0'
p3
aS'option_temperature'
p4
aS'H0'
p5
aS'T0'
p6
atp7
Rp8
.(dp0
S'arg1'
p1
S'object'
p2
sS'graphics'
p3
g2
sS'mo.model'
p4
S'string'
p5
sS'this.x.model'
p6
NsS'model.out'
p7
S'double'
p8
sS'model.in1'
p9
g8
sS'typ'
p10
S'vector'
p11
sS'mo.inputs'
p12
g11
sS'this.T0'
p13
g8
sS'mo.parameters'
p14
g11
sS'this.option_temperature'
p15
g8
sS'this.x'
p16
g8
sS'model.sim'
p17
g5
sS'model.equations'
p18
g8
sS'mo.outputs'
p19
g11
sS'model.rpar'
p20
S'matrix'
p21
sS'this.H0'
p22
g8
sS'graphics.exprs'
p23
NsS'this.x.graphics'
p24
g2
sS'model.blocktype'
p25
g5
sS'mo'
p26
g2
sS'model.dep_ut'
p27
g11
sS'model.equations.parameters[2-1]'
p28
g11
sS'exprs'
p29
g21
sS'gr_i'
p30
g11
sS'this.x.graphics.out_implicit'
p31
g11
sS'y'
p32
g11
sS'model'
p33
g2
sS'this.P0'
p34
g8
s.