c__builtin__
set
p0
((lp1
S'P0'
p2
aS'H0'
p3
aS'T0'
p4
aS'exprs'
p5
aS'gr_i'
p6
aS'graphics'
p7
aS'x'
p8
aS'model'
p9
aS'option_temperature'
p10
atp11
Rp12
.(dp0
S'arg1'
p1
S'object'
p2
sS'graphics'
p3
g2
sS'mo.model'
p4
S'string'
p5
sS'x.model'
p6
NsS'model.out'
p7
S'double'
p8
sS'x.graphics'
p9
g2
sS'mo.inputs'
p10
S'vector'
p11
sS'option_temperature'
p12
g8
sS'mo.parameters'
p13
S'list'
p14
sS'model.sim'
p15
g5
sS'P0'
p16
g8
sS'model.equations'
p17
g8
sS'mo.outputs'
p18
g11
sS'x.graphics.out_implicit'
p19
g11
sS'model.rpar'
p20
S'matrix'
p21
sS'T0'
p22
g8
sS'model.in'
p23
g8
sS'graphics.exprs'
p24
NsS'typ'
p25
g11
sS'model.blocktype'
p26
g5
sS'mo'
p27
g2
sS'model.dep_ut'
p28
g11
sS'model.equations.parameters[2-1]'
p29
g14
sS'exprs'
p30
g21
sS'gr_i'
p31
g11
sS'y'
p32
g11
sS'x'
p33
g8
sS'model'
p34
g2
sS'H0'
p35
g8
s.