c__builtin__
set
p0
((lp1
S'x'
p2
aS'P0'
p3
aS'option_temperature'
p4
aS'H0'
p5
aS'T0'
p6
atp7
Rp8
.(dp0
S'arg1'
p1
S'object'
p2
sS'graphics'
p3
g2
sS'mo.model'
p4
S'string'
p5
sS'x.model'
p6
NsS'model.out'
p7
S'double'
p8
sS'model.in1'
p9
g8
sS'x.graphics'
p10
g2
sS'mo.inputs'
p11
S'vector'
p12
sS'option_temperature'
p13
g8
sS'mo.parameters'
p14
g12
sS'model.sim'
p15
g5
sS'P0'
p16
g8
sS'model.equations'
p17
g8
sS'mo.outputs'
p18
g12
sS'x.graphics.out_implicit'
p19
g12
sS'model.rpar'
p20
S'matrix'
p21
sS'T0'
p22
g8
sS'graphics.exprs'
p23
NsS'typ'
p24
g12
sS'model.blocktype'
p25
g5
sS'mo'
p26
g2
sS'model.dep_ut'
p27
g12
sS'model.equations.parameters[2-1]'
p28
g12
sS'exprs'
p29
g21
sS'gr_i'
p30
g12
sS'y'
p31
g12
sS'x'
p32
g8
sS'model'
p33
g2
sS'H0'
p34
g8
s.