c__builtin__
set
p0
((lp1
S'P0'
p2
aS'H0'
p3
aS'T0'
p4
aS'x'
p5
aS'model'
p6
aS'option_temperature'
p7
atp8
Rp9
.(dp0
S'arg1'
p1
S'object'
p2
sS'graphics'
p3
g2
sS'mo.model'
p4
S'string'
p5
sS'x.model'
p6
NsS'model.out'
p7
S'double'
p8
sS'model.in1'
p9
g8
sS'exprs'
p10
S'matrix'
p11
sS'mo.inputs'
p12
S'vector'
p13
sS'option_temperature'
p14
g8
sS'mo.parameters'
p15
S'list'
p16
sS'model.sim'
p17
g5
sS'P0'
p18
g8
sS'model.equations'
p19
g8
sS'mo.outputs'
p20
g13
sS'x.graphics.out_implicit'
p21
g13
sS'model.rpar'
p22
g11
sS'T0'
p23
g8
sS'graphics.exprs'
p24
NsS'typ'
p25
g13
sS'model.blocktype'
p26
g5
sS'mo'
p27
g2
sS'x.graphics'
p28
g2
sS'model.dep_ut'
p29
g13
sS"model.equations.parameters[('2', 'double')]"
p30
g16
sS'gr_i'
p31
g13
sS'y'
p32
g13
sS'x'
p33
g8
sS'model'
p34
g2
sS'H0'
p35
g8
s.