c__builtin__
set
p0
((lp1
S'P0'
p2
aS'H0'
p3
aS'T0'
p4
aS'x'
p5
aS'model'
p6
aS'option_temperature'
p7
atp8
Rp9
.(dp0
S'arg1'
p1
S'object'
p2
sS'graphics'
p3
g2
sS'mo.model'
p4
S'string'
p5
sS'x.model'
p6
NsS'model.out'
p7
S'double'
p8
sS'model.in1'
p9
g8
sS'x.graphics'
p10
g2
sS'mo.inputs'
p11
S'vector'
p12
sS'option_temperature'
p13
g8
sS'mo.parameters'
p14
S'list'
p15
sS'model.sim'
p16
g5
sS'P0'
p17
g8
sS'model.equations'
p18
g8
sS'model.equations.parameters[2]'
p19
g15
sS'mo.outputs'
p20
g12
sS'x.graphics.out_implicit'
p21
g12
sS'model.rpar'
p22
S'matrix'
p23
sS'T0'
p24
g8
sS'graphics.exprs'
p25
NsS'typ'
p26
g12
sS'model.blocktype'
p27
g5
sS'mo'
p28
g2
sS'model.dep_ut'
p29
g12
sS'exprs'
p30
g23
sS'gr_i'
p31
g12
sS'y'
p32
g12
sS'x'
p33
g8
sS'model'
p34
g2
sS'H0'
p35
g8
s.