c__builtin__
set
p0
((lp1
S'P0'
p2
aS'H0'
p3
aS'T0'
p4
aS'x'
p5
aS'model'
p6
aS'option_temperature'
p7
atp8
Rp9
.(dp0
S'arg1'
p1
S'object'
p2
sS'graphics'
p3
g2
sS'mo.model'
p4
S'string'
p5
sS'x.model'
p6
NsS'model.out'
p7
S'double'
p8
sS'model.in1'
p9
g8
sS'exprs'
p10
S'matrix'
p11
sS'mo.inputs'
p12
S'vector'
p13
sS'option_temperature'
p14
g8
sS'mo.parameters'
p15
g13
sS'model.sim'
p16
g5
sS'P0'
p17
g8
sS'model.equations'
p18
g8
sS'mo.outputs'
p19
g13
sS'x.graphics.out_implicit'
p20
g13
sS'model.rpar'
p21
g11
sS'T0'
p22
g8
sS'graphics.exprs'
p23
NsS'typ'
p24
g13
sS'model.blocktype'
p25
g5
sS'mo'
p26
g2
sS'x.graphics'
p27
g2
sS'model.dep_ut'
p28
g13
sS"model.equations.parameters[('2', 'double')]"
p29
g13
sS'gr_i'
p30
g13
sS'y'
p31
g13
sS'x'
p32
g8
sS'model'
p33
g2
sS'H0'
p34
g8
s.