c__builtin__
set
p0
((lp1
S'P0'
p2
aS'H0'
p3
aS'T0'
p4
aS'graphics'
p5
aS'x'
p6
aS'model'
p7
aS'option_temperature'
p8
atp9
Rp10
.(dp0
S'graphics'
p1
S'object'
p2
sS'mo.model'
p3
S'string'
p4
sS'x.model'
p5
NsS'model.out'
p6
S'double'
p7
sS'x.graphics'
p8
g2
sS'mo.inputs'
p9
S'vector'
p10
sS'option_temperature'
p11
g7
sS'mo.parameters'
p12
S'list'
p13
sS'model.sim'
p14
g4
sS'P0'
p15
g7
sS'model.equations'
p16
g7
sS'mo.outputs'
p17
S'vector_string'
p18
sS'x.graphics.out_implicit'
p19
g18
sS'model.rpar'
p20
S'matrix'
p21
sS'T0'
p22
g7
sS'model.in'
p23
g7
sS'graphics.exprs'
p24
NsS'typ'
p25
g10
sS'model.blocktype'
p26
g4
sS'mo'
p27
g2
sS'model.dep_ut'
p28
S'vector_boolean'
p29
sS'model.equations.parameters[2-1]'
p30
g13
sS'exprs'
p31
g21
sS'gr_i'
p32
g10
sS'y'
p33
g10
sS'x'
p34
g10
sS'model'
p35
g2
sS'H0'
p36
g7
s.