c__builtin__
set
p0
((lp1
S'x'
p2
aS'model'
p3
aS'p_rho'
p4
aS'Cvmax'
p5
aS'graphics'
p6
atp7
Rp8
.(dp0
S'arg1'
p1
S'object'
p2
sS'graphics'
p3
g2
sS'mo.model'
p4
S'string'
p5
sS'Cvmax'
p6
S'double'
p7
sS'x.model'
p8
NsS'model.out'
p9
g7
sS'x.graphics'
p10
g2
sS'mo.inputs'
p11
S'vector_string'
p12
sS'x.graphics.in_implicit'
p13
S'matrix'
p14
sS'mo.parameters'
p15
S'list'
p16
sS'model.sim'
p17
g5
sS'model.equations'
p18
g7
sS'mo.outputs'
p19
g5
sS'x.graphics.out_implicit'
p20
g12
sS'model.rpar'
p21
g14
sS'model.in'
p22
g7
sS'graphics.exprs'
p23
NsS'typ'
p24
S'vector'
p25
sS'model.blocktype'
p26
g5
sS'mo'
p27
g2
sS'model.dep_ut'
p28
S'vector_boolean'
p29
sS'model.equations.parameters[2-1]'
p30
g16
sS'exprs'
p31
g14
sS'gr_i'
p32
g25
sS'p_rho'
p33
g7
sS'y'
p34
g25
sS'x'
p35
NsS'model'
p36
g2
s.