c__builtin__
set
p0
((lp1
S'Cvmax'
p2
aS'exprs'
p3
aS'gr_i'
p4
aS'p_rho'
p5
aS'graphics'
p6
aS'x'
p7
aS'model'
p8
atp9
Rp10
.(dp0
S'arg1'
p1
S'object'
p2
sS'graphics'
p3
g2
sS'mo.model'
p4
S'string'
p5
sS'Cvmax'
p6
S'double'
p7
sS'x.model'
p8
NsS'model.out'
p9
g7
sS'x.graphics'
p10
g2
sS'mo.inputs'
p11
S'vector'
p12
sS'x.graphics.in_implicit'
p13
S'matrix'
p14
sS'mo.parameters'
p15
S'list'
p16
sS'model.sim'
p17
g5
sS'model.equations'
p18
g7
sS'mo.outputs'
p19
g5
sS'x.graphics.out_implicit'
p20
g12
sS'model.rpar'
p21
g14
sS'model.in'
p22
g7
sS'graphics.exprs'
p23
NsS'typ'
p24
g12
sS'model.blocktype'
p25
g5
sS'mo'
p26
g2
sS'model.dep_ut'
p27
S'vector_boolean'
p28
sS'model.equations.parameters[2-1]'
p29
g16
sS'exprs'
p30
g14
sS'gr_i'
p31
g12
sS'p_rho'
p32
g7
sS'y'
p33
g12
sS'x'
p34
NsS'model'
p35
g2
s.