c__builtin__
set
p0
((lp1
S'x'
p2
aS'p_rho'
p3
aS'Cvmax'
p4
atp5
Rp6
.(dp0
S'arg1'
p1
S'object'
p2
sS'graphics'
p3
g2
sS'mo.model'
p4
S'string'
p5
sS'Cvmax'
p6
S'double'
p7
sS'x.model'
p8
NsS'model.out'
p9
g7
sS'model.in1'
p10
g7
sS'x.graphics'
p11
g2
sS'mo.inputs'
p12
S'vector'
p13
sS'x.graphics.in_implicit'
p14
S'matrix'
p15
sS'mo.parameters'
p16
g13
sS'model.sim'
p17
g5
sS'model.equations'
p18
g7
sS'mo.outputs'
p19
g5
sS'x.graphics.out_implicit'
p20
g13
sS'model.rpar'
p21
g15
sS'graphics.exprs'
p22
NsS'typ'
p23
g13
sS'model.blocktype'
p24
g5
sS'mo'
p25
g2
sS'model.dep_ut'
p26
g13
sS'model.equations.parameters[2-1]'
p27
g13
sS'exprs'
p28
g15
sS'gr_i'
p29
g13
sS'p_rho'
p30
g7
sS'y'
p31
g13
sS'x'
p32
g7
sS'model'
p33
g2
s.