c__builtin__
set
p0
((lp1
S'x'
p2
aS'model'
p3
aS'p_rho'
p4
aS'Cvmax'
p5
aS'graphics'
p6
atp7
Rp8
.(dp0
S'graphics'
p1
S'object'
p2
sS'mo.model'
p3
S'string'
p4
sS'Cvmax'
p5
S'double'
p6
sS'x.model'
p7
NsS'model.out'
p8
g6
sS'x.graphics'
p9
g2
sS'mo.inputs'
p10
S'vector_string'
p11
sS'x.graphics.in_implicit'
p12
S'matrix'
p13
sS'mo.parameters'
p14
S'list'
p15
sS'model.sim'
p16
g4
sS'model.equations'
p17
g6
sS'mo.outputs'
p18
g4
sS'x.graphics.out_implicit'
p19
g11
sS'model.rpar'
p20
g13
sS'model.in'
p21
g6
sS'graphics.exprs'
p22
NsS'typ'
p23
S'vector'
p24
sS'model.blocktype'
p25
g4
sS'mo'
p26
g2
sS'model.dep_ut'
p27
S'vector_boolean'
p28
sS'model.equations.parameters[2-1]'
p29
g15
sS'exprs'
p30
g13
sS'gr_i'
p31
g24
sS'p_rho'
p32
g6
sS'y'
p33
g24
sS'x'
p34
g24
sS'model'
p35
g2
s.