c__builtin__
set
p0
((lp1
S'x'
p2
aS'p_rho'
p3
aS'Cvmax'
p4
atp5
Rp6
.(dp0
S'arg1'
p1
S'object'
p2
sS'graphics'
p3
g2
sS'mo.model'
p4
S'string'
p5
sS'this.x.model'
p6
NsS'model.out'
p7
S'double'
p8
sS'model.in1'
p9
g8
sS'this.p_rho'
p10
g8
sS'typ'
p11
S'vector'
p12
sS'mo.inputs'
p13
g12
sS'this.Cvmax'
p14
g8
sS'mo.parameters'
p15
g12
sS'this.x'
p16
g8
sS'model.sim'
p17
g5
sS'model.equations'
p18
g8
sS'mo.outputs'
p19
g5
sS'model.rpar'
p20
S'matrix'
p21
sS'graphics.exprs'
p22
NsS'this.x.graphics'
p23
g2
sS'this.x.graphics.in_implicit'
p24
g21
sS'model.blocktype'
p25
g5
sS'mo'
p26
g2
sS'model.dep_ut'
p27
g12
sS'model.equations.parameters[2-1]'
p28
g12
sS'exprs'
p29
g21
sS'gr_i'
p30
g12
sS'this.x.graphics.out_implicit'
p31
g12
sS'y'
p32
g12
sS'model'
p33
g8
s.