c__builtin__
set
p0
((lp1
S'x'
p2
aS'model'
p3
aS'p_rho'
p4
aS'Cvmax'
p5
aS'graphics'
p6
atp7
Rp8
.(dp0
S'arg1'
p1
S'object'
p2
sS'graphics'
p3
g2
sS'mo.model'
p4
S'string'
p5
sS'Cvmax'
p6
S'double'
p7
sS'x.model'
p8
NsS'model.out'
p9
g7
sS'model.in1'
p10
g7
sS'x.graphics'
p11
g2
sS'mo.inputs'
p12
S'vector'
p13
sS'x.graphics.in_implicit'
p14
S'matrix'
p15
sS'mo.parameters'
p16
S'list'
p17
sS'model.sim'
p18
g5
sS'model.equations'
p19
g7
sS'mo.outputs'
p20
g5
sS'x.graphics.out_implicit'
p21
g13
sS'model.rpar'
p22
g15
sS'graphics.exprs'
p23
NsS'typ'
p24
g13
sS'model.blocktype'
p25
g5
sS'mo'
p26
g2
sS'model.dep_ut'
p27
g13
sS'model.equations.parameters[2-1]'
p28
g17
sS'exprs'
p29
g15
sS'gr_i'
p30
g13
sS'p_rho'
p31
g7
sS'y'
p32
g13
sS'x'
p33
g7
sS'model'
p34
g2
s.