c__builtin__
set
p0
((lp1
S'x'
p2
aS'p_rho'
p3
aS'Cvmax'
p4
atp5
Rp6
.c__builtin__
set
p0
((lp1
tp2
Rp3
.c__builtin__
set
p0
((lp1
tp2
Rp3
.c__builtin__
set
p0
((lp1
tp2
Rp3
.c__builtin__
set
p0
((lp1
tp2
Rp3
.c__builtin__
set
p0
((lp1
tp2
Rp3
.