c__builtin__
set
p0
((lp1
S'x'
p2
aS'model'
p3
aS'p_rho'
p4
aS'Cvmax'
p5
atp6
Rp7
.(dp0
S'arg1'
p1
S'object'
p2
sS'graphics'
p3
g2
sS'mo.model'
p4
S'string'
p5
sS'Cvmax'
p6
S'double'
p7
sS'x.model'
p8
NsS'model.out'
p9
g7
sS'model.in1'
p10
g7
sS'exprs'
p11
S'matrix'
p12
sS'mo.inputs'
p13
S'vector'
p14
sS'x.graphics.in_implicit'
p15
g12
sS'mo.parameters'
p16
g14
sS'model.sim'
p17
g5
sS'model.equations'
p18
g7
sS'mo.outputs'
p19
g5
sS'x.graphics.out_implicit'
p20
g14
sS'model.rpar'
p21
g12
sS'graphics.exprs'
p22
NsS'typ'
p23
g14
sS'model.blocktype'
p24
g5
sS'mo'
p25
g2
sS'x.graphics'
p26
g2
sS'model.dep_ut'
p27
g14
sS"model.equations.parameters[('2', 'double')]"
p28
g14
sS'gr_i'
p29
g14
sS'p_rho'
p30
g7
sS'y'
p31
g14
sS'x'
p32
g7
sS'model'
p33
g2
s.