c__builtin__
set
p0
((lp1
S'lab'
p2
aS'rdnom'
p3
aS'arbre_decision'
p4
aS'x'
p5
aS'model'
p6
aS'okk'
p7
atp8
Rp9
.(dp0
S'params_pde'
p1
S'double'
p2
sS'ok1'
p3
S'boolean'
p4
sS'[ok,a_domaine,b_domaine,discr,signe,choix,type_meth,degre,Nbr_maillage,CI,CI1,CLa_type,CLa_exp,CLb_type,CLb_exp,oper,a1,b1,a2,b2,a3,b3,a4,b4,a5,b5,a6,b6,a7,b7,k,mesures,params_pde]'
p5
g2
sS'arg1'
p6
S'object'
p7
sS'graphics'
p8
g7
sS'x.model'
p9
NsS'[flag_type,this.rdnom,DF_type,tt]'
p10
g2
sS'model.out'
p11
S'matrix'
p12
sS'label[3-1]'
p13
NsS'x.graphics'
p14
g7
sS'out'
p15
g12
sS'ind4'
p16
g2
sS'model.in1'
p17
g12
sS'ind1'
p18
g2
sS'ind2'
p19
g2
sS'type_meth'
p20
g2
sS'label[2-1]'
p21
NsS'label'
p22
S'list'
p23
sS'rdnom'
p24
g2
sS'model.sim'
p25
g23
sS'[this.model,graphics,ok]'
p26
g23
sS'model.state'
p27
g2
sS'delta'
p28
g2
sS'okk'
p29
g4
sS'typ'
p30
S'vector'
p31
sS'[ok1]'
p32
g2
sS'model.blocktype'
p33
S'string'
p34
sS'Nbr'
p35
g34
sS'label[1-1]'
p36
g2
sS'model.dep_ut'
p37
g31
sS'gr_i'
p38
g31
sS'graphics.exprs'
p39
NsS'y'
p40
g31
sS'x'
p41
g2
sS'model'
p42
g7
s.