c__builtin__
set
p0
((lp1
S'x'
p2
aS'okk'
p3
aS'rdnom'
p4
aS'lab'
p5
aS'arbre_decision'
p6
atp7
Rp8
.(dp0
S'params_pde'
p1
S'double'
p2
sS'ok1'
p3
S'boolean'
p4
sS'[ok,a_domaine,b_domaine,discr,signe,choix,type_meth,degre,Nbr_maillage,CI,CI1,CLa_type,CLa_exp,CLb_type,CLb_exp,oper,a1,b1,a2,b2,a3,b3,a4,b4,a5,b5,a6,b6,a7,b7,k,mesures,params_pde]'
p5
g2
sS'arg1'
p6
S'object'
p7
sS'graphics'
p8
g7
sS'[flag_type,this.rdnom,DF_type,tt]'
p9
g2
sS'model.out'
p10
S'matrix'
p11
sS'label[3-1]'
p12
NsS'out'
p13
g11
sS'ind4'
p14
g2
sS'model.in1'
p15
g11
sS'ind1'
p16
g2
sS'ind2'
p17
g2
sS'type_meth'
p18
g2
sS'this.x.graphics'
p19
g7
sS'label'
p20
S'vector'
p21
sS'rdnom'
p22
S'string'
p23
sS'this.x'
p24
g2
sS'model.sim'
p25
g21
sS'this.rdnom'
p26
g2
sS'label[2-1]'
p27
NsS'this.x.model'
p28
NsS'model.state'
p29
g2
sS'delta'
p30
g2
sS'okk'
p31
g4
sS'typ'
p32
g21
sS'[ok1]'
p33
g2
sS'[model,graphics,ok]'
p34
g2
sS'model.blocktype'
p35
g23
sS'Nbr'
p36
g23
sS'label[1-1]'
p37
g2
sS'model.dep_ut'
p38
g21
sS'gr_i'
p39
g21
sS'graphics.exprs'
p40
NsS'y'
p41
g21
sS'model'
p42
g2
s.