c__builtin__
set
p0
((lp1
S'okk'
p2
aS'lab'
p3
aS'graphics'
p4
aS'x'
p5
aS'model'
p6
aS'rdnom'
p7
atp8
Rp9
.(dp0
S'params_pde'
p1
S'double'
p2
sS'ok1'
p3
S'boolean'
p4
sS'arg1'
p5
S'object'
p6
sS'graphics'
p7
g6
sS'x.model'
p8
NsS'model.out'
p9
S'matrix'
p10
sS'label[3-1]'
p11
NsS'x.graphics'
p12
g6
sS'out'
p13
g10
sS'ind4'
p14
g2
sS'model.in1'
p15
g10
sS'ind1'
p16
g2
sS'ind2'
p17
g2
sS'type_meth'
p18
g2
sS'label'
p19
S'list'
p20
sS'rdnom'
p21
g2
sS'model.sim'
p22
g20
sS'label[2-1]'
p23
NsS'model.state'
p24
g2
sS'delta'
p25
g2
sS'okk'
p26
g4
sS'typ'
p27
S'vector'
p28
sS'model.blocktype'
p29
S'string'
p30
sS'Nbr'
p31
g30
sS'label[1-1]'
p32
g2
sS'model.dep_ut'
p33
g28
sS'gr_i'
p34
g28
sS'graphics.exprs'
p35
NsS'y'
p36
g28
sS'x'
p37
g2
sS'model'
p38
g6
s.