c__builtin__
set
p0
((lp1
S'lab'
p2
aS'rdnom'
p3
aS'exprs'
p4
aS'gr_i'
p5
aS'graphics'
p6
aS'x'
p7
aS'model'
p8
aS'okk'
p9
atp10
Rp11
.(dp0
S'params_pde'
p1
S'double'
p2
sS'ok1'
p3
S'boolean'
p4
sS'arg1'
p5
S'object'
p6
sS'graphics'
p7
g6
sS'x.model'
p8
NsS'model.out'
p9
S'matrix'
p10
sS'label[3-1]'
p11
NsS'x.graphics'
p12
g6
sS'out'
p13
g10
sS'ind4'
p14
g2
sS'ind1'
p15
g2
sS'ind2'
p16
g2
sS'type_meth'
p17
g2
sS'label'
p18
S'list'
p19
sS'rdnom'
p20
g2
sS'model.sim'
p21
g19
sS'label[2-1]'
p22
NsS'model.state'
p23
g2
sS'model.in'
p24
g10
sS'delta'
p25
g2
sS'okk'
p26
g4
sS'typ'
p27
S'vector'
p28
sS'model.blocktype'
p29
S'string'
p30
sS'Nbr'
p31
g30
sS'label[1-1]'
p32
g2
sS'model.dep_ut'
p33
S'vector_boolean'
p34
sS'gr_i'
p35
g28
sS'graphics.exprs'
p36
NsS'y'
p37
g28
sS'x'
p38
NsS'model'
p39
g6
s.