c__builtin__
set
p0
((lp1
S'x'
p2
aS'model'
p3
aS'rdnom'
p4
aS'graphics'
p5
atp6
Rp7
.(dp0
S'params_pde'
p1
S'double'
p2
sS'ok1'
p3
S'boolean'
p4
sS'graphics.exprs'
p5
NsS'x.model'
p6
NsS'model.out'
p7
S'matrix'
p8
sS'label[3-1]'
p9
NsS'x.graphics'
p10
S'object'
p11
sS'out'
p12
g8
sS'ind4'
p13
g2
sS'graphics'
p14
g11
sS'ind1'
p15
g2
sS'ind2'
p16
g2
sS'type_meth'
p17
g2
sS'label'
p18
S'list'
p19
sS'rdnom'
p20
g2
sS'model.sim'
p21
g19
sS'label[2-1]'
p22
NsS'model.state'
p23
g2
sS'model.in'
p24
g8
sS'delta'
p25
g2
sS'okk'
p26
g4
sS'typ'
p27
S'vector'
p28
sS'model.blocktype'
p29
S'string'
p30
sS'Nbr'
p31
g30
sS'label[1-1]'
p32
g2
sS'model.dep_ut'
p33
S'vector_boolean'
p34
sS'gr_i'
p35
g28
sS'y'
p36
g28
sS'x'
p37
g28
sS'model'
p38
g11
s.