c__builtin__
set
p0
((lp1
S'herit'
p2
aS'nd'
p3
aS'colr'
p4
aS'in1'
p5
aS'fontsize'
p6
aS'graphics'
p7
aS'x'
p8
aS'model'
p9
aS'font'
p10
aS'nt'
p11
atp12
Rp13
.(dp0
S'model.dstate'
p1
S'matrix'
p2
sS'graphics'
p3
S'object'
p4
sS'colr'
p5
S'double'
p6
sS'x.model'
p7
NsS'font'
p8
g6
sS'model.in2'
p9
g6
sS'x.graphics'
p10
g4
sS'nd'
p11
g6
sS'model.evtin'
p12
g6
sS'nt'
p13
g6
sS'model.firing'
p14
S'vector'
p15
sS'model.label'
p16
S'string'
p17
sS'model.sim'
p18
S'list'
p19
sS'mess'
p20
g2
sS'in1'
p21
g15
sS'fontsize'
p22
g6
sS'model.in'
p23
g6
sS'graphics.exprs'
p24
NsS'model.ipar'
p25
g2
sS'typ'
p26
g15
sS'ok'
p27
S'boolean'
p28
sS'model.blocktype'
p29
g17
sS'model.dep_ut'
p30
S'vector_boolean'
p31
sS'exprs'
p32
g2
sS'gr_i'
p33
g15
sS'y'
p34
g15
sS'x'
p35
g15
sS'model'
p36
g4
s.