c__builtin__
set
p0
((lp1
S'herit'
p2
aS'nd'
p3
aS'colr'
p4
aS'in1'
p5
aS'fontsize'
p6
aS'graphics'
p7
aS'x'
p8
aS'model'
p9
aS'font'
p10
aS'nt'
p11
atp12
Rp13
.(dp0
S'model.dstate'
p1
S'matrix'
p2
sS'graphics'
p3
S'object'
p4
sS'colr'
p5
S'double'
p6
sS'x.model'
p7
NsS'in'
p8
S'vector'
p9
sS'font'
p10
g6
sS'model.in2'
p11
g6
sS'x.graphics'
p12
g4
sS'nd'
p13
g6
sS'model.evtin'
p14
g6
sS'nt'
p15
g6
sS'model.firing'
p16
g9
sS'model.label'
p17
S'string'
p18
sS'model.sim'
p19
S'list'
p20
sS'mess'
p21
g2
sS'fontsize'
p22
g6
sS'model.in'
p23
g6
sS'graphics.exprs'
p24
NsS'model.ipar'
p25
g2
sS'typ'
p26
g9
sS'ok'
p27
S'boolean'
p28
sS'model.blocktype'
p29
g18
sS'model.dep_ut'
p30
S'vector_boolean'
p31
sS'exprs'
p32
g2
sS'gr_i'
p33
g9
sS'y'
p34
g9
sS'x'
p35
g9
sS'model'
p36
g4
s.