c__builtin__
set
p0
((lp1
S'herit'
p2
aS'nd'
p3
aS'colr'
p4
aS'in1'
p5
aS'fontsize'
p6
aS'x'
p7
aS'font'
p8
aS'nt'
p9
atp10
Rp11
.(dp0
S'model.label'
p1
S'string'
p2
sS'this.nt'
p3
S'double'
p4
sS'model.dstate'
p5
S'matrix'
p6
sS'arg1'
p7
S'object'
p8
sS'graphics'
p9
g8
sS'this.fontsize'
p10
g4
sS'this.nd'
p11
g4
sS'this.x.model'
p12
NsS'model.in2'
p13
g4
sS'model.in1'
p14
g4
sS'this.x.graphics'
p15
g8
sS'this.colr'
p16
g4
sS'model.evtin'
p17
g4
sS'model.firing'
p18
S'vector'
p19
sS'this.x'
p20
g4
sS'model.sim'
p21
g19
sS'mess'
p22
g6
sS'this.in1'
p23
g19
sS'graphics.exprs'
p24
NsS'model.ipar'
p25
g6
sS'typ'
p26
g19
sS'[model,graphics,ok]'
p27
g4
sS'ok'
p28
S'boolean'
p29
sS'model.blocktype'
p30
g2
sS'this.font'
p31
g4
sS'model.dep_ut'
p32
g19
sS'exprs'
p33
g6
sS'gr_i'
p34
g19
sS'y'
p35
g19
sS'model'
p36
g8
s.