c__builtin__
set
p0
((lp1
S'herit'
p2
aS'nd'
p3
aS'colr'
p4
aS'in1'
p5
aS'exprs'
p6
aS'gr_i'
p7
aS'fontsize'
p8
aS'graphics'
p9
aS'x'
p10
aS'model'
p11
aS'font'
p12
aS'nt'
p13
atp14
Rp15
.(dp0
S'model.dstate'
p1
S'matrix'
p2
sS'arg1'
p3
S'object'
p4
sS'graphics'
p5
g4
sS'colr'
p6
S'double'
p7
sS'x.model'
p8
NsS'font'
p9
g7
sS'model.in2'
p10
g7
sS'x.graphics'
p11
g4
sS'nd'
p12
g7
sS'model.evtin'
p13
g7
sS'nt'
p14
g7
sS'model.firing'
p15
S'vector'
p16
sS'model.label'
p17
S'string'
p18
sS'model.sim'
p19
S'list'
p20
sS'mess'
p21
g2
sS'in1'
p22
g16
sS'fontsize'
p23
g7
sS'model.in'
p24
g7
sS'graphics.exprs'
p25
NsS'model.ipar'
p26
g2
sS'typ'
p27
g16
sS'ok'
p28
S'boolean'
p29
sS'model.blocktype'
p30
g18
sS'model.dep_ut'
p31
g16
sS'exprs'
p32
g2
sS'gr_i'
p33
g16
sS'y'
p34
g16
sS'x'
p35
g7
sS'model'
p36
g4
s.