c__builtin__
set
p0
((lp1
S'herit'
p2
aS'nd'
p3
aS'colr'
p4
aS'in1'
p5
aS'fontsize'
p6
aS'x'
p7
aS'model'
p8
aS'font'
p9
aS'nt'
p10
atp11
Rp12
.(dp0
S'model.dstate'
p1
S'matrix'
p2
sS'arg1'
p3
S'object'
p4
sS'graphics'
p5
g4
sS'colr'
p6
S'double'
p7
sS'x.model'
p8
NsS'font'
p9
g7
sS'model.in2'
p10
g7
sS'model.in1'
p11
g7
sS'x.graphics'
p12
g4
sS'nd'
p13
g7
sS'model.evtin'
p14
g7
sS'nt'
p15
g7
sS'model.firing'
p16
S'vector'
p17
sS'model.label'
p18
S'string'
p19
sS'model.sim'
p20
S'list'
p21
sS'mess'
p22
g2
sS'in1'
p23
g17
sS'fontsize'
p24
g7
sS'graphics.exprs'
p25
NsS'model.ipar'
p26
g2
sS'typ'
p27
g17
sS'ok'
p28
S'boolean'
p29
sS'model.blocktype'
p30
g19
sS'model.dep_ut'
p31
g17
sS'exprs'
p32
g2
sS'gr_i'
p33
g17
sS'y'
p34
g17
sS'x'
p35
g7
sS'model'
p36
g4
s.