c__builtin__
set
p0
((lp1
S'ymax'
p2
aS'thickness'
p3
aS'xmax'
p4
aS'xmin'
p5
aS'x'
p6
aS'ymin'
p7
atp8
Rp9
.(dp0
S'arg1'
p1
S'object'
p2
sS'graphics'
p3
g2
sS'this.x.model'
p4
NsS'model.out'
p5
S'vector'
p6
sS'model.in1'
p7
S'matrix'
p8
sS'model.ipar'
p9
S'double'
p10
sS'this.ymin'
p11
g10
sS'this.xmax'
p12
g10
sS'this.x.graphics.exprs'
p13
g8
sS'this.x.graphics'
p14
g2
sS'this.ymax'
p15
g10
sS'model.evtin'
p16
g6
sS'this.x.graphics.in_implicit'
p17
g6
sS'this.x'
p18
g10
sS'model.sim'
p19
g6
sS'mess'
p20
g8
sS'model.intyp'
p21
g6
sS'model.rpar'
p22
g8
sS'graphics.exprs'
p23
NsS'this.xmin'
p24
g10
sS'typ'
p25
g6
sS'ok'
p26
S'boolean'
p27
sS'model.blocktype'
p28
S'string'
p29
sS'model.dep_ut'
p30
g6
sS'exprs'
p31
NsS'this.x.graphics.out_implicit'
p32
g6
sS'y'
p33
g6
sS'model'
p34
g2
s.