c__builtin__
set
p0
((lp1
S'ymax'
p2
aS'thickness'
p3
aS'exprs'
p4
aS'gr_i'
p5
aS'xmax'
p6
aS'graphics'
p7
aS'xmin'
p8
aS'x'
p9
aS'model'
p10
aS'ymin'
p11
atp12
Rp13
.(dp0
S'arg1'
p1
S'object'
p2
sS'graphics'
p3
g2
sS'model.out'
p4
S'vector'
p5
sS'x.model'
p6
NsS'xmin'
p7
S'double'
p8
sS'ymin'
p9
g8
sS'model.in1'
p10
S'matrix'
p11
sS'ymax'
p12
g8
sS'x.graphics'
p13
g2
sS'x.graphics.in_implicit'
p14
g5
sS'model.evtin'
p15
g5
sS'model.sim'
p16
S'list'
p17
sS'mess'
p18
g11
sS'x.graphics.out_implicit'
p19
g5
sS'model.intyp'
p20
g5
sS'model.rpar'
p21
g11
sS'graphics.exprs'
p22
NsS'model.ipar'
p23
g8
sS'typ'
p24
g5
sS'ok'
p25
S'boolean'
p26
sS'model.blocktype'
p27
S'string'
p28
sS'model.dep_ut'
p29
g5
sS'exprs'
p30
NsS'x.graphics.exprs'
p31
g11
sS'xmax'
p32
g8
sS'y'
p33
g5
sS'x'
p34
g8
sS'model'
p35
g2
s.