c__builtin__
set
p0
((lp1
S'ymax'
p2
aS'thickness'
p3
aS'xmax'
p4
aS'xmin'
p5
aS'x'
p6
aS'ymin'
p7
atp8
Rp9
.(dp0
S'arg1'
p1
S'object'
p2
sS'graphics'
p3
g2
sS'model.out'
p4
S'vector'
p5
sS'x.model'
p6
NsS'xmin'
p7
S'double'
p8
sS'ymin'
p9
g8
sS'model.in1'
p10
S'matrix'
p11
sS'ymax'
p12
g8
sS'x.graphics'
p13
g2
sS'x.graphics.in_implicit'
p14
g5
sS'model.evtin'
p15
g5
sS'model.sim'
p16
g5
sS'mess'
p17
g11
sS'x.graphics.out_implicit'
p18
g5
sS'model.intyp'
p19
g5
sS'model.rpar'
p20
g11
sS'graphics.exprs'
p21
NsS'model.ipar'
p22
g8
sS'typ'
p23
g5
sS'ok'
p24
S'boolean'
p25
sS'model.blocktype'
p26
S'string'
p27
sS'model.dep_ut'
p28
g5
sS'exprs'
p29
NsS'x.graphics.exprs'
p30
g11
sS'xmax'
p31
g8
sS'y'
p32
g5
sS'x'
p33
g8
sS'model'
p34
g2
s.