c__builtin__
set
p0
((lp1
S'ymax'
p2
aS'thickness'
p3
aS'xmax'
p4
aS'graphics'
p5
aS'xmin'
p6
aS'x'
p7
aS'model'
p8
aS'ymin'
p9
atp10
Rp11
.(dp0
S'graphics'
p1
S'object'
p2
sS'model.out'
p3
S'vector'
p4
sS'x.model'
p5
NsS'xmin'
p6
S'double'
p7
sS'ymin'
p8
g7
sS'model.intyp'
p9
g4
sS'ymax'
p10
g7
sS'x.graphics'
p11
g2
sS'x.graphics.in_implicit'
p12
S'vector_string'
p13
sS'model.evtin'
p14
g4
sS'model.sim'
p15
S'list'
p16
sS'mess'
p17
S'matrix'
p18
sS'x.graphics.out_implicit'
p19
g4
sS'model.rpar'
p20
g18
sS'model.in'
p21
g18
sS'graphics.exprs'
p22
NsS'model.ipar'
p23
g7
sS'typ'
p24
g4
sS'ok'
p25
S'boolean'
p26
sS'model.blocktype'
p27
S'string'
p28
sS'model.dep_ut'
p29
S'vector_boolean'
p30
sS'exprs'
p31
NsS'x.graphics.exprs'
p32
g18
sS'xmax'
p33
g7
sS'y'
p34
g4
sS'x'
p35
g4
sS'model'
p36
g2
s.