c__builtin__
set
p0
((lp1
S'ymax'
p2
aS'thickness'
p3
aS'exprs'
p4
aS'gr_i'
p5
aS'xmax'
p6
aS'graphics'
p7
aS'xmin'
p8
aS'x'
p9
aS'model'
p10
aS'ymin'
p11
atp12
Rp13
.(dp0
S'arg1'
p1
S'object'
p2
sS'graphics'
p3
g2
sS'model.out'
p4
S'vector'
p5
sS'x.model'
p6
NsS'xmin'
p7
S'double'
p8
sS'ymin'
p9
g8
sS'model.intyp'
p10
g5
sS'ymax'
p11
g8
sS'x.graphics'
p12
g2
sS'x.graphics.in_implicit'
p13
g5
sS'model.evtin'
p14
g5
sS'model.sim'
p15
S'list'
p16
sS'mess'
p17
S'matrix'
p18
sS'x.graphics.out_implicit'
p19
g5
sS'model.rpar'
p20
g18
sS'model.in'
p21
g18
sS'graphics.exprs'
p22
NsS'model.ipar'
p23
g8
sS'typ'
p24
g5
sS'ok'
p25
S'boolean'
p26
sS'model.blocktype'
p27
S'string'
p28
sS'model.dep_ut'
p29
g5
sS'exprs'
p30
NsS'x.graphics.exprs'
p31
g18
sS'xmax'
p32
g8
sS'y'
p33
g5
sS'x'
p34
NsS'model'
p35
g2
s.