c__builtin__
set
p0
((lp1
S'ymax'
p2
aS'thickness'
p3
aS'exprs'
p4
aS'gr_i'
p5
aS'xmax'
p6
aS'graphics'
p7
aS'xmin'
p8
aS'x'
p9
aS'model'
p10
aS'ymin'
p11
atp12
Rp13
.(dp0
S'arg1'
p1
S'object'
p2
sS'graphics'
p3
g2
sS'model.out'
p4
S'vector'
p5
sS'x.model'
p6
NsS'xmin'
p7
S'double'
p8
sS'ymin'
p9
g8
sS'model.intyp'
p10
g5
sS'ymax'
p11
g8
sS'x.graphics'
p12
g2
sS'x.graphics.in_implicit'
p13
S'vector_string'
p14
sS'model.evtin'
p15
g5
sS'model.sim'
p16
S'list'
p17
sS'mess'
p18
S'matrix'
p19
sS'x.graphics.out_implicit'
p20
g5
sS'model.rpar'
p21
g19
sS'model.in'
p22
g19
sS'graphics.exprs'
p23
NsS'model.ipar'
p24
g8
sS'typ'
p25
g5
sS'ok'
p26
S'boolean'
p27
sS'model.blocktype'
p28
S'string'
p29
sS'model.dep_ut'
p30
S'vector_boolean'
p31
sS'exprs'
p32
NsS'x.graphics.exprs'
p33
g19
sS'xmax'
p34
g8
sS'y'
p35
g5
sS'x'
p36
NsS'model'
p37
g2
s.