c__builtin__
set
p0
((lp1
S'ymax'
p2
aS'thickness'
p3
aS'xmax'
p4
aS'xmin'
p5
aS'x'
p6
aS'ymin'
p7
atp8
Rp9
.c__builtin__
set
p0
((lp1
tp2
Rp3
.c__builtin__
set
p0
((lp1
tp2
Rp3
.c__builtin__
set
p0
((lp1
tp2
Rp3
.c__builtin__
set
p0
((lp1
tp2
Rp3
.c__builtin__
set
p0
((lp1
tp2
Rp3
.