c__builtin__
set
p0
((lp1
S'clrs'
p2
aS'vec_y'
p3
aS'wpos'
p4
aS'vec_z'
p5
aS'win'
p6
aS'vec_x'
p7
aS'wdim'
p8
aS'param3ds'
p9
aS'N'
p10
aS'siz'
p11
aS'x'
p12
aS'model'
p13
aS'nbr_curves'
p14
atp15
Rp16
.(dp0
S'clrs'
p1
S'matrix'
p2
sS'wpos'
p3
g2
sS'arg1'
p4
S'object'
p5
sS'wdim'
p6
g2
sS'rpar'
p7
g2
sS'x.model'
p8
NsS'model.intyp'
p9
g2
sS'model.in1'
p10
g2
sS'model.in2'
p11
g2
sS'graphics'
p12
g5
sS'x.graphics'
p13
g5
sS'siz'
p14
g2
sS'vec_z'
p15
g2
sS'win'
p16
S'double'
p17
sS'model.evtin'
p18
g17
sS'model.firing'
p19
S'vector'
p20
sS'model.sim'
p21
g20
sS'mess'
p22
g2
sS'vec_x'
p23
g2
sS'vec_y'
p24
g2
sS'in1'
p25
S'string'
p26
sS'in2'
p27
g17
sS'N'
p28
g17
sS'size_siz'
p29
g17
sS'model.rpar'
p30
g2
sS'graphics.exprs'
p31
NsS'model.ipar'
p32
g2
sS'typ'
p33
g20
sS'[model,graphics,ok]'
p34
g17
sS'ok'
p35
S'boolean'
p36
sS'model.blocktype'
p37
g26
sS'param3ds'
p38
g2
sS'model.dep_ut'
p39
g20
sS'exprs'
p40
g2
sS'gr_i'
p41
g20
sS'ipar'
p42
g2
sS'y'
p43
g20
sS'x'
p44
g17
sS'model'
p45
g5
sS'nbr_curves'
p46
g17
s.