c__builtin__
set
p0
((lp1
S'clrs'
p2
aS'vec_y'
p3
aS'wpos'
p4
aS'vec_z'
p5
aS'siz'
p6
aS'vec_x'
p7
aS'wdim'
p8
aS'param3ds'
p9
aS'N'
p10
aS'graphics'
p11
aS'x'
p12
aS'model'
p13
aS'nbr_curves'
p14
aS'win'
p15
atp16
Rp17
.(dp0
S'clrs'
p1
S'matrix'
p2
sS'wpos'
p3
g2
sS'win'
p4
S'double'
p5
sS'wdim'
p6
g2
sS'rpar'
p7
g2
sS'x.model'
p8
NsS'model.intyp'
p9
g2
sS'model.in2'
p10
g2
sS'graphics'
p11
S'object'
p12
sS'x.graphics'
p13
g12
sS'siz'
p14
g2
sS'vec_z'
p15
g2
sS'arg1'
p16
g12
sS'model.evtin'
p17
g5
sS'model.firing'
p18
S'vector'
p19
sS'model.sim'
p20
S'list'
p21
sS'mess'
p22
g2
sS'vec_x'
p23
g2
sS'vec_y'
p24
g2
sS'in1'
p25
S'string'
p26
sS'in2'
p27
g5
sS'N'
p28
g5
sS'size_siz'
p29
g5
sS'model.rpar'
p30
g2
sS'model.in'
p31
g2
sS'graphics.exprs'
p32
NsS'model.ipar'
p33
g2
sS'typ'
p34
g19
sS'ok'
p35
S'boolean'
p36
sS'model.blocktype'
p37
g26
sS'param3ds'
p38
g2
sS'model.dep_ut'
p39
S'vector_boolean'
p40
sS'exprs'
p41
g2
sS'gr_i'
p42
g19
sS'ipar'
p43
g2
sS'y'
p44
g19
sS'x'
p45
NsS'model'
p46
g12
sS'nbr_curves'
p47
g5
s.