c__builtin__
set
p0
((lp1
S'clrs'
p2
aS'vec_y'
p3
aS'wpos'
p4
aS'vec_z'
p5
aS'siz'
p6
aS'vec_x'
p7
aS'wdim'
p8
aS'param3ds'
p9
aS'N'
p10
aS'exprs'
p11
aS'gr_i'
p12
aS'graphics'
p13
aS'x'
p14
aS'model'
p15
aS'nbr_curves'
p16
aS'win'
p17
atp18
Rp19
.(dp0
S'clrs'
p1
S'matrix'
p2
sS'wpos'
p3
g2
sS'win'
p4
S'double'
p5
sS'wdim'
p6
g2
sS'rpar'
p7
g2
sS'x.model'
p8
NsS'model.intyp'
p9
g2
sS'model.in1'
p10
g2
sS'model.in2'
p11
g2
sS'graphics'
p12
S'object'
p13
sS'x.graphics'
p14
g13
sS'siz'
p15
g2
sS'vec_z'
p16
g2
sS'arg1'
p17
g13
sS'model.evtin'
p18
g5
sS'model.firing'
p19
S'vector'
p20
sS'model.sim'
p21
S'list'
p22
sS'mess'
p23
g2
sS'vec_x'
p24
g2
sS'vec_y'
p25
g2
sS'in1'
p26
S'string'
p27
sS'in2'
p28
g5
sS'N'
p29
g5
sS'size_siz'
p30
g5
sS'model.rpar'
p31
g2
sS'graphics.exprs'
p32
NsS'model.ipar'
p33
g2
sS'typ'
p34
g20
sS'ok'
p35
S'boolean'
p36
sS'model.blocktype'
p37
g27
sS'param3ds'
p38
g2
sS'model.dep_ut'
p39
g20
sS'exprs'
p40
g2
sS'gr_i'
p41
g20
sS'ipar'
p42
g2
sS'y'
p43
g20
sS'x'
p44
g5
sS'model'
p45
g13
sS'nbr_curves'
p46
g5
s.