c__builtin__
set
p0
((lp1
S'clrs'
p2
aS'ymin'
p3
aS'ymax'
p4
aS'wpos'
p5
aS'siz'
p6
aS'wdim'
p7
aS'N'
p8
aS'xmax'
p9
aS'graphics'
p10
aS'xmin'
p11
aS'x'
p12
aS'model'
p13
aS'nbr_curves'
p14
aS'win'
p15
atp16
Rp17
.(dp0
S'clrs'
p1
S'double'
p2
sS'wpos'
p3
S'matrix'
p4
sS'win'
p5
g2
sS'wdim'
p6
g4
sS'rpar'
p7
g4
sS'x.model'
p8
NsS'model.intyp'
p9
g4
sS'xmin'
p10
g2
sS'ymin'
p11
g2
sS'model.in2'
p12
g4
sS'graphics'
p13
S'object'
p14
sS'ymax'
p15
g2
sS'x.graphics'
p16
g14
sS'siz'
p17
g2
sS'model.evtin'
p18
g2
sS'model.firing'
p19
S'vector'
p20
sS'model.sim'
p21
S'list'
p22
sS'xmax'
p23
g2
sS'mess'
p24
g4
sS'in1'
p25
S'string'
p26
sS'in2'
p27
g2
sS'N'
p28
g2
sS'model.rpar'
p29
g4
sS'model.in'
p30
g4
sS'graphics.exprs'
p31
NsS'model.ipar'
p32
g4
sS'typ'
p33
g20
sS'ok'
p34
S'boolean'
p35
sS'model.blocktype'
p36
g26
sS'model.dep_ut'
p37
S'vector_boolean'
p38
sS'exprs'
p39
g4
sS'gr_i'
p40
g20
sS'ipar'
p41
g4
sS'y'
p42
g20
sS'x'
p43
g20
sS'model'
p44
g14
sS'nbr_curves'
p45
g2
s.