c__builtin__
set
p0
((lp1
S'clrs'
p2
aS'ymin'
p3
aS'ymax'
p4
aS'wpos'
p5
aS'win'
p6
aS'wdim'
p7
aS'N'
p8
aS'xmax'
p9
aS'siz'
p10
aS'xmin'
p11
aS'x'
p12
aS'nbr_curves'
p13
atp14
Rp15
.(dp0
S'arg1'
p1
S'object'
p2
sS'graphics'
p3
g2
sS'rpar'
p4
S'matrix'
p5
sS'this.siz'
p6
S'double'
p7
sS'model.intyp'
p8
g5
sS'this.x.model'
p9
NsS'this.wdim'
p10
g5
sS'this.wpos'
p11
g5
sS'model.in1'
p12
g5
sS'this.xmin'
p13
g7
sS'this.ymin'
p14
g7
sS'this.xmax'
p15
g7
sS'typ'
p16
S'vector'
p17
sS'this.ymax'
p18
g7
sS'this.win'
p19
g7
sS'this.clrs'
p20
g7
sS'this.nbr_curves'
p21
g7
sS'model.evtin'
p22
g7
sS'model.firing'
p23
g17
sS'this.x'
p24
g7
sS'model.sim'
p25
g17
sS'this.N'
p26
g7
sS'model.in2'
p27
g5
sS'mess'
p28
g5
sS'in1'
p29
S'string'
p30
sS'in2'
p31
g7
sS'model.rpar'
p32
g5
sS'graphics.exprs'
p33
NsS'model.ipar'
p34
g5
sS'this.x.graphics'
p35
g2
sS'[model,graphics,ok]'
p36
g7
sS'ok'
p37
S'boolean'
p38
sS'model.blocktype'
p39
g30
sS'model.dep_ut'
p40
g17
sS'exprs'
p41
g5
sS'gr_i'
p42
g17
sS'ipar'
p43
g5
sS'y'
p44
g17
sS'model'
p45
g2
s.