c__builtin__
set
p0
((lp1
S'clrs'
p2
aS'vec_y'
p3
aS'wpos'
p4
aS'vec_z'
p5
aS'siz'
p6
aS'vec_x'
p7
aS'wdim'
p8
aS'param3ds'
p9
aS'N'
p10
aS'graphics'
p11
aS'x'
p12
aS'model'
p13
aS'nbr_curves'
p14
aS'win'
p15
atp16
Rp17
.(dp0
S'clrs'
p1
S'matrix'
p2
sS'wpos'
p3
g2
sS'win'
p4
S'double'
p5
sS'wdim'
p6
g2
sS'rpar'
p7
g2
sS'x.model'
p8
NsS'model.intyp'
p9
g2
sS'model.in2'
p10
g2
sS'graphics'
p11
S'object'
p12
sS'x.graphics'
p13
g12
sS'siz'
p14
g2
sS'vec_z'
p15
g2
sS'model.evtin'
p16
g5
sS'model.firing'
p17
S'vector'
p18
sS'model.sim'
p19
S'list'
p20
sS'mess'
p21
g2
sS'vec_x'
p22
g2
sS'vec_y'
p23
g2
sS'in1'
p24
S'string'
p25
sS'in2'
p26
g5
sS'N'
p27
g5
sS'size_siz'
p28
g5
sS'model.rpar'
p29
g2
sS'model.in'
p30
g2
sS'graphics.exprs'
p31
NsS'model.ipar'
p32
g2
sS'typ'
p33
g18
sS'ok'
p34
S'boolean'
p35
sS'model.blocktype'
p36
g25
sS'param3ds'
p37
g2
sS'model.dep_ut'
p38
S'vector_boolean'
p39
sS'exprs'
p40
g2
sS'gr_i'
p41
g18
sS'ipar'
p42
g2
sS'y'
p43
g18
sS'x'
p44
g18
sS'model'
p45
g12
sS'nbr_curves'
p46
g5
s.