c__builtin__
set
p0
((lp1
S'clrs'
p2
aS'vec_y'
p3
aS'wpos'
p4
aS'vec_z'
p5
aS'win'
p6
aS'vec_x'
p7
aS'wdim'
p8
aS'param3ds'
p9
aS'N'
p10
aS'siz'
p11
aS'x'
p12
aS'model'
p13
aS'nbr_curves'
p14
atp15
Rp16
.(dp0
S'clrs'
p1
S'matrix'
p2
sS'wpos'
p3
g2
sS'arg1'
p4
S'object'
p5
sS'wdim'
p6
g2
sS'rpar'
p7
g2
sS'x.model'
p8
NsS'model.intyp'
p9
g2
sS'model.in1'
p10
g2
sS'model.in2'
p11
g2
sS'graphics'
p12
g5
sS'x.graphics'
p13
g5
sS'siz'
p14
g2
sS'vec_z'
p15
g2
sS'win'
p16
S'double'
p17
sS'model.evtin'
p18
g17
sS'vec_x'
p19
g2
sS'model.firing'
p20
S'vector'
p21
sS'model.sim'
p22
S'list'
p23
sS'mess'
p24
g2
sS'[this.model,graphics,ok]'
p25
g17
sS'vec_y'
p26
g2
sS'in1'
p27
S'string'
p28
sS'in2'
p29
g17
sS'N'
p30
g17
sS'size_siz'
p31
g17
sS'model.rpar'
p32
g2
sS'graphics.exprs'
p33
NsS'model.ipar'
p34
g2
sS'typ'
p35
g21
sS'ok'
p36
S'boolean'
p37
sS'model.blocktype'
p38
g28
sS'param3ds'
p39
g2
sS'model.dep_ut'
p40
g21
sS'exprs'
p41
g2
sS'gr_i'
p42
g21
sS'ipar'
p43
g2
sS'y'
p44
g21
sS'x'
p45
g17
sS'model'
p46
g5
sS'nbr_curves'
p47
g17
s.