c__builtin__
set
p0
((lp1
S'clrs'
p2
aS'vec_y'
p3
aS'wpos'
p4
aS'vec_z'
p5
aS'win'
p6
aS'vec_x'
p7
aS'wdim'
p8
aS'param3ds'
p9
aS'N'
p10
aS'siz'
p11
aS'x'
p12
aS'nbr_curves'
p13
atp14
Rp15
.(dp0
S'arg1'
p1
S'object'
p2
sS'graphics'
p3
g2
sS'rpar'
p4
S'matrix'
p5
sS'this.siz'
p6
g5
sS'model.intyp'
p7
g5
sS'model.dep_ut'
p8
S'vector'
p9
sS'this.x.model'
p10
NsS'this.wdim'
p11
g5
sS'this.vec_z'
p12
g5
sS'this.vec_y'
p13
g5
sS'this.vec_x'
p14
g5
sS'this.win'
p15
S'double'
p16
sS'model.in1'
p17
g5
sS'typ'
p18
g9
sS'this.wpos'
p19
g5
sS'this.clrs'
p20
g5
sS'this.nbr_curves'
p21
g16
sS'model.evtin'
p22
g16
sS'model.firing'
p23
g9
sS'this.x'
p24
g16
sS'model.sim'
p25
g9
sS'this.N'
p26
g16
sS'model.in2'
p27
g5
sS'mess'
p28
g5
sS'in1'
p29
S'string'
p30
sS'in2'
p31
g16
sS'size_siz'
p32
g16
sS'model.rpar'
p33
g5
sS'graphics.exprs'
p34
NsS'model.ipar'
p35
g5
sS'this.x.graphics'
p36
g2
sS'[model,graphics,ok]'
p37
g16
sS'ok'
p38
S'boolean'
p39
sS'model.blocktype'
p40
g30
sS'this.param3ds'
p41
g5
sS'exprs'
p42
g5
sS'gr_i'
p43
g9
sS'ipar'
p44
g5
sS'y'
p45
g9
sS'model'
p46
g16
s.