c__builtin__
set
p0
((lp1
S'clrs'
p2
aS'ymin'
p3
aS'ymax'
p4
aS'wpos'
p5
aS'win'
p6
aS'wdim'
p7
aS'N'
p8
aS'xmax'
p9
aS'siz'
p10
aS'xmin'
p11
aS'x'
p12
aS'model'
p13
aS'nbr_curves'
p14
atp15
Rp16
.(dp0
S'clrs'
p1
S'double'
p2
sS'wpos'
p3
S'matrix'
p4
sS'win'
p5
g2
sS'wdim'
p6
g4
sS'rpar'
p7
g4
sS'x.model'
p8
NsS'model.intyp'
p9
g4
sS'model.in1'
p10
g4
sS'xmin'
p11
g2
sS'ymin'
p12
g2
sS'model.in2'
p13
g4
sS'graphics'
p14
S'object'
p15
sS'ymax'
p16
g2
sS'x.graphics'
p17
g15
sS'siz'
p18
g2
sS'arg1'
p19
g15
sS'model.evtin'
p20
g2
sS'model.firing'
p21
S'vector'
p22
sS'model.sim'
p23
S'list'
p24
sS'xmax'
p25
g2
sS'mess'
p26
g4
sS'in1'
p27
S'string'
p28
sS'in2'
p29
g2
sS'N'
p30
g2
sS'model.rpar'
p31
g4
sS'graphics.exprs'
p32
NsS'model.ipar'
p33
g4
sS'typ'
p34
g22
sS'[model,graphics,ok]'
p35
g2
sS'ok'
p36
S'boolean'
p37
sS'model.blocktype'
p38
g28
sS'model.dep_ut'
p39
g22
sS'exprs'
p40
g4
sS'gr_i'
p41
g22
sS'ipar'
p42
g4
sS'y'
p43
g22
sS'x'
p44
g2
sS'model'
p45
g15
sS'nbr_curves'
p46
g2
s.