c__builtin__
set
p0
((lp1
S'clrs'
p2
aS'wpos'
p3
aS'win'
p4
aS'wdim'
p5
aS'per'
p6
aS'graphics'
p7
aS'x'
p8
aS'model'
p9
aS'nclock'
p10
atp11
Rp12
.(dp0
S'clrs'
p1
S'matrix'
p2
sS'wpos'
p3
g2
sS'win'
p4
S'double'
p5
sS'graphics.exprs'
p6
NsS'rpar'
p7
NsS'x.model'
p8
NsS'graphics'
p9
S'object'
p10
sS'x.graphics'
p11
g10
sS'per'
p12
g5
sS'model.evtin'
p13
g5
sS'model.sim'
p14
S'list'
p15
sS'mess'
p16
g2
sS'model.rpar'
p17
g5
sS'wdim'
p18
g2
sS'model.ipar'
p19
g2
sS'typ'
p20
S'vector'
p21
sS'nclock'
p22
g5
sS'ok'
p23
S'boolean'
p24
sS'model.blocktype'
p25
S'string'
p26
sS'model.dep_ut'
p27
S'vector_boolean'
p28
sS'exprs'
p29
g2
sS'gr_i'
p30
g21
sS'ipar'
p31
g2
sS'y'
p32
g21
sS'x'
p33
g21
sS'model'
p34
g10
s.