c__builtin__
set
p0
((lp1
S'clrs'
p2
aS'wpos'
p3
aS'win'
p4
aS'per'
p5
aS'wdim'
p6
aS'x'
p7
aS'nclock'
p8
atp9
Rp10
.(dp0
S'arg1'
p1
S'object'
p2
sS'graphics'
p3
g2
sS'rpar'
p4
NsS'this.x.model'
p5
NsS'this.wdim'
p6
S'matrix'
p7
sS'this.win'
p8
S'double'
p9
sS'typ'
p10
S'vector'
p11
sS'this.wpos'
p12
g7
sS'this.clrs'
p13
g7
sS'model.evtin'
p14
g9
sS'this.x'
p15
g9
sS'model.sim'
p16
g11
sS'this.per'
p17
g9
sS'mess'
p18
g7
sS'model.rpar'
p19
NsS'graphics.exprs'
p20
NsS'this.nclock'
p21
g9
sS'model.ipar'
p22
g7
sS'this.x.graphics'
p23
g2
sS'[model,graphics,ok]'
p24
g9
sS'ok'
p25
S'boolean'
p26
sS'model.blocktype'
p27
S'string'
p28
sS'model.dep_ut'
p29
g11
sS'exprs'
p30
g7
sS'gr_i'
p31
g11
sS'ipar'
p32
g7
sS'y'
p33
g11
sS'model'
p34
g9
s.