c__builtin__
set
p0
((lp1
S'clrs'
p2
aS'wpos'
p3
aS'win'
p4
aS'per'
p5
aS'wdim'
p6
aS'x'
p7
aS'model'
p8
aS'nclock'
p9
atp10
Rp11
.(dp0
S'clrs'
p1
S'matrix'
p2
sS'wpos'
p3
g2
sS'arg1'
p4
S'object'
p5
sS'graphics.exprs'
p6
NsS'rpar'
p7
NsS'x.model'
p8
NsS'graphics'
p9
g5
sS'x.graphics'
p10
g5
sS'per'
p11
S'double'
p12
sS'win'
p13
g12
sS'model.evtin'
p14
g12
sS'model.sim'
p15
S'list'
p16
sS'mess'
p17
g2
sS'[this.model,graphics,ok]'
p18
g12
sS'model.rpar'
p19
g12
sS'wdim'
p20
g2
sS'model.ipar'
p21
g2
sS'typ'
p22
S'vector'
p23
sS'nclock'
p24
g12
sS'ok'
p25
S'boolean'
p26
sS'model.blocktype'
p27
S'string'
p28
sS'model.dep_ut'
p29
g23
sS'exprs'
p30
g2
sS'gr_i'
p31
g23
sS'ipar'
p32
g2
sS'y'
p33
g23
sS'x'
p34
g12
sS'model'
p35
g5
s.