c__builtin__
set
p0
((lp1
S'clrs'
p2
aS'wpos'
p3
aS'win'
p4
aS'per'
p5
aS'wdim'
p6
aS'x'
p7
aS'model'
p8
aS'nclock'
p9
atp10
Rp11
.(dp0
S'clrs'
p1
S'matrix'
p2
sS'wpos'
p3
g2
sS'arg1'
p4
S'object'
p5
sS'graphics.exprs'
p6
NsS'rpar'
p7
NsS'x.model'
p8
NsS'graphics'
p9
g5
sS'x.graphics'
p10
g5
sS'per'
p11
S'double'
p12
sS'win'
p13
g12
sS'model.evtin'
p14
g12
sS'model.sim'
p15
S'vector'
p16
sS'mess'
p17
g2
sS'model.rpar'
p18
g12
sS'wdim'
p19
g2
sS'model.ipar'
p20
g2
sS'typ'
p21
g16
sS'nclock'
p22
g12
sS'[model,graphics,ok]'
p23
g12
sS'ok'
p24
S'boolean'
p25
sS'model.blocktype'
p26
S'string'
p27
sS'model.dep_ut'
p28
g16
sS'exprs'
p29
g2
sS'gr_i'
p30
g16
sS'ipar'
p31
g2
sS'y'
p32
g16
sS'x'
p33
g12
sS'model'
p34
g5
s.