c__builtin__
set
p0
((lp1
S'clrs'
p2
aS'ymax'
p3
aS'wpos'
p4
aS'win'
p5
aS'per'
p6
aS'N'
p7
aS'wu'
p8
aS'wdim'
p9
aS'x'
p10
aS'model'
p11
aS'ymin'
p12
atp13
Rp14
.(dp0
S'clrs'
p1
S'matrix'
p2
sS'wpos'
p3
g2
sS'arg1'
p4
S'object'
p5
sS'graphics.exprs'
p6
NsS'rpar'
p7
g2
sS'x.model'
p8
NsS'ymin'
p9
S'double'
p10
sS'graphics'
p11
g5
sS'ymax'
p12
g10
sS'x.graphics'
p13
g5
sS'per'
p14
g10
sS'win'
p15
g10
sS'model.evtin'
p16
g10
sS'model.firing'
p17
S'vector'
p18
sS'model.sim'
p19
g18
sS'mess'
p20
g2
sS'model.rpar'
p21
g2
sS'N'
p22
g10
sS'wdim'
p23
g2
sS'model.ipar'
p24
g2
sS'typ'
p25
g18
sS'ok'
p26
S'boolean'
p27
sS'model.blocktype'
p28
S'string'
p29
sS'clrs[8-1]'
p30
g10
sS'model.dep_ut'
p31
g18
sS'exprs'
p32
g2
sS'gr_i'
p33
g18
sS'ipar'
p34
g2
sS'y'
p35
g18
sS'x'
p36
g10
sS'model'
p37
g5
s.