c__builtin__
set
p0
((lp1
S'clrs'
p2
aS'ymax'
p3
aS'wpos'
p4
aS'win'
p5
aS'wdim'
p6
aS'per'
p7
aS'N'
p8
aS'wu'
p9
aS'graphics'
p10
aS'x'
p11
aS'model'
p12
aS'ymin'
p13
atp14
Rp15
.(dp0
S'clrs'
p1
S'matrix'
p2
sS'wpos'
p3
g2
sS'win'
p4
S'double'
p5
sS'graphics.exprs'
p6
NsS'rpar'
p7
g2
sS'x.model'
p8
NsS'ymin'
p9
g5
sS'graphics'
p10
S'object'
p11
sS'ymax'
p12
g5
sS'x.graphics'
p13
g11
sS'per'
p14
g5
sS'model.evtin'
p15
g5
sS'model.firing'
p16
S'vector'
p17
sS'model.sim'
p18
S'list'
p19
sS'mess'
p20
g2
sS'model.rpar'
p21
g2
sS'N'
p22
g5
sS'wdim'
p23
g2
sS'model.ipar'
p24
g2
sS'typ'
p25
g17
sS'ok'
p26
S'boolean'
p27
sS'model.blocktype'
p28
S'string'
p29
sS'clrs[8-1]'
p30
g5
sS'model.dep_ut'
p31
S'vector_boolean'
p32
sS'exprs'
p33
g2
sS'gr_i'
p34
g17
sS'ipar'
p35
g2
sS'y'
p36
g17
sS'x'
p37
g17
sS'model'
p38
g11
s.