c__builtin__
set
p0
((lp1
S'clrs'
p2
aS'ymax'
p3
aS'wpos'
p4
aS'win'
p5
aS'wdim'
p6
aS'per'
p7
aS'N'
p8
aS'wu'
p9
aS'graphics'
p10
aS'x'
p11
aS'model'
p12
aS'ymin'
p13
atp14
Rp15
.(dp0
S'clrs'
p1
S'matrix'
p2
sS'wpos'
p3
g2
sS'arg1'
p4
S'object'
p5
sS'graphics.exprs'
p6
NsS'rpar'
p7
g2
sS'x.model'
p8
NsS'ymin'
p9
S'double'
p10
sS'graphics'
p11
g5
sS'ymax'
p12
g10
sS'x.graphics'
p13
g5
sS'per'
p14
g10
sS'win'
p15
g10
sS'model.evtin'
p16
g10
sS'model.firing'
p17
S'vector'
p18
sS'model.sim'
p19
S'list'
p20
sS'mess'
p21
g2
sS'model.rpar'
p22
g2
sS'N'
p23
g10
sS'wdim'
p24
g2
sS'model.ipar'
p25
g2
sS'typ'
p26
g18
sS'ok'
p27
S'boolean'
p28
sS'model.blocktype'
p29
S'string'
p30
sS'clrs[8-1]'
p31
g10
sS'model.dep_ut'
p32
g18
sS'exprs'
p33
g2
sS'gr_i'
p34
g18
sS'ipar'
p35
g2
sS'y'
p36
g18
sS'x'
p37
g10
sS'model'
p38
g5
s.