c__builtin__
set
p0
((lp1
S'clrs'
p2
aS'ymax'
p3
aS'wpos'
p4
aS'win'
p5
aS'per'
p6
aS'N'
p7
aS'wu'
p8
aS'wdim'
p9
aS'x'
p10
aS'ymin'
p11
atp12
Rp13
.(dp0
S'arg1'
p1
S'object'
p2
sS'graphics'
p3
g2
sS'rpar'
p4
S'matrix'
p5
sS'this.x.model'
p6
NsS'this.wdim'
p7
g5
sS'this.win'
p8
S'double'
p9
sS'this.ymin'
p10
g9
sS'typ'
p11
S'vector'
p12
sS'this.ymax'
p13
g9
sS'this.wpos'
p14
g5
sS'this.clrs'
p15
g5
sS'model.evtin'
p16
g9
sS'model.firing'
p17
g12
sS'this.x'
p18
g9
sS'model.sim'
p19
g12
sS'this.N'
p20
g9
sS'mess'
p21
g5
sS'model.rpar'
p22
g5
sS'this.clrs[8-1]'
p23
g9
sS'graphics.exprs'
p24
NsS'this.per'
p25
g9
sS'model.ipar'
p26
g5
sS'this.x.graphics'
p27
g2
sS'ok'
p28
S'boolean'
p29
sS'model.blocktype'
p30
S'string'
p31
sS'model.dep_ut'
p32
g12
sS'exprs'
p33
g5
sS'gr_i'
p34
g12
sS'ipar'
p35
g5
sS'y'
p36
g12
sS'model'
p37
g2
s.