c__builtin__
set
p0
((lp1
S'clrs'
p2
aS'ymax'
p3
aS'wpos'
p4
aS'win'
p5
aS'per'
p6
aS'N'
p7
aS'wu'
p8
aS'wdim'
p9
aS'x'
p10
aS'ymin'
p11
atp12
Rp13
.c__builtin__
set
p0
((lp1
tp2
Rp3
.c__builtin__
set
p0
((lp1
tp2
Rp3
.c__builtin__
set
p0
((lp1
tp2
Rp3
.c__builtin__
set
p0
((lp1
tp2
Rp3
.c__builtin__
set
p0
((lp1
tp2
Rp3
.