c__builtin__
set
p0
((lp1
S'exprs'
p2
aS'prt'
p3
aS'gr_i'
p4
aS'graphics'
p5
aS'x'
p6
aS'model'
p7
atp8
Rp9
.(dp0
S'model.sim'
p1
S'string'
p2
sS'model.blocktype'
p3
g2
sS'prt'
p4
S'double'
p5
sS'arg1'
p6
S'object'
p7
sS'model.evtin'
p8
g5
sS'model.dep_ut'
p9
S'vector'
p10
sS'exprs'
p11
g2
sS'x.model'
p12
NsS'graphics.exprs'
p13
g5
sS'graphics'
p14
g7
sS'y'
p15
g10
sS'x'
p16
NsS'model'
p17
g7
sS'model.ipar'
p18
g5
sS'typ'
p19
g10
sS'x.graphics'
p20
g7
sS'model.firing'
p21
g10
s.