c__builtin__
set
p0
((lp1
S'prt'
p2
aS'x'
p3
aS'model'
p4
aS'graphics'
p5
atp6
Rp7
.(dp0
S'model.sim'
p1
S'string'
p2
sS'model.blocktype'
p3
g2
sS'prt'
p4
S'double'
p5
sS'model.evtin'
p6
g5
sS'model.dep_ut'
p7
S'vector_boolean'
p8
sS'exprs'
p9
g2
sS'x.model'
p10
NsS'graphics.exprs'
p11
g5
sS'graphics'
p12
S'object'
p13
sS'y'
p14
S'vector'
p15
sS'x'
p16
g15
sS'model'
p17
g13
sS'model.ipar'
p18
g5
sS'typ'
p19
g15
sS'x.graphics'
p20
g13
sS'model.firing'
p21
g15
s.