c__builtin__
set
p0
((lp1
S'prt'
p2
aS'x'
p3
aS'model'
p4
aS'graphics'
p5
atp6
Rp7
.(dp0
S'model.sim'
p1
S'string'
p2
sS'model.blocktype'
p3
g2
sS'prt'
p4
S'double'
p5
sS'arg1'
p6
S'object'
p7
sS'model.evtin'
p8
g5
sS'model.dep_ut'
p9
S'vector_boolean'
p10
sS'exprs'
p11
g2
sS'x.model'
p12
NsS'graphics.exprs'
p13
g5
sS'graphics'
p14
g7
sS'y'
p15
S'vector'
p16
sS'x'
p17
NsS'model'
p18
g7
sS'model.ipar'
p19
g5
sS'typ'
p20
g16
sS'x.graphics'
p21
g7
sS'model.firing'
p22
g16
s.