c__builtin__
set
p0
((lp1
S'x'
p2
aS'prt'
p3
atp4
Rp5
.(dp0
S'this.x'
p1
S'double'
p2
sS'model.sim'
p3
S'string'
p4
sS'model.blocktype'
p5
g4
sS'this.x.graphics'
p6
S'object'
p7
sS'arg1'
p8
g7
sS'model.evtin'
p9
g2
sS'model.dep_ut'
p10
S'vector'
p11
sS'this.x.model'
p12
NsS'exprs'
p13
g4
sS'this.prt'
p14
g2
sS'graphics.exprs'
p15
g2
sS'graphics'
p16
g7
sS'y'
p17
g11
sS'model'
p18
g2
sS'model.ipar'
p19
NsS'typ'
p20
g11
sS'model.firing'
p21
g11
s.