c__builtin__
set
p0
((lp1
S'standard_origin'
p2
aS'diag'
p3
aS'default_color'
p4
aS'prt'
p5
aS'x'
p6
aS'type'
p7
aS'options'
p8
atp9
Rp10
.(dp0
S'[this.x,y]'
p1
S'double'
p2
sS'xo'
p3
g2
sS'pcoli'
p4
g2
sS'arg1'
p5
S'object'
p6
sS'graphics.exprs'
p7
NsS'xf'
p8
g2
sS'prt'
p9
NsS'coli'
p10
g2
sS'thick'
p11
g2
sS'font'
p12
g2
sS'orient'
p13
NsS'orig'
p14
NsS'pat'
p15
g2
sS'this.x.graphics'
p16
g6
sS'this.prt'
p17
g2
sS'model.evtin'
p18
g2
sS'rectangle'
p19
g2
sS'this.x'
p20
g2
sS'model.sim'
p21
S'string'
p22
sS'yo'
p23
g2
sS'arg1.graphics'
p24
g6
sS'in1'
p25
g22
sS'yf'
p26
g2
sS'this.x.model'
p27
g6
sS'graphics'
p28
g6
sS'model.ipar'
p29
NsS'typ'
p30
S'vector'
p31
sS'sz'
p32
NsS'arg1.model'
p33
g6
sS'ident'
p34
NsS'model.blocktype'
p35
g22
sS'h'
p36
g2
sS'model.dep_ut'
p37
g31
sS'exprs'
p38
g22
sS'gr_i'
p39
NsS'model.firing'
p40
g31
sS'w'
p41
g2
sS'y'
p42
g31
sS'model'
p43
g2
sS'options'
p44
g6
s.