c__builtin__
set
p0
((lp1
S'standard_origin'
p2
aS'diag'
p3
aS'default_color'
p4
aS'prt'
p5
aS'x'
p6
aS'type'
p7
aS'options'
p8
atp9
Rp10
.(dp0
S'[this.x,y]'
p1
S'double'
p2
sS'xo'
p3
g2
sS'pcoli'
p4
g2
sS'arg1'
p5
S'object'
p6
sS'graphics.exprs'
p7
NsS'xf'
p8
g2
sS'prt'
p9
g2
sS'x.model'
p10
g6
sS'coli'
p11
g2
sS'thick'
p12
g2
sS'font'
p13
g2
sS'orient'
p14
NsS'orig'
p15
NsS'pat'
p16
g2
sS'x.graphics'
p17
g6
sS'model.evtin'
p18
g2
sS'rectangle'
p19
g2
sS'model.sim'
p20
S'string'
p21
sS'yo'
p22
g2
sS'arg1.graphics'
p23
g6
sS'in1'
p24
g21
sS'yf'
p25
g2
sS'graphics'
p26
g6
sS'model.ipar'
p27
g2
sS'typ'
p28
S'vector'
p29
sS'sz'
p30
NsS'arg1.model'
p31
g6
sS'ident'
p32
NsS'model.blocktype'
p33
g21
sS'h'
p34
g2
sS'model.dep_ut'
p35
g29
sS'exprs'
p36
g21
sS'gr_i'
p37
NsS'model.firing'
p38
g29
sS'w'
p39
g2
sS'y'
p40
g29
sS'x'
p41
g2
sS'model'
p42
g6
sS'options'
p43
g6
s.