c__builtin__
set
p0
((lp1
S'diag'
p2
aS'default_color'
p3
aS'prt'
p4
aS'graphics'
p5
aS'x'
p6
aS'model'
p7
aS'type'
p8
aS'options'
p9
atp10
Rp11
.(dp0
S'xo'
p1
S'double'
p2
sS'pcoli'
p3
g2
sS'arg1'
p4
S'object'
p5
sS'graphics.exprs'
p6
NsS'xf'
p7
g2
sS'prt'
p8
g2
sS'x.model'
p9
g5
sS'coli'
p10
g2
sS'thick'
p11
g2
sS'font'
p12
g2
sS'orient'
p13
NsS'orig'
p14
NsS'pat'
p15
g2
sS'x.graphics'
p16
g5
sS'model.evtin'
p17
g2
sS'rectangle'
p18
g2
sS'model.sim'
p19
S'string'
p20
sS'yo'
p21
g2
sS'arg1.graphics'
p22
g5
sS'in1'
p23
g20
sS'yf'
p24
g2
sS'graphics'
p25
g5
sS'model.ipar'
p26
g2
sS'typ'
p27
S'vector'
p28
sS'sz'
p29
NsS'arg1.model'
p30
g5
sS'ident'
p31
NsS'model.blocktype'
p32
g20
sS'h'
p33
g2
sS'model.dep_ut'
p34
g28
sS'exprs'
p35
g20
sS'gr_i'
p36
NsS'model.firing'
p37
g28
sS'w'
p38
g2
sS'y'
p39
g28
sS'x'
p40
g2
sS'model'
p41
g5
sS'options'
p42
g5
s.