c__builtin__
set
p0
((lp1
S'diag'
p2
aS'default_color'
p3
aS'prt'
p4
aS'graphics'
p5
aS'x'
p6
aS'model'
p7
aS'options'
p8
atp9
Rp10
.(dp0
S'xo'
p1
S'double'
p2
sS'pcoli'
p3
g2
sS'graphics.exprs'
p4
NsS'xf'
p5
g2
sS'prt'
p6
g2
sS'x.model'
p7
S'object'
p8
sS'coli'
p9
g2
sS'thick'
p10
g2
sS'font'
p11
g2
sS'orient'
p12
NsS'orig'
p13
NsS'pat'
p14
g2
sS'x.graphics'
p15
g8
sS'model.evtin'
p16
g2
sS'rectangle'
p17
g2
sS'model.sim'
p18
S'string'
p19
sS'yo'
p20
g2
sS'in1'
p21
g19
sS'yf'
p22
g2
sS'graphics'
p23
g8
sS'model.ipar'
p24
g2
sS'typ'
p25
S'vector'
p26
sS'sz'
p27
NsS'ident'
p28
NsS'model.blocktype'
p29
g19
sS'h'
p30
g2
sS'model.dep_ut'
p31
S'vector_boolean'
p32
sS'exprs'
p33
g19
sS'gr_i'
p34
NsS'model.firing'
p35
g26
sS'w'
p36
g2
sS'y'
p37
g26
sS'x'
p38
g26
sS'model'
p39
g8
sS'options'
p40
g8
s.