c__builtin__
set
p0
((lp1
S'x'
p2
aS'cmax'
p3
aS'jetcolormap'
p4
aS'colormap'
p5
aS'cmin'
p6
atp7
Rp8
.(dp0
S'this.x.graphics'
p1
S'object'
p2
sS'arg1'
p3
g2
sS'graphics'
p4
g2
sS'sol'
p5
S'string'
p6
sS'size_c'
p7
S'double'
p8
sS'this.x.model'
p9
NsS'model.in2'
p10
g8
sS'model.in1'
p11
g8
sS'typ'
p12
S'vector'
p13
sS'beta_c'
p14
g8
sS'model.evtin'
p15
g8
sS'this.x'
p16
g8
sS'model.sim'
p17
g13
sS'this.colormap'
p18
g8
sS'alpha_c'
p19
g8
sS'mess'
p20
S'matrix'
p21
sS'model.intyp'
p22
g8
sS'model.rpar'
p23
g21
sS'rpar'
p24
g21
sS'graphics.exprs'
p25
NsS'model.ipar'
p26
g21
sS'this.cmax'
p27
g8
sS'ok'
p28
S'boolean'
p29
sS'model.blocktype'
p30
g6
sS'model.dep_ut'
p31
g13
sS'exprs'
p32
g21
sS'this.cmin'
p33
g8
sS'gr_i'
p34
g13
sS'ipar'
p35
g21
sS'y'
p36
g13
sS'model'
p37
g2
s.