c__builtin__
set
p0
((lp1
S'colormap'
p2
aS'jetcolormap'
p3
aS'x'
p4
aS'model'
p5
aS'cmax'
p6
aS'cmin'
p7
atp8
Rp9
.(dp0
S'cmin'
p1
S'double'
p2
sS'arg1'
p3
S'object'
p4
sS'graphics'
p5
g4
sS'sol'
p6
S'string'
p7
sS'size_c'
p8
g2
sS'x.model'
p9
NsS'colormap'
p10
g2
sS'model.in2'
p11
g2
sS'model.in1'
p12
g2
sS'x.graphics'
p13
g4
sS'beta_c'
p14
g2
sS'model.evtin'
p15
g2
sS'model.sim'
p16
S'vector'
p17
sS'alpha_c'
p18
g2
sS'mess'
p19
S'matrix'
p20
sS'model.intyp'
p21
g2
sS'model.rpar'
p22
g20
sS'rpar'
p23
g20
sS'graphics.exprs'
p24
NsS'model.ipar'
p25
g20
sS'typ'
p26
g17
sS'ok'
p27
S'boolean'
p28
sS'model.blocktype'
p29
g7
sS'model.dep_ut'
p30
g17
sS'exprs'
p31
g20
sS'gr_i'
p32
g17
sS'ipar'
p33
g20
sS'y'
p34
g17
sS'x'
p35
g2
sS'model'
p36
g4
sS'cmax'
p37
g2
s.