c__builtin__
set
p0
((lp1
S'cmin'
p2
aS'vec_x'
p3
aS'vec_y'
p4
aS'jetcolormap'
p5
aS'x'
p6
aS'model'
p7
aS'cmax'
p8
aS'colormap'
p9
atp10
Rp11
.(dp0
S'cmin'
p1
S'double'
p2
sS'arg1'
p3
S'object'
p4
sS'graphics'
p5
g4
sS'size_c'
p6
g2
sS'x.model'
p7
NsS'size_x'
p8
g2
sS'size_y'
p9
g2
sS'model.in2'
p10
g2
sS'model.in1'
p11
g2
sS'x.graphics'
p12
g4
sS'model.evtin'
p13
g2
sS'model.sim'
p14
S'list'
p15
sS'colormap'
p16
g2
sS'mess'
p17
S'matrix'
p18
sS'model.intyp'
p19
g2
sS'model.rpar'
p20
g18
sS'rpar'
p21
g18
sS'graphics.exprs'
p22
NsS'model.ipar'
p23
g18
sS'typ'
p24
S'vector'
p25
sS'ok'
p26
S'boolean'
p27
sS'model.blocktype'
p28
S'string'
p29
sS'model.dep_ut'
p30
g25
sS'exprs'
p31
g18
sS'gr_i'
p32
g25
sS'ipar'
p33
g18
sS'y'
p34
g2
sS'x'
p35
g2
sS'model'
p36
g4
sS'cmax'
p37
g2
s.