c__builtin__
set
p0
((lp1
S'colormap'
p2
aS'vec_x'
p3
aS'vec_y'
p4
aS'graphics'
p5
aS'x'
p6
aS'model'
p7
aS'cmax'
p8
aS'cmin'
p9
atp10
Rp11
.(dp0
S'cmin'
p1
S'double'
p2
sS'graphics'
p3
S'object'
p4
sS'size_c'
p5
g2
sS'x.model'
p6
NsS'size_x'
p7
g2
sS'size_y'
p8
g2
sS'model.in2'
p9
g2
sS'model.intyp'
p10
g2
sS'x.graphics'
p11
g4
sS'model.evtin'
p12
g2
sS'model.sim'
p13
S'list'
p14
sS'colormap'
p15
g2
sS'mess'
p16
S'matrix'
p17
sS'model.rpar'
p18
g17
sS'rpar'
p19
g17
sS'model.in'
p20
g2
sS'graphics.exprs'
p21
NsS'model.ipar'
p22
g17
sS'typ'
p23
S'vector'
p24
sS'ok'
p25
S'boolean'
p26
sS'model.blocktype'
p27
S'string'
p28
sS'model.dep_ut'
p29
S'vector_boolean'
p30
sS'exprs'
p31
g17
sS'gr_i'
p32
g24
sS'ipar'
p33
g17
sS'y'
p34
g2
sS'x'
p35
g2
sS'model'
p36
g4
sS'cmax'
p37
g2
s.