c__builtin__
set
p0
((lp1
S'cmin'
p2
aS'vec_x'
p3
aS'vec_y'
p4
aS'jetcolormap'
p5
aS'x'
p6
aS'model'
p7
aS'cmax'
p8
aS'colormap'
p9
atp10
Rp11
.(dp0
S'cmin'
p1
S'double'
p2
sS'arg1'
p3
S'object'
p4
sS'graphics'
p5
g4
sS'size_c'
p6
g2
sS'x.model'
p7
NsS'size_x'
p8
g2
sS'size_y'
p9
g2
sS'model.in2'
p10
g2
sS'model.in1'
p11
g2
sS'x.graphics'
p12
g4
sS'model.evtin'
p13
g2
sS'model.sim'
p14
S'vector'
p15
sS'colormap'
p16
g2
sS'mess'
p17
S'matrix'
p18
sS'model.intyp'
p19
g2
sS'model.rpar'
p20
g18
sS'rpar'
p21
g18
sS'graphics.exprs'
p22
NsS'model.ipar'
p23
g18
sS'typ'
p24
g15
sS'ok'
p25
S'boolean'
p26
sS'model.blocktype'
p27
S'string'
p28
sS'model.dep_ut'
p29
g15
sS'exprs'
p30
g18
sS'gr_i'
p31
g15
sS'ipar'
p32
g18
sS'y'
p33
g2
sS'x'
p34
g2
sS'model'
p35
g4
sS'cmax'
p36
g2
s.