c__builtin__
set
p0
((lp1
S'colormap'
p2
aS'vec_x'
p3
aS'vec_y'
p4
aS'jetcolormap'
p5
aS'x'
p6
aS'cmax'
p7
aS'cmin'
p8
atp9
Rp10
.(dp0
S'this.x.graphics'
p1
S'object'
p2
sS'arg1'
p3
g2
sS'graphics'
p4
g2
sS'size_c'
p5
S'double'
p6
sS'size_x'
p7
g6
sS'size_y'
p8
g6
sS'this.x.model'
p9
NsS'model.in2'
p10
g6
sS'model.in1'
p11
g6
sS'typ'
p12
S'vector'
p13
sS'model.evtin'
p14
g6
sS'this.x'
p15
g6
sS'model.sim'
p16
g13
sS'this.colormap'
p17
g6
sS'mess'
p18
S'matrix'
p19
sS'model.intyp'
p20
g6
sS'model.rpar'
p21
g19
sS'rpar'
p22
g19
sS'graphics.exprs'
p23
NsS'model.ipar'
p24
g19
sS'this.cmax'
p25
g6
sS'ok'
p26
S'boolean'
p27
sS'model.blocktype'
p28
S'string'
p29
sS'model.dep_ut'
p30
g13
sS'exprs'
p31
g19
sS'this.cmin'
p32
g6
sS'gr_i'
p33
g13
sS'ipar'
p34
g19
sS'y'
p35
g6
sS'model'
p36
g6
s.