c__builtin__
set
p0
((lp1
S'cmin'
p2
aS'graphics'
p3
aS'x'
p4
aS'model'
p5
aS'cmax'
p6
aS'colormap'
p7
atp8
Rp9
.(dp0
S'cmin'
p1
S'double'
p2
sS'graphics'
p3
S'object'
p4
sS'sol'
p5
S'string'
p6
sS'size_c'
p7
g2
sS'x.model'
p8
NsS'colormap'
p9
g2
sS'model.in2'
p10
g2
sS'model.intyp'
p11
g2
sS'x.graphics'
p12
g4
sS'beta_c'
p13
g2
sS'model.evtin'
p14
g2
sS'model.sim'
p15
S'list'
p16
sS'alpha_c'
p17
g2
sS'mess'
p18
S'matrix'
p19
sS'model.rpar'
p20
g19
sS'rpar'
p21
g19
sS'model.in'
p22
g2
sS'graphics.exprs'
p23
NsS'model.ipar'
p24
g19
sS'typ'
p25
S'vector'
p26
sS'ok'
p27
S'boolean'
p28
sS'model.blocktype'
p29
g6
sS'model.dep_ut'
p30
S'vector_boolean'
p31
sS'exprs'
p32
g19
sS'gr_i'
p33
g26
sS'ipar'
p34
g19
sS'y'
p35
g26
sS'x'
p36
g26
sS'model'
p37
g4
sS'cmax'
p38
g2
s.