c__builtin__
set
p0
((lp1
S'colormap'
p2
aS'exprs'
p3
aS'gr_i'
p4
aS'graphics'
p5
aS'x'
p6
aS'model'
p7
aS'cmax'
p8
aS'cmin'
p9
atp10
Rp11
.(dp0
S'cmin'
p1
S'double'
p2
sS'arg1'
p3
S'object'
p4
sS'graphics'
p5
g4
sS'sol'
p6
S'string'
p7
sS'size_c'
p8
g2
sS'x.model'
p9
NsS'colormap'
p10
g2
sS'model.in2'
p11
g2
sS'model.intyp'
p12
g2
sS'x.graphics'
p13
g4
sS'beta_c'
p14
g2
sS'model.evtin'
p15
g2
sS'model.sim'
p16
S'list'
p17
sS'alpha_c'
p18
g2
sS'mess'
p19
S'matrix'
p20
sS'model.rpar'
p21
g20
sS'rpar'
p22
g20
sS'model.in'
p23
g2
sS'graphics.exprs'
p24
NsS'model.ipar'
p25
g20
sS'typ'
p26
S'vector'
p27
sS'ok'
p28
S'boolean'
p29
sS'model.blocktype'
p30
g7
sS'model.dep_ut'
p31
S'vector_boolean'
p32
sS'exprs'
p33
g20
sS'gr_i'
p34
g27
sS'ipar'
p35
g20
sS'y'
p36
g27
sS'x'
p37
NsS'model'
p38
g4
sS'cmax'
p39
g2
s.