c__builtin__
set
p0
((lp1
S'clrs'
p2
aS'nom'
p3
aS'ymax'
p4
aS'wpos'
p5
aS'win'
p6
aS'in1'
p7
aS'per'
p8
aS'N'
p9
aS'wdim'
p10
aS'x'
p11
aS'ymin'
p12
aS'heritance'
p13
atp14
Rp15
.(dp0
S'model.label'
p1
NsS'model.dstate'
p2
S'vector'
p3
sS'arg1'
p4
S'object'
p5
sS'graphics.exprs'
p6
NsS'period'
p7
g3
sS'rpar'
p8
S'matrix'
p9
sS'this.x.model'
p10
NsS'this.wdim'
p11
g9
sS'this.win'
p12
S'double'
p13
sS'model.in1'
p14
NsS'this.ymin'
p15
g9
sS'this.x.graphics'
p16
g5
sS'this.ymax'
p17
g9
sS'this.wpos'
p18
g9
sS'this.clrs'
p19
g9
sS'model.evtin'
p20
g13
sS'graphics.id'
p21
NsS'this.x'
p22
g13
sS'model.sim'
p23
g3
sS'this.N'
p24
g13
sS'model.in2'
p25
g9
sS'mess'
p26
g9
sS'model.intyp'
p27
g9
sS'in2'
p28
g13
sS'yy'
p29
g9
sS'this.in1'
p30
g9
sS'model.rpar'
p31
g9
sS'graphics'
p32
g5
sS'this.per'
p33
g9
sS'model.ipar'
p34
g9
sS'typ'
p35
g3
sS'a'
p36
g13
sS'[model,graphics,ok]'
p37
g13
sS'ok'
p38
S'boolean'
p39
sS'model.blocktype'
p40
S'string'
p41
sS'model.dep_ut'
p42
g3
sS'exprs'
p43
g9
sS'gr_i'
p44
g3
sS'ipar'
p45
g9
sS'y'
p46
g3
sS'model'
p47
g5
s.