c__builtin__
set
p0
((lp1
S'clrs'
p2
aS'nom'
p3
aS'ymax'
p4
aS'wpos'
p5
aS'win'
p6
aS'wdim'
p7
aS'in1'
p8
aS'per'
p9
aS'N'
p10
aS'exprs'
p11
aS'gr_i'
p12
aS'graphics'
p13
aS'x'
p14
aS'model'
p15
aS'ymin'
p16
aS'heritance'
p17
atp18
Rp19
.(dp0
S'clrs'
p1
S'matrix'
p2
sS'model.dstate'
p3
S'vector'
p4
sS'wpos'
p5
g2
sS'arg1'
p6
S'object'
p7
sS'graphics'
p8
g7
sS'period'
p9
g4
sS'rpar'
p10
g2
sS'x.model'
p11
NsS'ymin'
p12
g2
sS'model.in2'
p13
g2
sS'model.intyp'
p14
g2
sS'ymax'
p15
g2
sS'x.graphics'
p16
g7
sS'graphics.exprs'
p17
NsS'per'
p18
g2
sS'win'
p19
S'double'
p20
sS'model.evtin'
p21
g20
sS'graphics.id'
p22
NsS'model.label'
p23
NsS'model.sim'
p24
S'list'
p25
sS'mess'
p26
g2
sS'in1'
p27
g2
sS'in2'
p28
g20
sS'N'
p29
g20
sS'yy'
p30
g2
sS'model.rpar'
p31
g2
sS'model.in'
p32
g2
sS'wdim'
p33
g2
sS'model.ipar'
p34
g2
sS'typ'
p35
g4
sS'a'
p36
g20
sS'ok'
p37
S'boolean'
p38
sS'model.blocktype'
p39
S'string'
p40
sS'model.dep_ut'
p41
S'vector_boolean'
p42
sS'exprs'
p43
g2
sS'gr_i'
p44
g4
sS'ipar'
p45
g2
sS'y'
p46
g4
sS'x'
p47
NsS'model'
p48
g7
s.