c__builtin__
set
p0
((lp1
S'clrs'
p2
aS'nom'
p3
aS'ymax'
p4
aS'wpos'
p5
aS'win'
p6
aS'in1'
p7
aS'per'
p8
aS'N'
p9
aS'wdim'
p10
aS'x'
p11
aS'model'
p12
aS'ymin'
p13
aS'heritance'
p14
atp15
Rp16
.(dp0
S'clrs'
p1
S'matrix'
p2
sS'model.dstate'
p3
S'vector'
p4
sS'wpos'
p5
g2
sS'arg1'
p6
S'object'
p7
sS'graphics'
p8
g7
sS'period'
p9
g4
sS'rpar'
p10
g2
sS'x.model'
p11
NsS'model.intyp'
p12
g2
sS'ymin'
p13
g2
sS'model.in2'
p14
g2
sS'model.in1'
p15
g2
sS'ymax'
p16
g2
sS'x.graphics'
p17
g7
sS'graphics.exprs'
p18
NsS'per'
p19
g2
sS'win'
p20
S'double'
p21
sS'model.evtin'
p22
g21
sS'graphics.id'
p23
NsS'model.label'
p24
NsS'model.sim'
p25
S'list'
p26
sS'mess'
p27
g2
sS'in1'
p28
g2
sS'in2'
p29
g21
sS'N'
p30
g21
sS'yy'
p31
g2
sS'model.rpar'
p32
g2
sS'wdim'
p33
g2
sS'model.ipar'
p34
g2
sS'typ'
p35
g4
sS'a'
p36
g21
sS'[model,graphics,ok]'
p37
g21
sS'ok'
p38
S'boolean'
p39
sS'model.blocktype'
p40
S'string'
p41
sS'model.dep_ut'
p42
g4
sS'exprs'
p43
g2
sS'gr_i'
p44
g4
sS'ipar'
p45
g2
sS'y'
p46
g4
sS'x'
p47
g21
sS'model'
p48
g7
s.