c__builtin__
set
p0
((lp1
S'clrs'
p2
aS'nom'
p3
aS'ymax'
p4
aS'wpos'
p5
aS'win'
p6
aS'in1'
p7
aS'per'
p8
aS'N'
p9
aS'wdim'
p10
aS'x'
p11
aS'ymin'
p12
aS'heritance'
p13
atp14
Rp15
.(dp0
S'clrs'
p1
S'matrix'
p2
sS'model.dstate'
p3
S'vector'
p4
sS'wpos'
p5
g2
sS'arg1'
p6
S'object'
p7
sS'graphics'
p8
g7
sS'period'
p9
g4
sS'rpar'
p10
g2
sS'x.model'
p11
NsS'model.intyp'
p12
g2
sS'ymin'
p13
g2
sS'model.in2'
p14
g2
sS'model.in1'
p15
g2
sS'ymax'
p16
g2
sS'x.graphics'
p17
g7
sS'graphics.exprs'
p18
NsS'per'
p19
g2
sS'win'
p20
S'double'
p21
sS'model.evtin'
p22
g21
sS'graphics.id'
p23
NsS'model.label'
p24
NsS'model.sim'
p25
g4
sS'mess'
p26
g2
sS'in1'
p27
g2
sS'in2'
p28
g21
sS'N'
p29
g21
sS'yy'
p30
g2
sS'model.rpar'
p31
g2
sS'wdim'
p32
g2
sS'model.ipar'
p33
g2
sS'typ'
p34
g4
sS'a'
p35
g21
sS'[model,graphics,ok]'
p36
g21
sS'ok'
p37
S'boolean'
p38
sS'model.blocktype'
p39
S'string'
p40
sS'model.dep_ut'
p41
g4
sS'exprs'
p42
g2
sS'gr_i'
p43
g4
sS'ipar'
p44
g2
sS'y'
p45
g4
sS'x'
p46
g21
sS'model'
p47
g7
s.