c__builtin__
set
p0
((lp1
S'clrs'
p2
aS'nom'
p3
aS'ymax'
p4
aS'wpos'
p5
aS'win'
p6
aS'wdim'
p7
aS'in1'
p8
aS'per'
p9
aS'N'
p10
aS'graphics'
p11
aS'x'
p12
aS'model'
p13
aS'ymin'
p14
aS'heritance'
p15
atp16
Rp17
.(dp0
S'clrs'
p1
S'matrix'
p2
sS'model.dstate'
p3
S'vector'
p4
sS'wpos'
p5
g2
sS'win'
p6
S'double'
p7
sS'graphics'
p8
S'object'
p9
sS'period'
p10
g4
sS'rpar'
p11
g2
sS'x.model'
p12
NsS'in'
p13
g2
sS'ymin'
p14
g2
sS'model.in2'
p15
g2
sS'model.intyp'
p16
g2
sS'ymax'
p17
g2
sS'x.graphics'
p18
g9
sS'graphics.exprs'
p19
NsS'per'
p20
g2
sS'model.evtin'
p21
g7
sS'graphics.id'
p22
NsS'model.label'
p23
NsS'model.sim'
p24
S'list'
p25
sS'mess'
p26
g2
sS'in2'
p27
g7
sS'N'
p28
g7
sS'yy'
p29
g2
sS'model.rpar'
p30
g2
sS'model.in'
p31
NsS'wdim'
p32
g2
sS'model.ipar'
p33
g2
sS'typ'
p34
g4
sS'a'
p35
g7
sS'ok'
p36
S'boolean'
p37
sS'model.blocktype'
p38
S'string'
p39
sS'model.dep_ut'
p40
S'vector_boolean'
p41
sS'exprs'
p42
g2
sS'gr_i'
p43
g4
sS'ipar'
p44
g2
sS'y'
p45
g4
sS'x'
p46
g4
sS'model'
p47
g9
s.