c__builtin__
set
p0
((lp1
S'clrs'
p2
aS'ymin'
p3
aS'ymax'
p4
aS'wpos'
p5
aS'win'
p6
aS'wdim'
p7
aS'N'
p8
aS'xmax'
p9
aS'siz'
p10
aS'xmin'
p11
aS'x'
p12
aS'model'
p13
aS'nbr_curves'
p14
atp15
Rp16
.(dp0
S'clrs'
p1
S'double'
p2
sS'wpos'
p3
S'matrix'
p4
sS'win'
p5
g2
sS'wdim'
p6
g4
sS'rpar'
p7
g4
sS'x.model'
p8
NsS'model.intyp'
p9
g4
sS'model.in1'
p10
g4
sS'xmin'
p11
g2
sS'ymin'
p12
g2
sS'model.in2'
p13
g4
sS'graphics'
p14
S'object'
p15
sS'ymax'
p16
g2
sS'x.graphics'
p17
g15
sS'siz'
p18
g2
sS'arg1'
p19
g15
sS'model.evtin'
p20
g2
sS'model.sim'
p21
S'list'
p22
sS'xmax'
p23
g2
sS'mess'
p24
g4
sS'in1'
p25
S'string'
p26
sS'in2'
p27
g2
sS'N'
p28
g2
sS'model.rpar'
p29
g4
sS'graphics.exprs'
p30
NsS'model.ipar'
p31
g4
sS'typ'
p32
S'vector'
p33
sS'[model,graphics,ok]'
p34
g2
sS'ok'
p35
S'boolean'
p36
sS'model.blocktype'
p37
g26
sS'model.dep_ut'
p38
g33
sS'exprs'
p39
g4
sS'gr_i'
p40
g33
sS'ipar'
p41
g4
sS'y'
p42
g33
sS'x'
p43
g2
sS'model'
p44
g15
sS'nbr_curves'
p45
g2
s.