c__builtin__
set
p0
((lp1
S'clrs'
p2
aS'nom'
p3
aS'ymax'
p4
aS'wpos'
p5
aS'win'
p6
aS'per'
p7
aS'N'
p8
aS'wdim'
p9
aS'x'
p10
aS'model'
p11
aS'ymin'
p12
aS'heritance'
p13
atp14
Rp15
.(dp0
S'clrs'
p1
S'matrix'
p2
sS'wpos'
p3
g2
sS'arg1'
p4
S'object'
p5
sS'graphics.exprs'
p6
NsS'rpar'
p7
g2
sS'x.model'
p8
NsS'ymin'
p9
S'double'
p10
sS'model.in2'
p11
g10
sS'graphics'
p12
g5
sS'ymax'
p13
g10
sS'x.graphics'
p14
g5
sS'per'
p15
g10
sS'win'
p16
g10
sS'model.evtin'
p17
g10
sS'graphics.id'
p18
NsS'model.label'
p19
NsS'model.sim'
p20
S'list'
p21
sS'mess'
p22
g2
sS'model.in1'
p23
g10
sS'model.rpar'
p24
g2
sS'N'
p25
g10
sS'wdim'
p26
g2
sS'model.ipar'
p27
g2
sS'typ'
p28
S'vector'
p29
sS'[model,graphics,ok]'
p30
g10
sS'ok'
p31
S'boolean'
p32
sS'model.blocktype'
p33
S'string'
p34
sS'model.dep_ut'
p35
g29
sS'exprs'
p36
g2
sS'gr_i'
p37
g29
sS'ipar'
p38
g2
sS'y'
p39
g29
sS'x'
p40
g10
sS'model'
p41
g5
s.