c__builtin__
set
p0
((lp1
S'clrs'
p2
aS'ymin'
p3
aS'ymax'
p4
aS'wpos'
p5
aS'win'
p6
aS'wdim'
p7
aS'N'
p8
aS'xmax'
p9
aS'siz'
p10
aS'xmin'
p11
aS'x'
p12
aS'nbr_curves'
p13
atp14
Rp15
.c__builtin__
set
p0
((lp1
tp2
Rp3
.c__builtin__
set
p0
((lp1
tp2
Rp3
.c__builtin__
set
p0
((lp1
tp2
Rp3
.c__builtin__
set
p0
((lp1
tp2
Rp3
.c__builtin__
set
p0
((lp1
tp2
Rp3
.