c__builtin__
set
p0
((lp1
S'clrs'
p2
aS'nom'
p3
aS'ymax'
p4
aS'wpos'
p5
aS'win'
p6
aS'per'
p7
aS'N'
p8
aS'wdim'
p9
aS'x'
p10
aS'ymin'
p11
aS'heritance'
p12
atp13
Rp14
.c__builtin__
set
p0
((lp1
tp2
Rp3
.c__builtin__
set
p0
((lp1
tp2
Rp3
.c__builtin__
set
p0
((lp1
tp2
Rp3
.c__builtin__
set
p0
((lp1
tp2
Rp3
.c__builtin__
set
p0
((lp1
tp2
Rp3
.