c__builtin__
set
p0
((lp1
S'clrs'
p2
aS'vec_y'
p3
aS'wpos'
p4
aS'vec_z'
p5
aS'win'
p6
aS'vec_x'
p7
aS'wdim'
p8
aS'param3ds'
p9
aS'N'
p10
aS'siz'
p11
aS'x'
p12
aS'nbr_curves'
p13
atp14
Rp15
.(dp0
S'arg1'
p1
S'object'
p2
sS'graphics'
p3
g2
sS'rpar'
p4
S'matrix'
p5
sS'this.siz'
p6
g5
sS'model.intyp'
p7
g5
sS'model.dep_ut'
p8
S'vector'
p9
sS'this.x.model'
p10
NsS'this.wdim'
p11
g5
sS'this.vec_z'
p12
g5
sS'this.vec_y'
p13
g5
sS'this.vec_x'
p14
g5
sS'this.win'
p15
S'double'
p16
sS'model.in1'
p17
g5
sS'typ'
p18
g9
sS'this.wpos'
p19
g5
sS'this.clrs'
p20
g5
sS'this.nbr_curves'
p21
g16
sS'model.evtin'
p22
g16
sS'this.x'
p23
g16
sS'model.sim'
p24
g9
sS'this.N'
p25
g16
sS'model.in2'
p26
g5
sS'mess'
p27
g5
sS'in1'
p28
S'string'
p29
sS'in2'
p30
g16
sS'size_siz'
p31
g16
sS'model.rpar'
p32
g5
sS'graphics.exprs'
p33
NsS'model.ipar'
p34
g5
sS'this.x.graphics'
p35
g2
sS'[model,graphics,ok]'
p36
g16
sS'ok'
p37
S'boolean'
p38
sS'model.blocktype'
p39
g29
sS'this.param3ds'
p40
g5
sS'exprs'
p41
g5
sS'gr_i'
p42
g9
sS'ipar'
p43
g5
sS'y'
p44
g9
sS'model'
p45
g2
s.