c__builtin__
set
p0
((lp1
S'clrs'
p2
aS'vec_y'
p3
aS'wpos'
p4
aS'vec_z'
p5
aS'siz'
p6
aS'vec_x'
p7
aS'wdim'
p8
aS'param3ds'
p9
aS'N'
p10
aS'exprs'
p11
aS'gr_i'
p12
aS'graphics'
p13
aS'x'
p14
aS'model'
p15
aS'nbr_curves'
p16
aS'win'
p17
atp18
Rp19
.(dp0
S'clrs'
p1
S'matrix'
p2
sS'wpos'
p3
g2
sS'win'
p4
S'double'
p5
sS'wdim'
p6
g2
sS'rpar'
p7
g2
sS'x.model'
p8
NsS'model.intyp'
p9
g2
sS'model.in2'
p10
g2
sS'graphics'
p11
S'object'
p12
sS'x.graphics'
p13
g12
sS'siz'
p14
g2
sS'vec_z'
p15
g2
sS'arg1'
p16
g12
sS'model.evtin'
p17
g5
sS'model.sim'
p18
S'list'
p19
sS'mess'
p20
g2
sS'vec_x'
p21
g2
sS'vec_y'
p22
g2
sS'in1'
p23
S'string'
p24
sS'in2'
p25
g5
sS'N'
p26
g5
sS'size_siz'
p27
g5
sS'model.rpar'
p28
g2
sS'model.in'
p29
g2
sS'graphics.exprs'
p30
NsS'model.ipar'
p31
g2
sS'typ'
p32
S'vector'
p33
sS'ok'
p34
S'boolean'
p35
sS'model.blocktype'
p36
g24
sS'param3ds'
p37
g2
sS'model.dep_ut'
p38
g33
sS'exprs'
p39
g2
sS'gr_i'
p40
g33
sS'ipar'
p41
g2
sS'y'
p42
g33
sS'x'
p43
NsS'model'
p44
g12
sS'nbr_curves'
p45
g5
s.