c__builtin__
set
p0
((lp1
S'clrs'
p2
aS'ymin'
p3
aS'ymax'
p4
aS'wpos'
p5
aS'win'
p6
aS'wdim'
p7
aS'N'
p8
aS'xmax'
p9
aS'siz'
p10
aS'xmin'
p11
aS'x'
p12
aS'nbr_curves'
p13
atp14
Rp15
.(dp0
S'arg1'
p1
S'object'
p2
sS'graphics'
p3
g2
sS'rpar'
p4
S'matrix'
p5
sS'this.siz'
p6
S'double'
p7
sS'model.intyp'
p8
g5
sS'this.x.model'
p9
NsS'this.wdim'
p10
g5
sS'this.wpos'
p11
g5
sS'model.in1'
p12
g5
sS'this.xmin'
p13
g7
sS'this.ymin'
p14
g7
sS'this.xmax'
p15
g7
sS'typ'
p16
S'vector'
p17
sS'this.ymax'
p18
g7
sS'this.win'
p19
g7
sS'this.clrs'
p20
g7
sS'this.nbr_curves'
p21
g7
sS'model.evtin'
p22
g7
sS'this.x'
p23
g7
sS'model.sim'
p24
g17
sS'this.N'
p25
g7
sS'model.in2'
p26
g5
sS'mess'
p27
g5
sS'in1'
p28
S'string'
p29
sS'in2'
p30
g7
sS'model.rpar'
p31
g5
sS'graphics.exprs'
p32
NsS'model.ipar'
p33
g5
sS'this.x.graphics'
p34
g2
sS'[model,graphics,ok]'
p35
g7
sS'ok'
p36
S'boolean'
p37
sS'model.blocktype'
p38
g29
sS'model.dep_ut'
p39
g17
sS'exprs'
p40
g5
sS'gr_i'
p41
g17
sS'ipar'
p42
g5
sS'y'
p43
g17
sS'model'
p44
g2
s.