c__builtin__
set
p0
((lp1
S'clrs'
p2
aS'ymin'
p3
aS'ymax'
p4
aS'wpos'
p5
aS'siz'
p6
aS'wdim'
p7
aS'N'
p8
aS'exprs'
p9
aS'gr_i'
p10
aS'xmax'
p11
aS'graphics'
p12
aS'xmin'
p13
aS'x'
p14
aS'model'
p15
aS'nbr_curves'
p16
aS'win'
p17
atp18
Rp19
.(dp0
S'clrs'
p1
S'double'
p2
sS'wpos'
p3
S'matrix'
p4
sS'win'
p5
g2
sS'wdim'
p6
g4
sS'rpar'
p7
g4
sS'x.model'
p8
NsS'model.intyp'
p9
g4
sS'xmin'
p10
g2
sS'ymin'
p11
g2
sS'model.in2'
p12
g4
sS'graphics'
p13
S'object'
p14
sS'ymax'
p15
g2
sS'x.graphics'
p16
g14
sS'siz'
p17
g2
sS'arg1'
p18
g14
sS'model.evtin'
p19
g2
sS'model.sim'
p20
S'list'
p21
sS'xmax'
p22
g2
sS'mess'
p23
g4
sS'in1'
p24
S'string'
p25
sS'in2'
p26
g2
sS'N'
p27
g2
sS'model.rpar'
p28
g4
sS'model.in'
p29
g4
sS'graphics.exprs'
p30
NsS'model.ipar'
p31
g4
sS'typ'
p32
S'vector'
p33
sS'ok'
p34
S'boolean'
p35
sS'model.blocktype'
p36
g25
sS'model.dep_ut'
p37
S'vector_boolean'
p38
sS'exprs'
p39
g4
sS'gr_i'
p40
g33
sS'ipar'
p41
g4
sS'y'
p42
g33
sS'x'
p43
NsS'model'
p44
g14
sS'nbr_curves'
p45
g2
s.