c__builtin__
set
p0
((lp1
S'clrs'
p2
aS'ymin'
p3
aS'ymax'
p4
aS'wpos'
p5
aS'siz'
p6
aS'wdim'
p7
aS'N'
p8
aS'exprs'
p9
aS'gr_i'
p10
aS'xmax'
p11
aS'graphics'
p12
aS'xmin'
p13
aS'x'
p14
aS'model'
p15
aS'nbr_curves'
p16
aS'win'
p17
atp18
Rp19
.(dp0
S'clrs'
p1
S'double'
p2
sS'wpos'
p3
S'matrix'
p4
sS'win'
p5
g2
sS'wdim'
p6
g4
sS'rpar'
p7
g4
sS'x.model'
p8
NsS'model.intyp'
p9
g4
sS'model.in1'
p10
g4
sS'xmin'
p11
g2
sS'ymin'
p12
g2
sS'model.in2'
p13
g4
sS'graphics'
p14
S'object'
p15
sS'ymax'
p16
g2
sS'x.graphics'
p17
g15
sS'siz'
p18
g2
sS'arg1'
p19
g15
sS'model.evtin'
p20
g2
sS'model.sim'
p21
S'list'
p22
sS'xmax'
p23
g2
sS'mess'
p24
g4
sS'in1'
p25
S'string'
p26
sS'in2'
p27
g2
sS'N'
p28
g2
sS'model.rpar'
p29
g4
sS'graphics.exprs'
p30
NsS'model.ipar'
p31
g4
sS'typ'
p32
S'vector'
p33
sS'ok'
p34
S'boolean'
p35
sS'model.blocktype'
p36
g26
sS'model.dep_ut'
p37
g33
sS'exprs'
p38
g4
sS'gr_i'
p39
g33
sS'ipar'
p40
g4
sS'y'
p41
g33
sS'x'
p42
g2
sS'model'
p43
g15
sS'nbr_curves'
p44
g2
s.