c__builtin__
set
p0
((lp1
S'clrs'
p2
aS'vec_y'
p3
aS'wpos'
p4
aS'vec_z'
p5
aS'siz'
p6
aS'vec_x'
p7
aS'wdim'
p8
aS'param3ds'
p9
aS'N'
p10
aS'exprs'
p11
aS'gr_i'
p12
aS'graphics'
p13
aS'x'
p14
aS'model'
p15
aS'nbr_curves'
p16
aS'win'
p17
atp18
Rp19
.(dp0
S'clrs'
p1
S'matrix'
p2
sS'wpos'
p3
g2
sS'win'
p4
S'double'
p5
sS'wdim'
p6
g2
sS'rpar'
p7
g2
sS'x.model'
p8
NsS'model.intyp'
p9
g2
sS'model.in1'
p10
g2
sS'model.in2'
p11
g2
sS'graphics'
p12
S'object'
p13
sS'x.graphics'
p14
g13
sS'siz'
p15
g2
sS'vec_z'
p16
g2
sS'arg1'
p17
g13
sS'model.evtin'
p18
g5
sS'model.sim'
p19
S'list'
p20
sS'mess'
p21
g2
sS'vec_x'
p22
g2
sS'vec_y'
p23
g2
sS'in1'
p24
S'string'
p25
sS'in2'
p26
g5
sS'N'
p27
g5
sS'size_siz'
p28
g5
sS'model.rpar'
p29
g2
sS'graphics.exprs'
p30
NsS'model.ipar'
p31
g2
sS'typ'
p32
S'vector'
p33
sS'ok'
p34
S'boolean'
p35
sS'model.blocktype'
p36
g25
sS'param3ds'
p37
g2
sS'model.dep_ut'
p38
g33
sS'exprs'
p39
g2
sS'gr_i'
p40
g33
sS'ipar'
p41
g2
sS'y'
p42
g33
sS'x'
p43
g5
sS'model'
p44
g13
sS'nbr_curves'
p45
g5
s.