c__builtin__
set
p0
((lp1
S'clrs'
p2
aS'vec_y'
p3
aS'wpos'
p4
aS'vec_z'
p5
aS'siz'
p6
aS'vec_x'
p7
aS'wdim'
p8
aS'param3ds'
p9
aS'N'
p10
aS'graphics'
p11
aS'x'
p12
aS'model'
p13
aS'nbr_curves'
p14
aS'win'
p15
atp16
Rp17
.(dp0
S'clrs'
p1
S'matrix'
p2
sS'wpos'
p3
g2
sS'win'
p4
S'double'
p5
sS'wdim'
p6
g2
sS'rpar'
p7
g2
sS'x.model'
p8
NsS'model.intyp'
p9
g2
sS'model.in2'
p10
g2
sS'graphics'
p11
S'object'
p12
sS'x.graphics'
p13
g12
sS'siz'
p14
g2
sS'vec_z'
p15
g2
sS'model.evtin'
p16
g5
sS'model.sim'
p17
S'list'
p18
sS'mess'
p19
g2
sS'vec_x'
p20
g2
sS'vec_y'
p21
g2
sS'in1'
p22
S'string'
p23
sS'in2'
p24
g5
sS'N'
p25
g5
sS'size_siz'
p26
g5
sS'model.rpar'
p27
g2
sS'model.in'
p28
g2
sS'graphics.exprs'
p29
NsS'model.ipar'
p30
g2
sS'typ'
p31
S'vector'
p32
sS'ok'
p33
S'boolean'
p34
sS'model.blocktype'
p35
g23
sS'param3ds'
p36
g2
sS'model.dep_ut'
p37
S'vector_boolean'
p38
sS'exprs'
p39
g2
sS'gr_i'
p40
g32
sS'ipar'
p41
g2
sS'y'
p42
g32
sS'x'
p43
g32
sS'model'
p44
g12
sS'nbr_curves'
p45
g5
s.