c__builtin__
set
p0
((lp1
S'clrs'
p2
aS'nom'
p3
aS'ymax'
p4
aS'wpos'
p5
aS'win'
p6
aS'wdim'
p7
aS'per'
p8
aS'N'
p9
aS'graphics'
p10
aS'x'
p11
aS'model'
p12
aS'ymin'
p13
aS'heritance'
p14
atp15
Rp16
.(dp0
S'clrs'
p1
S'matrix'
p2
sS'wpos'
p3
g2
sS'win'
p4
S'double'
p5
sS'graphics.exprs'
p6
NsS'rpar'
p7
g2
sS'x.model'
p8
NsS'ymin'
p9
g5
sS'model.in2'
p10
g5
sS'graphics'
p11
S'object'
p12
sS'ymax'
p13
g5
sS'x.graphics'
p14
g12
sS'per'
p15
g5
sS'model.evtin'
p16
g5
sS'graphics.id'
p17
NsS'model.label'
p18
NsS'model.sim'
p19
S'list'
p20
sS'mess'
p21
g2
sS'model.rpar'
p22
g2
sS'N'
p23
g5
sS'model.in'
p24
g5
sS'wdim'
p25
g2
sS'model.ipar'
p26
g2
sS'typ'
p27
S'vector'
p28
sS'ok'
p29
S'boolean'
p30
sS'model.blocktype'
p31
S'string'
p32
sS'model.dep_ut'
p33
S'vector_boolean'
p34
sS'exprs'
p35
g2
sS'gr_i'
p36
g28
sS'ipar'
p37
g2
sS'y'
p38
g28
sS'x'
p39
g28
sS'model'
p40
g12
s.