c__builtin__
set
p0
((lp1
S'clrs'
p2
aS'ymin'
p3
aS'ymax'
p4
aS'wpos'
p5
aS'siz'
p6
aS'wdim'
p7
aS'N'
p8
aS'xmax'
p9
aS'graphics'
p10
aS'xmin'
p11
aS'x'
p12
aS'model'
p13
aS'nbr_curves'
p14
aS'win'
p15
atp16
Rp17
.(dp0
S'clrs'
p1
S'double'
p2
sS'wpos'
p3
S'matrix'
p4
sS'win'
p5
g2
sS'wdim'
p6
g4
sS'rpar'
p7
g4
sS'x.model'
p8
NsS'model.intyp'
p9
g4
sS'xmin'
p10
g2
sS'ymin'
p11
g2
sS'model.in2'
p12
g4
sS'graphics'
p13
S'object'
p14
sS'ymax'
p15
g2
sS'x.graphics'
p16
g14
sS'siz'
p17
g2
sS'model.evtin'
p18
g2
sS'model.sim'
p19
S'list'
p20
sS'xmax'
p21
g2
sS'mess'
p22
g4
sS'in1'
p23
S'string'
p24
sS'in2'
p25
g2
sS'N'
p26
g2
sS'model.rpar'
p27
g4
sS'model.in'
p28
g4
sS'graphics.exprs'
p29
NsS'model.ipar'
p30
g4
sS'typ'
p31
S'vector'
p32
sS'ok'
p33
S'boolean'
p34
sS'model.blocktype'
p35
g24
sS'model.dep_ut'
p36
S'vector_boolean'
p37
sS'exprs'
p38
g4
sS'gr_i'
p39
g32
sS'ipar'
p40
g4
sS'y'
p41
g32
sS'x'
p42
g32
sS'model'
p43
g14
sS'nbr_curves'
p44
g2
s.