c__builtin__
set
p0
((lp1
S'clrs'
p2
aS'nom'
p3
aS'ymax'
p4
aS'wpos'
p5
aS'win'
p6
aS'per'
p7
aS'N'
p8
aS'wdim'
p9
aS'x'
p10
aS'model'
p11
aS'ymin'
p12
aS'heritance'
p13
atp14
Rp15
.(dp0
S'clrs'
p1
S'matrix'
p2
sS'wpos'
p3
g2
sS'win'
p4
S'double'
p5
sS'graphics.exprs'
p6
NsS'rpar'
p7
g2
sS'x.model'
p8
NsS'ymin'
p9
g5
sS'model.in2'
p10
g5
sS'graphics'
p11
S'object'
p12
sS'ymax'
p13
g5
sS'x.graphics'
p14
g12
sS'per'
p15
g5
sS'arg1'
p16
g12
sS'model.evtin'
p17
g5
sS'graphics.id'
p18
NsS'model.label'
p19
NsS'model.sim'
p20
S'list'
p21
sS'mess'
p22
g2
sS'model.in1'
p23
g5
sS'model.rpar'
p24
g2
sS'N'
p25
g5
sS'wdim'
p26
g2
sS'model.ipar'
p27
g2
sS'typ'
p28
S'vector'
p29
sS'ok'
p30
S'boolean'
p31
sS'model.blocktype'
p32
S'string'
p33
sS'model.dep_ut'
p34
g29
sS'exprs'
p35
g2
sS'gr_i'
p36
g29
sS'ipar'
p37
g2
sS'y'
p38
g29
sS'x'
p39
g5
sS'model'
p40
g12
s.