c__builtin__
set
p0
((lp1
S'clrs'
p2
aS'nom'
p3
aS'ymax'
p4
aS'wpos'
p5
aS'win'
p6
aS'per'
p7
aS'N'
p8
aS'wdim'
p9
aS'x'
p10
aS'ymin'
p11
aS'heritance'
p12
atp13
Rp14
.(dp0
S'model.label'
p1
NsS'arg1'
p2
S'object'
p3
sS'graphics.exprs'
p4
NsS'rpar'
p5
S'matrix'
p6
sS'this.x.model'
p7
NsS'this.wdim'
p8
g6
sS'this.win'
p9
S'double'
p10
sS'model.in1'
p11
g10
sS'this.ymin'
p12
g10
sS'typ'
p13
S'vector'
p14
sS'this.ymax'
p15
g10
sS'this.wpos'
p16
g6
sS'this.clrs'
p17
g6
sS'model.evtin'
p18
g10
sS'graphics.id'
p19
NsS'this.x'
p20
g10
sS'model.sim'
p21
g14
sS'this.N'
p22
g10
sS'model.in2'
p23
g10
sS'mess'
p24
g6
sS'model.rpar'
p25
g6
sS'graphics'
p26
g3
sS'this.per'
p27
g10
sS'model.ipar'
p28
g6
sS'this.x.graphics'
p29
g3
sS'[model,graphics,ok]'
p30
g10
sS'ok'
p31
S'boolean'
p32
sS'model.blocktype'
p33
S'string'
p34
sS'model.dep_ut'
p35
g14
sS'exprs'
p36
g6
sS'gr_i'
p37
g14
sS'ipar'
p38
g6
sS'y'
p39
g14
sS'model'
p40
g3
s.