c__builtin__
set
p0
((lp1
S'prt'
p2
aS'x'
p3
aS'model'
p4
aS'graphics'
p5
atp6
Rp7
.(dp0
S'model.in2'
p1
S'double'
p2
sS'model.sim'
p3
S'string'
p4
sS'model.intyp'
p5
g2
sS'model.blocktype'
p6
g4
sS'prt'
p7
g2
sS'graphics.exprs'
p8
g2
sS'model.dep_ut'
p9
S'vector_boolean'
p10
sS'n'
p11
g2
sS'exprs'
p12
g4
sS'x.model'
p13
NsS'gr_i'
p14
S'vector'
p15
sS'model.in'
p16
g2
sS'graphics'
p17
S'object'
p18
sS'y'
p19
g15
sS'x'
p20
g15
sS'model'
p21
g18
sS'model.ipar'
p22
g2
sS'typ'
p23
g15
sS'x.graphics'
p24
g18
s.