c__builtin__
set
p0
((lp1
S'exprs'
p2
aS'prt'
p3
aS'gr_i'
p4
aS'graphics'
p5
aS'x'
p6
aS'model'
p7
atp8
Rp9
.(dp0
S'model.in2'
p1
S'double'
p2
sS'model.sim'
p3
S'string'
p4
sS'model.intyp'
p5
g2
sS'model.blocktype'
p6
g4
sS'prt'
p7
g2
sS'arg1'
p8
S'object'
p9
sS'graphics.exprs'
p10
g2
sS'model.dep_ut'
p11
S'vector'
p12
sS'n'
p13
g2
sS'exprs'
p14
g4
sS'x.model'
p15
NsS'gr_i'
p16
g12
sS'model.in'
p17
g2
sS'graphics'
p18
g9
sS'y'
p19
g12
sS'x'
p20
g2
sS'model'
p21
g9
sS'model.ipar'
p22
g2
sS'typ'
p23
g12
sS'x.graphics'
p24
g9
s.