c__builtin__
set
p0
((lp1
S'prt'
p2
aS'x'
p3
aS'model'
p4
aS'graphics'
p5
atp6
Rp7
.(dp0
S'model.in2'
p1
S'double'
p2
sS'model.sim'
p3
S'string'
p4
sS'model.in1'
p5
g2
sS'model.blocktype'
p6
g4
sS'prt'
p7
g2
sS'arg1'
p8
S'object'
p9
sS'graphics.exprs'
p10
g2
sS'model.intyp'
p11
g2
sS'model.dep_ut'
p12
S'vector'
p13
sS'n'
p14
g2
sS'exprs'
p15
g4
sS'x.model'
p16
NsS'gr_i'
p17
g13
sS'graphics'
p18
g9
sS'y'
p19
g13
sS'x'
p20
g2
sS'model'
p21
g9
sS'model.ipar'
p22
g2
sS'typ'
p23
g13
sS'x.graphics'
p24
g9
s.