c__builtin__
set
p0
((lp1
S'x'
p2
aS'prt'
p3
atp4
Rp5
.(dp0
S'this.x'
p1
S'double'
p2
sS'model.sim'
p3
S'string'
p4
sS'model.in1'
p5
g2
sS'model.blocktype'
p6
g4
sS'model.in2'
p7
g2
sS'this.x.graphics'
p8
S'object'
p9
sS'arg1'
p10
g9
sS'graphics.exprs'
p11
g2
sS'model.intyp'
p12
g2
sS'model.dep_ut'
p13
S'vector'
p14
sS'n'
p15
g2
sS'this.x.model'
p16
NsS'exprs'
p17
g4
sS'gr_i'
p18
g14
sS'this.prt'
p19
g2
sS'graphics'
p20
g9
sS'y'
p21
g14
sS'model'
p22
g2
sS'model.ipar'
p23
NsS'typ'
p24
g14
s.