c__builtin__
set
p0
((lp1
S'x'
p2
aS'prt'
p3
atp4
Rp5
.(dp0
S'arg1'
p1
S'object'
p2
sS'graphics'
p3
g2
sS'mo.model'
p4
S'string'
p5
sS'this.x.model'
p6
g2
sS'model.in2'
p7
S'vector'
p8
sS'model.in1'
p9
g8
sS'typ'
p10
g8
sS'mo.inputs'
p11
g5
sS'this.prt'
p12
S'double'
p13
sS'this.x.graphics.in_implicit'
p14
g8
sS'this.x'
p15
g13
sS'model.sim'
p16
g5
sS'model.equations'
p17
g13
sS'graphics.exprs'
p18
g13
sS'model.ipar'
p19
g8
sS'this.x.graphics'
p20
g2
sS'needcompile'
p21
g13
sS'model.blocktype'
p22
g5
sS'mo'
p23
g13
sS'model.dep_ut'
p24
g8
sS'exprs'
p25
g5
sS'gr_i'
p26
g8
sS'y'
p27
g13
sS'model'
p28
g2
s.