c__builtin__
set
p0
((lp1
S'prt'
p2
aS'x'
p3
aS'model'
p4
aS'graphics'
p5
atp6
Rp7
.(dp0
S'arg1'
p1
S'object'
p2
sS'graphics'
p3
g2
sS'mo.model'
p4
S'string'
p5
sS'prt'
p6
S'double'
p7
sS'x.model'
p8
g2
sS'model.in2'
p9
S'vector'
p10
sS'x.graphics'
p11
g2
sS'mo.inputs'
p12
g5
sS'x.graphics.in_implicit'
p13
S'vector_string'
p14
sS'model.sim'
p15
g5
sS'model.equations'
p16
g7
sS'model.in'
p17
g10
sS'graphics.exprs'
p18
g7
sS'model.ipar'
p19
g10
sS'typ'
p20
g10
sS'needcompile'
p21
g7
sS'model.blocktype'
p22
g5
sS'mo'
p23
g7
sS'model.dep_ut'
p24
S'vector_boolean'
p25
sS'exprs'
p26
g5
sS'gr_i'
p27
g10
sS'y'
p28
g7
sS'x'
p29
NsS'model'
p30
g2
s.