c__builtin__
set
p0
((lp1
S'x'
p2
aS'nz'
p3
aS'herit'
p4
aS'ascii'
p5
aS'varnam'
p6
atp7
Rp8
.(dp0
S'arg1'
p1
S'object'
p2
sS'graphics'
p3
g2
sS'this.nz'
p4
S'double'
p5
sS'ierr'
p6
g5
sS'this.x.model'
p7
NsS'model.out'
p8
S'vector'
p9
sS'model.in2'
p10
g5
sS'model.in1'
p11
g9
sS'typ'
p12
g9
sS'gr_i'
p13
g9
sS'model.evtin'
p14
g9
sS'nu'
p15
g5
sS'model.firing'
p16
g9
sS'this.x'
p17
g5
sS'model.sim'
p18
g9
sS'model.evtout'
p19
g9
sS'this.herit'
p20
g5
sS'this.varnam'
p21
S'string'
p22
sS'model.intyp'
p23
g5
sS'model.rpar'
p24
g9
sS'graphics.exprs'
p25
NsS'model.ipar'
p26
S'matrix'
p27
sS'this.x.graphics'
p28
g2
sS'[model,graphics,ok]'
p29
g5
sS'ok'
p30
S'boolean'
p31
sS'model.blocktype'
p32
g22
sS'model.dep_ut'
p33
g9
sS'exprs'
p34
g27
sS'r'
p35
g31
sS'y'
p36
g9
sS'model'
p37
g2
s.