c__builtin__
set
p0
((lp1
S'herit'
p2
aS'nz'
p3
aS'x'
p4
aS'model'
p5
aS'ascii'
p6
aS'varnam'
p7
atp8
Rp9
.(dp0
S'arg1'
p1
S'object'
p2
sS'graphics'
p3
g2
sS'ierr'
p4
S'double'
p5
sS'x.model'
p6
NsS'model.out'
p7
S'vector'
p8
sS'varnam'
p9
S'string'
p10
sS'model.in2'
p11
g5
sS'model.in1'
p12
g8
sS'herit'
p13
g5
sS'x.graphics'
p14
g2
sS'nz'
p15
g5
sS'gr_i'
p16
g8
sS'model.evtin'
p17
g8
sS'nu'
p18
g5
sS'model.firing'
p19
g8
sS'model.sim'
p20
S'list'
p21
sS'model.evtout'
p22
g8
sS'[this.model,graphics,ok]'
p23
g5
sS'model.intyp'
p24
g5
sS'model.rpar'
p25
g8
sS'graphics.exprs'
p26
NsS'model.ipar'
p27
S'matrix'
p28
sS'typ'
p29
g8
sS'ok'
p30
S'boolean'
p31
sS'model.blocktype'
p32
g10
sS'model.dep_ut'
p33
g8
sS'exprs'
p34
g28
sS'r'
p35
g31
sS'y'
p36
g8
sS'x'
p37
g5
sS'model'
p38
g2
s.