c__builtin__
set
p0
((lp1
S'herit'
p2
aS'exprs'
p3
aS'nz'
p4
aS'gr_i'
p5
aS'graphics'
p6
aS'x'
p7
aS'model'
p8
aS'ascii'
p9
aS'varnam'
p10
atp11
Rp12
.(dp0
S'arg1'
p1
S'object'
p2
sS'graphics'
p3
g2
sS'ierr'
p4
S'double'
p5
sS'x.model'
p6
NsS'model.out'
p7
S'vector'
p8
sS'varnam'
p9
S'string'
p10
sS'model.in2'
p11
g5
sS'model.intyp'
p12
g5
sS'herit'
p13
g5
sS'x.graphics'
p14
g2
sS'nz'
p15
g5
sS'gr_i'
p16
g8
sS'model.evtin'
p17
g8
sS'nu'
p18
g5
sS'model.firing'
p19
g8
sS'model.sim'
p20
S'list'
p21
sS'model.evtout'
p22
g8
sS'model.rpar'
p23
g8
sS'model.in'
p24
g8
sS'graphics.exprs'
p25
NsS'model.ipar'
p26
S'matrix'
p27
sS'typ'
p28
g8
sS'ok'
p29
S'boolean'
p30
sS'model.blocktype'
p31
g10
sS'model.dep_ut'
p32
S'vector_boolean'
p33
sS'exprs'
p34
g27
sS'r'
p35
g30
sS'y'
p36
g8
sS'x'
p37
NsS'model'
p38
g2
s.