c__builtin__
set
p0
((lp1
S'x'
p2
aS'nz'
p3
aS'herit'
p4
aS'ascii'
p5
aS'varnam'
p6
atp7
Rp8
.c__builtin__
set
p0
((lp1
tp2
Rp3
.c__builtin__
set
p0
((lp1
tp2
Rp3
.c__builtin__
set
p0
((lp1
tp2
Rp3
.c__builtin__
set
p0
((lp1
tp2
Rp3
.c__builtin__
set
p0
((lp1
tp2
Rp3
.