c__builtin__
set
p0
((lp1
S'x'
p2
aS'nz'
p3
aS'herit'
p4
aS'ascii'
p5
aS'varnam'
p6
atp7
Rp8
.(dp0
S'arg1'
p1
S'object'
p2
sS'graphics'
p3
g2
sS'ierr'
p4
S'double'
p5
sS'x.model'
p6
NsS'model.out'
p7
S'vector'
p8
sS'varnam'
p9
S'string'
p10
sS'model.in2'
p11
g5
sS'model.in1'
p12
g8
sS'herit'
p13
g5
sS'x.graphics'
p14
g2
sS'nz'
p15
g5
sS'gr_i'
p16
g8
sS'model.evtin'
p17
g8
sS'nu'
p18
g5
sS'model.firing'
p19
g8
sS'model.sim'
p20
g8
sS'model.evtout'
p21
g8
sS'model.intyp'
p22
g5
sS'model.rpar'
p23
g8
sS'graphics.exprs'
p24
NsS'model.ipar'
p25
S'matrix'
p26
sS'typ'
p27
g8
sS'[model,graphics,ok]'
p28
g5
sS'ok'
p29
S'boolean'
p30
sS'model.blocktype'
p31
g10
sS'model.dep_ut'
p32
g8
sS'exprs'
p33
g26
sS'r'
p34
g30
sS'y'
p35
g8
sS'x'
p36
g5
sS'model'
p37
g2
s.