c__builtin__
set
p0
((lp1
S'herit'
p2
aS'nz'
p3
aS'graphics'
p4
aS'x'
p5
aS'model'
p6
aS'ascii'
p7
aS'varnam'
p8
atp9
Rp10
.(dp0
S'graphics'
p1
S'object'
p2
sS'ierr'
p3
S'double'
p4
sS'x.model'
p5
NsS'model.out'
p6
S'vector'
p7
sS'varnam'
p8
S'string'
p9
sS'model.in2'
p10
g4
sS'model.intyp'
p11
g4
sS'herit'
p12
g4
sS'x.graphics'
p13
g2
sS'nz'
p14
g4
sS'gr_i'
p15
g7
sS'model.evtin'
p16
g7
sS'nu'
p17
g4
sS'model.firing'
p18
g7
sS'model.sim'
p19
S'list'
p20
sS'model.evtout'
p21
g7
sS'model.rpar'
p22
g7
sS'model.in'
p23
g7
sS'graphics.exprs'
p24
NsS'model.ipar'
p25
S'matrix'
p26
sS'typ'
p27
g7
sS'ok'
p28
S'boolean'
p29
sS'model.blocktype'
p30
g9
sS'model.dep_ut'
p31
S'vector_boolean'
p32
sS'exprs'
p33
g26
sS'r'
p34
g29
sS'y'
p35
g7
sS'x'
p36
g7
sS'model'
p37
g2
s.