c__builtin__
set
p0
((lp1
S'x'
p2
aS'model'
p3
aS'graphics'
p4
atp5
Rp6
.(dp0
S'model.sim'
p1
S'string'
p2
sS'model.blocktype'
p3
g2
sS'exprs'
p4
g2
sS'in1'
p5
S'double'
p6
sS'model.dep_ut'
p7
S'vector_boolean'
p8
sS'model.evtin'
p9
g6
sS'gr_i'
p10
S'vector'
p11
sS'model.in'
p12
g6
sS'y'
p13
g11
sS'x'
p14
g11
sS'model'
p15
S'object'
p16
sS'typ'
p17
g11
s.