c__builtin__
set
p0
((lp1
S'isdir'
p2
aS'_str2code'
p3
aS'in1'
p4
aS'fname1'
p5
aS'N'
p6
aS'frmt1'
p7
aS'x'
p8
aS'model'
p9
atp10
Rp11
.(dp0
S'model.dstate'
p1
S'matrix'
p2
sS'arg1'
p3
S'object'
p4
sS'graphics.exprs'
p5
NsS'dstate'
p6
g2
sS'x.model'
p7
g4
sS'model.dep_ut'
p8
S'vector'
p9
sS'[pa,fn,ex]'
p10
S'double'
p11
sS'warnMessage'
p12
g11
sS'x.graphics'
p13
g4
sS'lunit'
p14
g11
sS'fname'
p15
S'string'
p16
sS'frmt'
p17
g16
sS'model.evtin'
p18
g11
sS'model.sim'
p19
g16
sS'nin'
p20
g11
sS'in1'
p21
g11
sS'model.in1'
p22
g11
sS'warnAdvise'
p23
g11
sS'warnXcosMessage'
p24
g11
sS'graphics'
p25
g4
sS'model.ipar'
p26
g2
sS'typ'
p27
g9
sS'arg1.model'
p28
g4
sS'ok'
p29
S'boolean'
p30
sS'model.blocktype'
p31
g16
sS'frmt1'
p32
g11
sS'fname1'
p33
g11
sS'exprs'
p34
g2
sS'N'
p35
g11
sS'gr_i'
p36
g9
sS'ipar'
p37
g2
sS'y'
p38
g9
sS'x'
p39
g11
sS'model'
p40
g4
s.