c__builtin__
set
p0
((lp1
S'isdir'
p2
aS'_str2code'
p3
aS'in1'
p4
aS'fname1'
p5
aS'N'
p6
aS'frmt1'
p7
aS'x'
p8
atp9
Rp10
.(dp0
S'model.dstate'
p1
S'matrix'
p2
sS'arg1'
p3
S'object'
p4
sS'graphics.exprs'
p5
NsS'dstate'
p6
g2
sS'this.x.model'
p7
g4
sS'[pa,fn,ex]'
p8
S'double'
p9
sS'warnMessage'
p10
g9
sS'this.x.graphics'
p11
g4
sS'lunit'
p12
g9
sS'this.fname1'
p13
g9
sS'fname'
p14
S'string'
p15
sS'frmt'
p16
g15
sS'model.evtin'
p17
g9
sS'this.x'
p18
g9
sS'model.sim'
p19
g15
sS'nin'
p20
g9
sS'this.N'
p21
g9
sS'this.frmt1'
p22
g9
sS'model.in1'
p23
NsS'y'
p24
S'vector'
p25
sS'warnAdvise'
p26
g9
sS'warnXcosMessage'
p27
g9
sS'graphics'
p28
g4
sS'model.ipar'
p29
g2
sS'typ'
p30
g25
sS'arg1.model'
p31
g4
sS'ok'
p32
S'boolean'
p33
sS'model.blocktype'
p34
g15
sS'model.dep_ut'
p35
g25
sS'exprs'
p36
g2
sS'gr_i'
p37
g25
sS'ipar'
p38
g2
sS'this.in1'
p39
g9
sS'model'
p40
g9
s.