c__builtin__
set
p0
((lp1
S'isdir'
p2
aS'_str2code'
p3
aS'in1'
p4
aS'fname1'
p5
aS'frmt1'
p6
aS'exprs'
p7
aS'gr_i'
p8
aS'graphics'
p9
aS'x'
p10
aS'model'
p11
aS'N'
p12
atp13
Rp14
.(dp0
S'model.dstate'
p1
S'matrix'
p2
sS'arg1'
p3
S'object'
p4
sS'graphics.exprs'
p5
NsS'dstate'
p6
g2
sS'x.model'
p7
g4
sS'model.dep_ut'
p8
S'vector'
p9
sS'warnMessage'
p10
S'double'
p11
sS'x.graphics'
p12
g4
sS'lunit'
p13
g11
sS'fname'
p14
S'string'
p15
sS'frmt'
p16
g15
sS'model.evtin'
p17
g11
sS'model.sim'
p18
g15
sS'nin'
p19
g11
sS'in1'
p20
g11
sS'N'
p21
g11
sS'warnAdvise'
p22
g11
sS'warnXcosMessage'
p23
g11
sS'model.in'
p24
g11
sS'graphics'
p25
g4
sS'model.ipar'
p26
g2
sS'typ'
p27
g9
sS'arg1.model'
p28
g4
sS'ok'
p29
S'boolean'
p30
sS'model.blocktype'
p31
g15
sS'frmt1'
p32
g11
sS'fname1'
p33
g11
sS'exprs'
p34
g2
sS'gr_i'
p35
g9
sS'ipar'
p36
g2
sS'y'
p37
g9
sS'x'
p38
g11
sS'model'
p39
g4
s.