c__builtin__
set
p0
((lp1
S'isdir'
p2
aS'_str2code'
p3
aS'frmt1'
p4
aS'fname1'
p5
aS'in1'
p6
aS'graphics'
p7
aS'x'
p8
aS'model'
p9
aS'N'
p10
atp11
Rp12
.(dp0
S'model.dstate'
p1
S'matrix'
p2
sS'graphics.exprs'
p3
NsS'dstate'
p4
g2
sS'x.model'
p5
S'object'
p6
sS'model.dep_ut'
p7
S'vector_boolean'
p8
sS'warnMessage'
p9
S'double'
p10
sS'x.graphics'
p11
g6
sS'lunit'
p12
g10
sS'fname'
p13
S'string'
p14
sS'frmt'
p15
g14
sS'model.evtin'
p16
g10
sS'model.sim'
p17
g14
sS'nin'
p18
g10
sS'in1'
p19
g10
sS'N'
p20
g10
sS'warnAdvise'
p21
g10
sS'warnXcosMessage'
p22
g10
sS'model.in'
p23
g10
sS'graphics'
p24
g6
sS'model.ipar'
p25
g2
sS'typ'
p26
S'vector'
p27
sS'ok'
p28
S'boolean'
p29
sS'model.blocktype'
p30
g14
sS'frmt1'
p31
g10
sS'fname1'
p32
g10
sS'exprs'
p33
g2
sS'gr_i'
p34
g27
sS'ipar'
p35
g2
sS'y'
p36
g27
sS'x'
p37
g27
sS'model'
p38
g6
s.