c__builtin__
set
p0
((lp1
S'isdir'
p2
aS'_str2code'
p3
aS'in1'
p4
aS'fname1'
p5
aS'N'
p6
aS'frmt1'
p7
aS'x'
p8
aS'model'
p9
atp10
Rp11
.(dp0
S'model.dstate'
p1
S'matrix'
p2
sS'arg1'
p3
S'object'
p4
sS'graphics.exprs'
p5
NsS'dstate'
p6
g2
sS'x.model'
p7
g4
sS'model.dep_ut'
p8
S'vector'
p9
sS'warnMessage'
p10
S'double'
p11
sS'x.graphics'
p12
g4
sS'lunit'
p13
g11
sS'fname'
p14
S'string'
p15
sS'frmt'
p16
g15
sS'model.evtin'
p17
g11
sS'model.sim'
p18
g15
sS'nin'
p19
g11
sS'model.in1'
p20
g11
sS'in1'
p21
g11
sS'warnAdvise'
p22
g11
sS'warnXcosMessage'
p23
g11
sS'graphics'
p24
g4
sS'model.ipar'
p25
g2
sS'typ'
p26
g9
sS'arg1.model'
p27
g4
sS'ok'
p28
S'boolean'
p29
sS'model.blocktype'
p30
g15
sS'frmt1'
p31
g11
sS'fname1'
p32
g11
sS'exprs'
p33
g2
sS'N'
p34
g11
sS'gr_i'
p35
g9
sS'ipar'
p36
g2
sS'y'
p37
g9
sS'x'
p38
g11
sS'model'
p39
g4
s.