c__builtin__
set
p0
((lp1
S'isdir'
p2
aS'_str2code'
p3
aS'frmt1'
p4
aS'fname1'
p5
aS'in1'
p6
aS'swap'
p7
aS'graphics'
p8
aS'x'
p9
aS'model'
p10
aS'N'
p11
aS'alreadyran'
p12
atp13
Rp14
.(dp0
S'model.dstate'
p1
S'matrix'
p2
sS'graphics'
p3
S'object'
p4
sS'dstate'
p5
g2
sS'x.model'
p6
g4
sS'model.dep_ut'
p7
S'vector_boolean'
p8
sS'in'
p9
S'double'
p10
sS'x.graphics'
p11
g4
sS'lunit'
p12
g10
sS'swap'
p13
g10
sS'fname'
p14
S'string'
p15
sS'frmt'
p16
g15
sS'model.evtin'
p17
g10
sS'model.sim'
p18
S'list'
p19
sS'nin'
p20
g10
sS'fmts'
p21
S'vector_string'
p22
sS'N'
p23
g10
sS'model.in'
p24
NsS'graphics.exprs'
p25
NsS'model.ipar'
p26
g2
sS'typ'
p27
S'vector'
p28
sS'ok'
p29
S'boolean'
p30
sS'model.blocktype'
p31
g15
sS'frmt1'
p32
g15
sS'fname1'
p33
g10
sS'exprs'
p34
g2
sS'gr_i'
p35
g28
sS'ipar'
p36
g2
sS'y'
p37
g28
sS'x'
p38
g28
sS'model'
p39
g4
s.