c__builtin__
set
p0
((lp1
S'_str2code'
p2
aS'N'
p3
aS'exprs'
p4
aS'gr_i'
p5
aS'swap'
p6
aS'graphics'
p7
aS'x'
p8
aS'model'
p9
aS'alreadyran'
p10
atp11
Rp12
.(dp0
S'model.dstate'
p1
S'matrix'
p2
sS'arg1'
p3
S'object'
p4
sS'graphics'
p5
g4
sS'dstate'
p6
g2
sS'x.model'
p7
g4
sS'model.dep_ut'
p8
S'vector'
p9
sS'x.graphics'
p10
g4
sS'lunit'
p11
S'double'
p12
sS'swap'
p13
g12
sS'fname'
p14
S'string'
p15
sS'frmt'
p16
g15
sS'model.evtin'
p17
g12
sS'model.sim'
p18
S'list'
p19
sS'nin'
p20
g12
sS'in1'
p21
g12
sS'N'
p22
g12
sS'model.in'
p23
g12
sS'graphics.exprs'
p24
NsS'model.ipar'
p25
g2
sS'typ'
p26
g9
sS'ok'
p27
S'boolean'
p28
sS'model.blocktype'
p29
g15
sS'frmt1'
p30
g15
sS'fname1'
p31
g15
sS'exprs'
p32
g9
sS'gr_i'
p33
g9
sS'ipar'
p34
g2
sS'y'
p35
g9
sS'x'
p36
NsS'model'
p37
g4
s.