c__builtin__
set
p0
((lp1
S'_str2code'
p2
aS'x'
p3
aS'alreadyran'
p4
aS'swap'
p5
aS'N'
p6
atp7
Rp8
.(dp0
S'model.dstate'
p1
S'matrix'
p2
sS'arg1'
p3
S'object'
p4
sS'this.swap'
p5
S'double'
p6
sS'graphics'
p7
g4
sS'dstate'
p8
g2
sS'model.dep_ut'
p9
S'vector'
p10
sS'this.x.model'
p11
g4
sS'model.in1'
p12
g6
sS'this.x.graphics'
p13
g4
sS'lunit'
p14
g6
sS'fname'
p15
S'string'
p16
sS'frmt'
p17
g16
sS'model.evtin'
p18
g6
sS'this.x'
p19
g6
sS'model.sim'
p20
g10
sS'nin'
p21
g6
sS'this.N'
p22
g6
sS'in1'
p23
g6
sS'graphics.exprs'
p24
NsS'model.ipar'
p25
g2
sS'typ'
p26
g10
sS'ok'
p27
S'boolean'
p28
sS'model.blocktype'
p29
g16
sS'frmt1'
p30
g16
sS'fname1'
p31
g16
sS'exprs'
p32
g10
sS'gr_i'
p33
g10
sS'ipar'
p34
g2
sS'y'
p35
g10
sS'model'
p36
g4
s.