c__builtin__
set
p0
((lp1
S'isdir'
p2
aS'_str2code'
p3
aS'in1'
p4
aS'fname1'
p5
aS'N'
p6
aS'frmt1'
p7
aS'swap'
p8
aS'x'
p9
aS'alreadyran'
p10
atp11
Rp12
.(dp0
S'model.dstate'
p1
S'matrix'
p2
sS'arg1'
p3
S'object'
p4
sS'graphics.exprs'
p5
NsS'dstate'
p6
g2
sS'x.model'
p7
g4
sS'model.dep_ut'
p8
S'vector'
p9
sS'[pa,fn,ex]'
p10
S'double'
p11
sS'model.in1'
p12
g11
sS'x.graphics'
p13
g4
sS'lunit'
p14
g11
sS'swap'
p15
g11
sS'fname'
p16
S'string'
p17
sS'frmt'
p18
g17
sS'model.evtin'
p19
g11
sS'model.sim'
p20
g9
sS'nin'
p21
g11
sS'fmts'
p22
g9
sS'in1'
p23
g11
sS'N'
p24
g11
sS'graphics'
p25
g4
sS'model.ipar'
p26
g2
sS'typ'
p27
g9
sS'ok'
p28
S'boolean'
p29
sS'model.blocktype'
p30
g17
sS'frmt1'
p31
g17
sS'fname1'
p32
g11
sS'exprs'
p33
g2
sS'gr_i'
p34
g9
sS'ipar'
p35
g2
sS'y'
p36
g9
sS'x'
p37
g11
sS'model'
p38
g4
s.