c__builtin__
set
p0
((lp1
S'_str2code'
p2
aS'N'
p3
aS'alreadyran'
p4
aS'x'
p5
aS'model'
p6
aS'swap'
p7
atp8
Rp9
.(dp0
S'model.dstate'
p1
S'matrix'
p2
sS'arg1'
p3
S'object'
p4
sS'graphics'
p5
g4
sS'dstate'
p6
g2
sS'x.model'
p7
g4
sS'model.dep_ut'
p8
S'vector'
p9
sS'model.in1'
p10
S'double'
p11
sS'x.graphics'
p12
g4
sS'lunit'
p13
g11
sS'swap'
p14
g11
sS'fname'
p15
S'string'
p16
sS'frmt'
p17
g16
sS'model.evtin'
p18
g11
sS'model.sim'
p19
g9
sS'nin'
p20
g11
sS'in1'
p21
g11
sS'N'
p22
g11
sS'graphics.exprs'
p23
NsS'model.ipar'
p24
g2
sS'typ'
p25
g9
sS'ok'
p26
S'boolean'
p27
sS'model.blocktype'
p28
g16
sS'frmt1'
p29
g16
sS'fname1'
p30
g16
sS'exprs'
p31
g9
sS'gr_i'
p32
g9
sS'ipar'
p33
g2
sS'y'
p34
g9
sS'x'
p35
g11
sS'model'
p36
g4
s.