c__builtin__
set
p0
((lp1
S'_str2code'
p2
aS'N'
p3
aS'swap'
p4
aS'graphics'
p5
aS'x'
p6
aS'model'
p7
aS'alreadyran'
p8
atp9
Rp10
.(dp0
S'model.dstate'
p1
S'matrix'
p2
sS'arg1'
p3
S'object'
p4
sS'graphics'
p5
g4
sS'dstate'
p6
g2
sS'x.model'
p7
g4
sS'model.dep_ut'
p8
S'vector_boolean'
p9
sS'x.graphics'
p10
g4
sS'lunit'
p11
S'double'
p12
sS'swap'
p13
g12
sS'fname'
p14
S'string'
p15
sS'frmt'
p16
g15
sS'model.evtin'
p17
g12
sS'model.sim'
p18
S'list'
p19
sS'nin'
p20
g12
sS'in1'
p21
g12
sS'N'
p22
g12
sS'model.in'
p23
g12
sS'graphics.exprs'
p24
NsS'model.ipar'
p25
g2
sS'typ'
p26
S'vector'
p27
sS'ok'
p28
S'boolean'
p29
sS'model.blocktype'
p30
g15
sS'frmt1'
p31
g15
sS'fname1'
p32
g15
sS'exprs'
p33
S'vector_string'
p34
sS'gr_i'
p35
g27
sS'ipar'
p36
g2
sS'y'
p37
g27
sS'x'
p38
NsS'model'
p39
g4
s.