c__builtin__
set
p0
((lp1
S'isdir'
p2
aS'_str2code'
p3
aS'in1'
p4
aS'fname1'
p5
aS'N'
p6
aS'frmt1'
p7
aS'swap'
p8
aS'x'
p9
aS'alreadyran'
p10
atp11
Rp12
.(dp0
S'model.dstate'
p1
S'matrix'
p2
sS'arg1'
p3
S'object'
p4
sS'this.swap'
p5
S'double'
p6
sS'graphics.exprs'
p7
NsS'dstate'
p8
g2
sS'this.x.model'
p9
g4
sS'[pa,fn,ex]'
p10
g6
sS'model.in1'
p11
NsS'this.x.graphics'
p12
g4
sS'lunit'
p13
g6
sS'this.fname1'
p14
g6
sS'fname'
p15
S'string'
p16
sS'frmt'
p17
g16
sS'model.evtin'
p18
g6
sS'this.x'
p19
g6
sS'model.sim'
p20
S'vector'
p21
sS'nin'
p22
g6
sS'this.N'
p23
g6
sS'fmts'
p24
g21
sS'this.frmt1'
p25
g16
sS'y'
p26
g21
sS'graphics'
p27
g4
sS'model.ipar'
p28
g2
sS'typ'
p29
g21
sS'ok'
p30
S'boolean'
p31
sS'model.blocktype'
p32
g16
sS'model.dep_ut'
p33
g21
sS'exprs'
p34
g2
sS'gr_i'
p35
g21
sS'ipar'
p36
g2
sS'this.in1'
p37
g6
sS'model'
p38
g6
s.