c__builtin__
set
p0
((lp1
S'isdir'
p2
aS'_str2code'
p3
aS'frmt1'
p4
aS'fname1'
p5
aS'in1'
p6
aS'swap'
p7
aS'graphics'
p8
aS'x'
p9
aS'model'
p10
aS'N'
p11
aS'alreadyran'
p12
atp13
Rp14
.(dp0
S'model.dstate'
p1
S'matrix'
p2
sS'graphics'
p3
S'object'
p4
sS'dstate'
p5
g2
sS'x.model'
p6
g4
sS'model.dep_ut'
p7
S'vector_boolean'
p8
sS'x.graphics'
p9
g4
sS'lunit'
p10
S'double'
p11
sS'swap'
p12
g11
sS'fname'
p13
S'string'
p14
sS'frmt'
p15
g14
sS'model.evtin'
p16
g11
sS'model.sim'
p17
S'list'
p18
sS'nin'
p19
g11
sS'fmts'
p20
S'vector_string'
p21
sS'in1'
p22
g11
sS'N'
p23
g11
sS'model.in'
p24
g11
sS'graphics.exprs'
p25
NsS'model.ipar'
p26
g2
sS'typ'
p27
S'vector'
p28
sS'ok'
p29
S'boolean'
p30
sS'model.blocktype'
p31
g14
sS'frmt1'
p32
g14
sS'fname1'
p33
g11
sS'exprs'
p34
g2
sS'gr_i'
p35
g28
sS'ipar'
p36
g2
sS'y'
p37
g28
sS'x'
p38
g28
sS'model'
p39
g4
s.