c__builtin__
set
p0
((lp1
S'isdir'
p2
aS'_str2code'
p3
aS'in1'
p4
aS'fname1'
p5
aS'frmt1'
p6
aS'exprs'
p7
aS'gr_i'
p8
aS'swap'
p9
aS'graphics'
p10
aS'x'
p11
aS'model'
p12
aS'N'
p13
aS'alreadyran'
p14
atp15
Rp16
.(dp0
S'model.dstate'
p1
S'matrix'
p2
sS'arg1'
p3
S'object'
p4
sS'graphics'
p5
g4
sS'dstate'
p6
g2
sS'x.model'
p7
g4
sS'model.dep_ut'
p8
S'vector'
p9
sS'x.graphics'
p10
g4
sS'lunit'
p11
S'double'
p12
sS'swap'
p13
g12
sS'fname'
p14
S'string'
p15
sS'frmt'
p16
g15
sS'model.evtin'
p17
g12
sS'model.sim'
p18
S'list'
p19
sS'nin'
p20
g12
sS'fmts'
p21
g9
sS'in1'
p22
g12
sS'N'
p23
g12
sS'model.in'
p24
g12
sS'graphics.exprs'
p25
NsS'model.ipar'
p26
g2
sS'typ'
p27
g9
sS'ok'
p28
S'boolean'
p29
sS'model.blocktype'
p30
g15
sS'frmt1'
p31
g15
sS'fname1'
p32
g12
sS'exprs'
p33
g2
sS'gr_i'
p34
g9
sS'ipar'
p35
g2
sS'y'
p36
g9
sS'x'
p37
NsS'model'
p38
g4
s.