c__builtin__
set
p0
((lp1
S'isdir'
p2
aS'_str2code'
p3
aS'in1'
p4
aS'fname1'
p5
aS'N'
p6
aS'frmt1'
p7
aS'swap'
p8
aS'x'
p9
aS'alreadyran'
p10
atp11
Rp12
.c__builtin__
set
p0
((lp1
tp2
Rp3
.c__builtin__
set
p0
((lp1
tp2
Rp3
.c__builtin__
set
p0
((lp1
tp2
Rp3
.c__builtin__
set
p0
((lp1
tp2
Rp3
.c__builtin__
set
p0
((lp1
tp2
Rp3
.