c__builtin__
set
p0
((lp1
S'_str2code'
p2
aS'N'
p3
aS'swap'
p4
aS'graphics'
p5
aS'x'
p6
aS'model'
p7
aS'alreadyran'
p8
atp9
Rp10
.(dp0
S'model.dstate'
p1
S'matrix'
p2
sS'graphics'
p3
S'object'
p4
sS'dstate'
p5
g2
sS'x.model'
p6
g4
sS'model.dep_ut'
p7
S'vector_boolean'
p8
sS'x.graphics'
p9
g4
sS'lunit'
p10
S'double'
p11
sS'swap'
p12
g11
sS'fname'
p13
S'string'
p14
sS'frmt'
p15
g14
sS'model.evtin'
p16
g11
sS'model.sim'
p17
S'list'
p18
sS'nin'
p19
g11
sS'in1'
p20
g11
sS'N'
p21
g11
sS'model.in'
p22
g11
sS'graphics.exprs'
p23
NsS'model.ipar'
p24
g2
sS'typ'
p25
S'vector'
p26
sS'ok'
p27
S'boolean'
p28
sS'model.blocktype'
p29
g14
sS'frmt1'
p30
g14
sS'fname1'
p31
g14
sS'exprs'
p32
S'vector_string'
p33
sS'gr_i'
p34
g26
sS'ipar'
p35
g2
sS'y'
p36
g26
sS'x'
p37
g26
sS'model'
p38
g4
s.