c__builtin__
set
p0
((lp1
S'_str2code'
p2
aS'N'
p3
aS'exprs'
p4
aS'gr_i'
p5
aS'swap'
p6
aS'graphics'
p7
aS'x'
p8
aS'model'
p9
aS'alreadyran'
p10
atp11
Rp12
.(dp0
S'model.dstate'
p1
S'matrix'
p2
sS'arg1'
p3
S'object'
p4
sS'graphics'
p5
g4
sS'dstate'
p6
g2
sS'x.model'
p7
g4
sS'model.dep_ut'
p8
S'vector'
p9
sS'model.in1'
p10
S'double'
p11
sS'x.graphics'
p12
g4
sS'lunit'
p13
g11
sS'swap'
p14
g11
sS'fname'
p15
S'string'
p16
sS'frmt'
p17
g16
sS'model.evtin'
p18
g11
sS'model.sim'
p19
S'list'
p20
sS'nin'
p21
g11
sS'in1'
p22
g11
sS'N'
p23
g11
sS'graphics.exprs'
p24
NsS'model.ipar'
p25
g2
sS'typ'
p26
g9
sS'ok'
p27
S'boolean'
p28
sS'model.blocktype'
p29
g16
sS'frmt1'
p30
g16
sS'fname1'
p31
g16
sS'exprs'
p32
g9
sS'gr_i'
p33
g9
sS'ipar'
p34
g2
sS'y'
p35
g9
sS'x'
p36
g11
sS'model'
p37
g4
s.