c__builtin__
set
p0
((lp1
S'isdir'
p2
aS'_str2code'
p3
aS'frmt1'
p4
aS'fname1'
p5
aS'in1'
p6
aS'swap'
p7
aS'graphics'
p8
aS'x'
p9
aS'model'
p10
aS'N'
p11
aS'alreadyran'
p12
atp13
Rp14
.(dp0
S'model.dstate'
p1
S'matrix'
p2
sS'arg1'
p3
S'object'
p4
sS'graphics'
p5
g4
sS'dstate'
p6
g2
sS'x.model'
p7
g4
sS'model.dep_ut'
p8
S'vector'
p9
sS'model.in1'
p10
S'double'
p11
sS'x.graphics'
p12
g4
sS'lunit'
p13
g11
sS'swap'
p14
g11
sS'fname'
p15
S'string'
p16
sS'frmt'
p17
g16
sS'model.evtin'
p18
g11
sS'model.sim'
p19
S'list'
p20
sS'nin'
p21
g11
sS'fmts'
p22
g9
sS'in1'
p23
g11
sS'N'
p24
g11
sS'graphics.exprs'
p25
NsS'model.ipar'
p26
g2
sS'typ'
p27
g9
sS'ok'
p28
S'boolean'
p29
sS'model.blocktype'
p30
g16
sS'frmt1'
p31
g16
sS'fname1'
p32
g11
sS'exprs'
p33
g2
sS'gr_i'
p34
g9
sS'ipar'
p35
g2
sS'y'
p36
g9
sS'x'
p37
g11
sS'model'
p38
g4
s.