c__builtin__
set
p0
((lp1
S'isdir'
p2
aS'_str2code'
p3
aS'frmt1'
p4
aS'fname1'
p5
aS'in1'
p6
aS'swap'
p7
aS'graphics'
p8
aS'x'
p9
aS'model'
p10
aS'N'
p11
aS'alreadyran'
p12
atp13
Rp14
.(dp0
S'model.dstate'
p1
S'matrix'
p2
sS'arg1'
p3
S'object'
p4
sS'graphics'
p5
g4
sS'dstate'
p6
g2
sS'x.model'
p7
g4
sS'model.dep_ut'
p8
S'vector_boolean'
p9
sS'x.graphics'
p10
g4
sS'lunit'
p11
S'double'
p12
sS'swap'
p13
g12
sS'fname'
p14
S'string'
p15
sS'frmt'
p16
g15
sS'model.evtin'
p17
g12
sS'model.sim'
p18
S'list'
p19
sS'nin'
p20
g12
sS'fmts'
p21
S'vector_string'
p22
sS'in1'
p23
g12
sS'N'
p24
g12
sS'model.in'
p25
g12
sS'graphics.exprs'
p26
NsS'model.ipar'
p27
g2
sS'typ'
p28
S'vector'
p29
sS'ok'
p30
S'boolean'
p31
sS'model.blocktype'
p32
g15
sS'frmt1'
p33
g15
sS'fname1'
p34
g12
sS'exprs'
p35
g2
sS'gr_i'
p36
g29
sS'ipar'
p37
g2
sS'y'
p38
g29
sS'x'
p39
NsS'model'
p40
g4
s.